
Xmas_Tree_Xtreeme.elf:     file format elf32-avr

Sections:
Idx Name          Size      VMA       LMA       File off  Algn
  0 .text         00006d50  00000000  00000000  000000b4  2**1
                  CONTENTS, ALLOC, LOAD, READONLY, CODE
  1 .data         00000148  00800060  00006d50  00006e04  2**0
                  CONTENTS, ALLOC, LOAD, DATA
  2 .bss          000000e9  008001a8  008001a8  00006f4c  2**0
                  ALLOC
  3 .eeprom       00000001  00810000  00810000  00006f4c  2**0
                  CONTENTS, ALLOC, LOAD, DATA
  4 .comment      00000030  00000000  00000000  00006f4d  2**0
                  CONTENTS, READONLY
  5 .debug_aranges 00000210  00000000  00000000  00006f7d  2**0
                  CONTENTS, READONLY, DEBUGGING
  6 .debug_info   00005f6c  00000000  00000000  0000718d  2**0
                  CONTENTS, READONLY, DEBUGGING
  7 .debug_abbrev 00000623  00000000  00000000  0000d0f9  2**0
                  CONTENTS, READONLY, DEBUGGING
  8 .debug_line   00001572  00000000  00000000  0000d71c  2**0
                  CONTENTS, READONLY, DEBUGGING
  9 .debug_frame  000006c0  00000000  00000000  0000ec90  2**2
                  CONTENTS, READONLY, DEBUGGING
 10 .debug_str    00000adb  00000000  00000000  0000f350  2**0
                  CONTENTS, READONLY, DEBUGGING
 11 .debug_loc    00002590  00000000  00000000  0000fe2b  2**0
                  CONTENTS, READONLY, DEBUGGING
 12 .debug_ranges 00000290  00000000  00000000  000123bb  2**0
                  CONTENTS, READONLY, DEBUGGING

Disassembly of section .text:

00000000 <__vectors>:
       0:	0c 94 7a 01 	jmp	0x2f4	; 0x2f4 <__ctors_end>
       4:	0c 94 fd 02 	jmp	0x5fa	; 0x5fa <__vector_1>
       8:	0c 94 97 01 	jmp	0x32e	; 0x32e <__bad_interrupt>
       c:	0c 94 97 01 	jmp	0x32e	; 0x32e <__bad_interrupt>
      10:	0c 94 97 01 	jmp	0x32e	; 0x32e <__bad_interrupt>
      14:	0c 94 97 01 	jmp	0x32e	; 0x32e <__bad_interrupt>
      18:	0c 94 97 01 	jmp	0x32e	; 0x32e <__bad_interrupt>
      1c:	0c 94 15 03 	jmp	0x62a	; 0x62a <__vector_7>
      20:	0c 94 97 01 	jmp	0x32e	; 0x32e <__bad_interrupt>
      24:	0c 94 97 01 	jmp	0x32e	; 0x32e <__bad_interrupt>
      28:	0c 94 87 02 	jmp	0x50e	; 0x50e <__vector_10>
      2c:	0c 94 97 01 	jmp	0x32e	; 0x32e <__bad_interrupt>
      30:	0c 94 97 01 	jmp	0x32e	; 0x32e <__bad_interrupt>
      34:	0c 94 22 02 	jmp	0x444	; 0x444 <__vector_13>
      38:	0c 94 4e 02 	jmp	0x49c	; 0x49c <__vector_14>
      3c:	0c 94 97 01 	jmp	0x32e	; 0x32e <__bad_interrupt>
      40:	0c 94 97 01 	jmp	0x32e	; 0x32e <__bad_interrupt>
      44:	0c 94 97 01 	jmp	0x32e	; 0x32e <__bad_interrupt>
      48:	0c 94 97 01 	jmp	0x32e	; 0x32e <__bad_interrupt>
      4c:	0c 94 97 01 	jmp	0x32e	; 0x32e <__bad_interrupt>
      50:	0c 94 97 01 	jmp	0x32e	; 0x32e <__bad_interrupt>
      54:	aa 02       	muls	r26, r26
      56:	ac 02       	muls	r26, r28
      58:	ae 02       	muls	r26, r30
      5a:	b0 02       	muls	r27, r16
      5c:	b2 02       	muls	r27, r18
      5e:	b4 02       	muls	r27, r20
      60:	b6 02       	muls	r27, r22
      62:	b8 02       	muls	r27, r24
      64:	b6 32       	cpi	r27, 0x26	; 38
      66:	d4 32       	cpi	r29, 0x24	; 36
      68:	f0 32       	cpi	r31, 0x20	; 32
      6a:	21 33       	cpi	r18, 0x31	; 49
      6c:	3d 33       	cpi	r19, 0x3D	; 61
      6e:	5c 33       	cpi	r21, 0x3C	; 60
      70:	7c 33       	cpi	r23, 0x3C	; 60
      72:	96 33       	cpi	r25, 0x36	; 54
      74:	b2 33       	cpi	r27, 0x32	; 50
      76:	ce 33       	cpi	r28, 0x3E	; 62
      78:	eb 33       	cpi	r30, 0x3B	; 59
      7a:	05 34       	cpi	r16, 0x45	; 69
      7c:	75 34       	cpi	r23, 0x45	; 69
      7e:	78 34       	cpi	r23, 0x48	; 72
      80:	7b 34       	cpi	r23, 0x4B	; 75
      82:	93 34       	cpi	r25, 0x43	; 67
      84:	9a 34       	cpi	r25, 0x4A	; 74
      86:	a0 34       	cpi	r26, 0x40	; 64
      88:	a5 34       	cpi	r26, 0x45	; 69
      8a:	aa 34       	cpi	r26, 0x4A	; 74
      8c:	ad 34       	cpi	r26, 0x4D	; 77
      8e:	b3 34       	cpi	r27, 0x43	; 67
      90:	b6 34       	cpi	r27, 0x46	; 70
      92:	bb 34       	cpi	r27, 0x4B	; 75

00000094 <__trampolines_end>:
	...
      9c:	ff ff       	.word	0xffff	; ????
      9e:	ff ff       	.word	0xffff	; ????
      a0:	ff ff       	.word	0xffff	; ????
      a2:	ff ff       	.word	0xffff	; ????
      a4:	c3 99       	sbic	0x18, 3	; 24
      a6:	99 99       	sbic	0x13, 1	; 19
      a8:	99 99       	sbic	0x13, 1	; 19
      aa:	c3 ff       	sbrs	r28, 3
      ac:	e7 c7       	rjmp	.+4046   	; 0x107c <go_sleep+0x1c2>
      ae:	e7 e7       	ldi	r30, 0x77	; 119
      b0:	e7 e7       	ldi	r30, 0x77	; 119
      b2:	e7 ff       	sbrs	r30, 7
      b4:	c3 99       	sbic	0x18, 3	; 24
      b6:	f9 f3       	breq	.-2      	; 0xb6 <__trampolines_end+0x22>
      b8:	e7 cf       	rjmp	.-50     	; 0x88 <__SREG__+0x49>
      ba:	81 ff       	sbrs	r24, 1
      bc:	c3 99       	sbic	0x18, 3	; 24
      be:	f9 e3       	ldi	r31, 0x39	; 57
      c0:	f9 99       	sbic	0x1f, 1	; 31
      c2:	c3 ff       	sbrs	r28, 3
      c4:	f3 e3       	ldi	r31, 0x33	; 51
      c6:	c3 93       	.word	0x93c3	; ????
      c8:	81 f3       	breq	.-32     	; 0xaa <__trampolines_end+0x16>
      ca:	f3 ff       	sbrs	r31, 3
      cc:	81 9f       	mul	r24, r17
      ce:	83 f9       	bld	r24, 3
      d0:	f9 99       	sbic	0x1f, 1	; 31
      d2:	c3 ff       	sbrs	r28, 3
      d4:	e3 cf       	rjmp	.-58     	; 0x9c <__trampolines_end+0x8>
      d6:	9f 83       	std	Y+7, r25	; 0x07
      d8:	99 99       	sbic	0x13, 1	; 19
      da:	c3 ff       	sbrs	r28, 3
      dc:	81 f9       	bld	r24, 1
      de:	f9 f3       	breq	.-2      	; 0xde <__trampolines_end+0x4a>
      e0:	e7 e7       	ldi	r30, 0x77	; 119
      e2:	e7 ff       	sbrs	r30, 7
      e4:	c3 99       	sbic	0x18, 3	; 24
      e6:	99 c3       	rjmp	.+1842   	; 0x81a <__vector_7+0x1f0>
      e8:	99 99       	sbic	0x13, 1	; 19
      ea:	c3 ff       	sbrs	r28, 3
      ec:	c3 99       	sbic	0x18, 3	; 24
      ee:	99 c1       	rjmp	.+818    	; 0x422 <read_ADC>
      f0:	f9 f3       	breq	.-2      	; 0xf0 <__trampolines_end+0x5c>
      f2:	c7 ff       	sbrs	r28, 7
      f4:	e7 c3       	rjmp	.+1998   	; 0x8c4 <DisplayString+0x26>
      f6:	99 99       	sbic	0x13, 1	; 19
      f8:	99 81       	ldd	r25, Y+1	; 0x01
      fa:	99 ff       	.word	0xff99	; ????
      fc:	87 bb       	out	0x17, r24	; 23
      fe:	bb bb       	out	0x1b, r27	; 27
     100:	87 bb       	out	0x17, r24	; 23
     102:	bb 87       	std	Y+11, r27	; 0x0b
     104:	c3 99       	sbic	0x18, 3	; 24
     106:	3f 3f       	cpi	r19, 0xFF	; 255
     108:	3f 99       	sbic	0x07, 7	; 7
     10a:	c3 ff       	sbrs	r28, 3
     10c:	87 93       	lat	Z, r24
     10e:	99 99       	sbic	0x13, 1	; 19
     110:	99 93       	st	Y+, r25
     112:	87 ff       	sbrs	r24, 7
     114:	81 9f       	mul	r24, r17
     116:	9f 87       	std	Y+15, r25	; 0x0f
     118:	9f 9f       	mul	r25, r31
     11a:	81 ff       	sbrs	r24, 1
     11c:	81 9f       	mul	r24, r17
     11e:	9f 87       	std	Y+15, r25	; 0x0f
     120:	9f 9f       	mul	r25, r31
     122:	9f ff       	.word	0xff9f	; ????
     124:	c3 99       	sbic	0x18, 3	; 24
     126:	3f 3f       	cpi	r19, 0xFF	; 255
     128:	31 99       	sbic	0x06, 1	; 6
     12a:	c1 ff       	sbrs	r28, 1
     12c:	99 99       	sbic	0x13, 1	; 19
     12e:	99 81       	ldd	r25, Y+1	; 0x01
     130:	99 99       	sbic	0x13, 1	; 19
     132:	99 ff       	.word	0xff99	; ????
     134:	e7 e7       	ldi	r30, 0x77	; 119
     136:	e7 e7       	ldi	r30, 0x77	; 119
     138:	e7 e7       	ldi	r30, 0x77	; 119
     13a:	e7 ff       	sbrs	r30, 7
     13c:	f9 f9       	.word	0xf9f9	; ????
     13e:	f9 f9       	.word	0xf9f9	; ????
     140:	99 99       	sbic	0x13, 1	; 19
     142:	c3 ff       	sbrs	r28, 3
     144:	99 99       	sbic	0x13, 1	; 19
     146:	93 87       	std	Z+11, r25	; 0x0b
     148:	93 99       	sbic	0x12, 3	; 18
     14a:	99 ff       	.word	0xff99	; ????
     14c:	9f 9f       	mul	r25, r31
     14e:	9f 9f       	mul	r25, r31
     150:	9f 9f       	mul	r25, r31
     152:	81 81       	ldd	r24, Z+1	; 0x01
     154:	39 11       	cpse	r19, r9
     156:	01 01       	movw	r0, r2
     158:	29 39       	cpi	r18, 0x99	; 153
     15a:	39 ff       	.word	0xff39	; ????
     15c:	39 19       	sub	r19, r9
     15e:	09 21       	and	r16, r9
     160:	31 39       	cpi	r19, 0x91	; 145
     162:	39 ff       	.word	0xff39	; ????
     164:	c3 99       	sbic	0x18, 3	; 24
     166:	99 99       	sbic	0x13, 1	; 19
     168:	99 99       	sbic	0x13, 1	; 19
     16a:	c3 ff       	sbrs	r28, 3
     16c:	83 99       	sbic	0x10, 3	; 16
     16e:	99 83       	std	Y+1, r25	; 0x01
     170:	9f 9f       	mul	r25, r31
     172:	9f ff       	.word	0xff9f	; ????
     174:	c3 99       	sbic	0x18, 3	; 24
     176:	99 99       	sbic	0x13, 1	; 19
     178:	91 c3       	rjmp	.+1826   	; 0x89c <__stack+0x3d>
     17a:	f1 ff       	sbrs	r31, 1
     17c:	83 99       	sbic	0x10, 3	; 16
     17e:	99 83       	std	Y+1, r25	; 0x01
     180:	93 99       	sbic	0x12, 3	; 18
     182:	99 ff       	.word	0xff99	; ????
     184:	c3 99       	sbic	0x18, 3	; 24
     186:	8f c7       	rjmp	.+3870   	; 0x10a6 <LED_Fading+0xe>
     188:	f1 99       	sbic	0x1e, 1	; 30
     18a:	c3 ff       	sbrs	r28, 3
     18c:	81 e7       	ldi	r24, 0x71	; 113
     18e:	e7 e7       	ldi	r30, 0x77	; 119
     190:	e7 e7       	ldi	r30, 0x77	; 119
     192:	e7 ff       	sbrs	r30, 7
     194:	99 99       	sbic	0x13, 1	; 19
     196:	99 99       	sbic	0x13, 1	; 19
     198:	99 99       	sbic	0x13, 1	; 19
     19a:	c1 ff       	sbrs	r28, 1
     19c:	99 99       	sbic	0x13, 1	; 19
     19e:	99 99       	sbic	0x13, 1	; 19
     1a0:	99 c3       	rjmp	.+1842   	; 0x8d4 <DisplayString+0x36>
     1a2:	e7 ff       	sbrs	r30, 7
     1a4:	39 39       	cpi	r19, 0x99	; 153
     1a6:	39 29       	or	r19, r9
     1a8:	01 11       	cpse	r16, r1
     1aa:	39 ff       	.word	0xff39	; ????
     1ac:	99 99       	sbic	0x13, 1	; 19
     1ae:	c3 e7       	ldi	r28, 0x73	; 115
     1b0:	c3 99       	sbic	0x18, 3	; 24
     1b2:	99 ff       	.word	0xff99	; ????
     1b4:	99 99       	sbic	0x13, 1	; 19
     1b6:	99 c3       	rjmp	.+1842   	; 0x8ea <DisplayString+0x4c>
     1b8:	e7 e7       	ldi	r30, 0x77	; 119
     1ba:	e7 ff       	sbrs	r30, 7
     1bc:	01 f9       	bld	r16, 1
     1be:	f3 e7       	ldi	r31, 0x73	; 115
     1c0:	cf 9f       	mul	r28, r31
     1c2:	01 ff       	sbrs	r16, 1
     1c4:	ff ff       	.word	0xffff	; ????
     1c6:	c3 f9       	bld	r28, 3
     1c8:	c1 99       	sbic	0x18, 1	; 24
     1ca:	c5 ff       	sbrs	r28, 5
     1cc:	9f 9f       	mul	r25, r31
     1ce:	9f 83       	std	Y+7, r25	; 0x07
     1d0:	99 99       	sbic	0x13, 1	; 19
     1d2:	a3 ff       	sbrs	r26, 3
     1d4:	ff ff       	.word	0xffff	; ????
     1d6:	c3 99       	sbic	0x18, 3	; 24
     1d8:	9f 99       	sbic	0x13, 7	; 19
     1da:	c3 ff       	sbrs	r28, 3
     1dc:	f9 f9       	.word	0xf9f9	; ????
     1de:	f9 c1       	rjmp	.+1010   	; 0x5d2 <__vector_10+0xc4>
     1e0:	99 99       	sbic	0x13, 1	; 19
     1e2:	c5 ff       	sbrs	r28, 5
     1e4:	ff ff       	.word	0xffff	; ????
     1e6:	c3 99       	sbic	0x18, 3	; 24
     1e8:	81 9f       	mul	r24, r17
     1ea:	c3 ff       	sbrs	r28, 3
     1ec:	e3 c9       	rjmp	.-3130   	; 0xfffff5b4 <__eeprom_end+0xff7ef5b3>
     1ee:	cf 87       	std	Y+15, r28	; 0x0f
     1f0:	cf cf       	rjmp	.-98     	; 0x190 <__trampolines_end+0xfc>
     1f2:	cf ff       	.word	0xffcf	; ????
     1f4:	ff ff       	.word	0xffff	; ????
     1f6:	c5 99       	sbic	0x18, 5	; 24
     1f8:	99 c1       	rjmp	.+818    	; 0x52c <__vector_10+0x1e>
     1fa:	f9 c3       	rjmp	.+2034   	; 0x9ee <Display_a_Character+0x8>
     1fc:	9f 9f       	mul	r25, r31
     1fe:	93 89       	ldd	r25, Z+19	; 0x13
     200:	99 99       	sbic	0x13, 1	; 19
     202:	99 ff       	.word	0xff99	; ????
     204:	e7 e7       	ldi	r30, 0x77	; 119
     206:	ff e7       	ldi	r31, 0x7F	; 127
     208:	e7 e7       	ldi	r30, 0x77	; 119
     20a:	e7 ff       	sbrs	r30, 7
     20c:	f3 ff       	sbrs	r31, 3
     20e:	f3 f3       	brvs	.-4      	; 0x20c <__trampolines_end+0x178>
     210:	f3 33       	cpi	r31, 0x33	; 51
     212:	33 87       	std	Z+11, r19	; 0x0b
     214:	9f 9f       	mul	r25, r31
     216:	99 93       	st	Y+, r25
     218:	87 93       	lat	Z, r24
     21a:	99 ff       	.word	0xff99	; ????
     21c:	e7 e7       	ldi	r30, 0x77	; 119
     21e:	e7 e7       	ldi	r30, 0x77	; 119
     220:	e7 e7       	ldi	r30, 0x77	; 119
     222:	e7 ff       	sbrs	r30, 7
     224:	ff ff       	.word	0xffff	; ????
     226:	39 11       	cpse	r19, r9
     228:	01 29       	or	r16, r1
     22a:	39 ff       	.word	0xff39	; ????
     22c:	ff ff       	.word	0xffff	; ????
     22e:	83 99       	sbic	0x10, 3	; 16
     230:	99 99       	sbic	0x13, 1	; 19
     232:	99 ff       	.word	0xff99	; ????
     234:	ff ff       	.word	0xffff	; ????
     236:	c3 99       	sbic	0x18, 3	; 24
     238:	99 99       	sbic	0x13, 1	; 19
     23a:	c3 ff       	sbrs	r28, 3
     23c:	ff ff       	.word	0xffff	; ????
     23e:	a3 99       	sbic	0x14, 3	; 20
     240:	99 83       	std	Y+1, r25	; 0x01
     242:	9f 9f       	mul	r25, r31
     244:	ff ff       	.word	0xffff	; ????
     246:	c5 99       	sbic	0x18, 5	; 24
     248:	99 c1       	rjmp	.+818    	; 0x57c <__vector_10+0x6e>
     24a:	f9 f9       	.word	0xf9f9	; ????
     24c:	ff ff       	.word	0xffff	; ????
     24e:	a3 89       	ldd	r26, Z+19	; 0x13
     250:	9f 9f       	mul	r25, r31
     252:	9f ff       	.word	0xff9f	; ????
     254:	ff ff       	.word	0xffff	; ????
     256:	c1 9f       	mul	r28, r17
     258:	c3 f9       	bld	r28, 3
     25a:	83 ff       	sbrs	r24, 3
     25c:	cf cf       	rjmp	.-98     	; 0x1fc <__trampolines_end+0x168>
     25e:	83 cf       	rjmp	.-250    	; 0x166 <__trampolines_end+0xd2>
     260:	cf cb       	rjmp	.-2146   	; 0xfffffa00 <__eeprom_end+0xff7ef9ff>
     262:	e7 ff       	sbrs	r30, 7
     264:	ff ff       	.word	0xffff	; ????
     266:	99 99       	sbic	0x13, 1	; 19
     268:	99 99       	sbic	0x13, 1	; 19
     26a:	c5 ff       	sbrs	r28, 5
     26c:	ff ff       	.word	0xffff	; ????
     26e:	99 99       	sbic	0x13, 1	; 19
     270:	99 c3       	rjmp	.+1842   	; 0x9a4 <DisplayString+0x106>
     272:	e7 ff       	sbrs	r30, 7
     274:	ff ff       	.word	0xffff	; ????
     276:	39 29       	or	r19, r9
     278:	01 01       	movw	r0, r2
     27a:	93 ff       	sbrs	r25, 3
     27c:	ff ff       	.word	0xffff	; ????
     27e:	39 93       	st	Y+, r19
     280:	c7 93       	lat	Z, r28
     282:	39 ff       	.word	0xff39	; ????
     284:	ff ff       	.word	0xffff	; ????
     286:	99 99       	sbic	0x13, 1	; 19
     288:	99 c1       	rjmp	.+818    	; 0x5bc <__vector_10+0xae>
     28a:	f9 c3       	rjmp	.+2034   	; 0xa7e <Display_Start_String+0x5e>
     28c:	ff ff       	.word	0xffff	; ????
     28e:	81 f3       	breq	.-32     	; 0x270 <__trampolines_end+0x1dc>
     290:	e7 cf       	rjmp	.-50     	; 0x260 <__trampolines_end+0x1cc>
     292:	81 ff       	sbrs	r24, 1
     294:	81 7e       	andi	r24, 0xE1	; 225
     296:	5a 7e       	andi	r21, 0xEA	; 234
     298:	42 66       	ori	r20, 0x62	; 98
     29a:	7e 81       	ldd	r23, Y+6	; 0x06
     29c:	ff e7       	ldi	r31, 0x7F	; 127
     29e:	c3 db       	rcall	.-2170   	; 0xfffffa26 <__eeprom_end+0xff7efa25>
     2a0:	db db       	rcall	.-2122   	; 0xfffffa58 <__eeprom_end+0xff7efa57>
     2a2:	db c3       	rjmp	.+1974   	; 0xa5a <Display_Start_String+0x3a>
     2a4:	ff e7       	ldi	r31, 0x7F	; 127
     2a6:	c3 db       	rcall	.-2170   	; 0xfffffa2e <__eeprom_end+0xff7efa2d>
     2a8:	db db       	rcall	.-2122   	; 0xfffffa60 <__eeprom_end+0xff7efa5f>
     2aa:	c3 c3       	rjmp	.+1926   	; 0xa32 <Display_Start_String+0x12>
     2ac:	ff e7       	ldi	r31, 0x7F	; 127
     2ae:	c3 db       	rcall	.-2170   	; 0xfffffa36 <__eeprom_end+0xff7efa35>
     2b0:	db c3       	rjmp	.+1974   	; 0xa68 <Display_Start_String+0x48>
     2b2:	c3 c3       	rjmp	.+1926   	; 0xa3a <Display_Start_String+0x1a>
     2b4:	ff e7       	ldi	r31, 0x7F	; 127
     2b6:	c3 db       	rcall	.-2170   	; 0xfffffa3e <__eeprom_end+0xff7efa3d>
     2b8:	c3 c3       	rjmp	.+1926   	; 0xa40 <Display_Start_String+0x20>
     2ba:	c3 c3       	rjmp	.+1926   	; 0xa42 <Display_Start_String+0x22>
     2bc:	ff e7       	ldi	r31, 0x7F	; 127
     2be:	c3 c3       	rjmp	.+1926   	; 0xa46 <Display_Start_String+0x26>
     2c0:	c3 c3       	rjmp	.+1926   	; 0xa48 <Display_Start_String+0x28>
     2c2:	c3 c3       	rjmp	.+1926   	; 0xa4a <Display_Start_String+0x2a>
     2c4:	ff ff       	.word	0xffff	; ????
     2c6:	ff ff       	.word	0xffff	; ????
     2c8:	ff ff       	.word	0xffff	; ????
     2ca:	fe ff       	.word	0xfffe	; ????
     2cc:	fc f8       	.word	0xf8fc	; ????
     2ce:	f1 e3       	ldi	r31, 0x31	; 49
     2d0:	c7 8f       	std	Z+31, r28	; 0x1f
     2d2:	1f 3f       	cpi	r17, 0xFF	; 255
     2d4:	ff ff       	.word	0xffff	; ????
     2d6:	ff c3       	rjmp	.+2046   	; 0xad6 <Test_Mode+0x18>
     2d8:	c3 ff       	sbrs	r28, 3
     2da:	ff ff       	.word	0xffff	; ????
     2dc:	99 14       	cp	r9, r9
     2de:	94 94       	.word	0x9494	; ????
     2e0:	94 94       	.word	0x9494	; ????
     2e2:	99 ff       	.word	0xff99	; ????
     2e4:	99 11       	cpse	r25, r9
     2e6:	99 99       	sbic	0x13, 1	; 19
     2e8:	99 99       	sbic	0x13, 1	; 19
     2ea:	99 ff       	.word	0xff99	; ????
     2ec:	b1 26       	eor	r11, r17
     2ee:	be bc       	out	0x2e, r11	; 46
     2f0:	b9 b3       	in	r27, 0x19	; 25
     2f2:	a0 ff       	sbrs	r26, 0

000002f4 <__ctors_end>:
     2f4:	11 24       	eor	r1, r1
     2f6:	1f be       	out	0x3f, r1	; 63
     2f8:	cf e5       	ldi	r28, 0x5F	; 95
     2fa:	d8 e0       	ldi	r29, 0x08	; 8
     2fc:	de bf       	out	0x3e, r29	; 62
     2fe:	cd bf       	out	0x3d, r28	; 61

00000300 <__do_copy_data>:
     300:	11 e0       	ldi	r17, 0x01	; 1
     302:	a0 e6       	ldi	r26, 0x60	; 96
     304:	b0 e0       	ldi	r27, 0x00	; 0
     306:	e0 e5       	ldi	r30, 0x50	; 80
     308:	fd e6       	ldi	r31, 0x6D	; 109
     30a:	02 c0       	rjmp	.+4      	; 0x310 <__do_copy_data+0x10>
     30c:	05 90       	lpm	r0, Z+
     30e:	0d 92       	st	X+, r0
     310:	a8 3a       	cpi	r26, 0xA8	; 168
     312:	b1 07       	cpc	r27, r17
     314:	d9 f7       	brne	.-10     	; 0x30c <__do_copy_data+0xc>

00000316 <__do_clear_bss>:
     316:	22 e0       	ldi	r18, 0x02	; 2
     318:	a8 ea       	ldi	r26, 0xA8	; 168
     31a:	b1 e0       	ldi	r27, 0x01	; 1
     31c:	01 c0       	rjmp	.+2      	; 0x320 <.do_clear_bss_start>

0000031e <.do_clear_bss_loop>:
     31e:	1d 92       	st	X+, r1

00000320 <.do_clear_bss_start>:
     320:	a1 39       	cpi	r26, 0x91	; 145
     322:	b2 07       	cpc	r27, r18
     324:	e1 f7       	brne	.-8      	; 0x31e <.do_clear_bss_loop>
     326:	0e 94 1f 34 	call	0x683e	; 0x683e <main>
     32a:	0c 94 a6 36 	jmp	0x6d4c	; 0x6d4c <_exit>

0000032e <__bad_interrupt>:
     32e:	0c 94 00 00 	jmp	0	; 0x0 <__vectors>

00000332 <com74hc595_setBit>:
     332:	e8 2f       	mov	r30, r24
     334:	e6 95       	lsr	r30
     336:	e6 95       	lsr	r30
     338:	e6 95       	lsr	r30
     33a:	f0 e0       	ldi	r31, 0x00	; 0
     33c:	ec 5e       	subi	r30, 0xEC	; 236
     33e:	fd 4f       	sbci	r31, 0xFD	; 253
     340:	87 70       	andi	r24, 0x07	; 7
     342:	21 e0       	ldi	r18, 0x01	; 1
     344:	30 e0       	ldi	r19, 0x00	; 0
     346:	a9 01       	movw	r20, r18
     348:	02 c0       	rjmp	.+4      	; 0x34e <com74hc595_setBit+0x1c>
     34a:	44 0f       	add	r20, r20
     34c:	55 1f       	adc	r21, r21
     34e:	8a 95       	dec	r24
     350:	e2 f7       	brpl	.-8      	; 0x34a <com74hc595_setBit+0x18>
     352:	ca 01       	movw	r24, r20
     354:	90 81       	ld	r25, Z
     356:	89 2b       	or	r24, r25
     358:	80 83       	st	Z, r24
     35a:	08 95       	ret

0000035c <com74hc595_unsetBit>:
     35c:	e8 2f       	mov	r30, r24
     35e:	e6 95       	lsr	r30
     360:	e6 95       	lsr	r30
     362:	e6 95       	lsr	r30
     364:	f0 e0       	ldi	r31, 0x00	; 0
     366:	ec 5e       	subi	r30, 0xEC	; 236
     368:	fd 4f       	sbci	r31, 0xFD	; 253
     36a:	87 70       	andi	r24, 0x07	; 7
     36c:	21 e0       	ldi	r18, 0x01	; 1
     36e:	30 e0       	ldi	r19, 0x00	; 0
     370:	a9 01       	movw	r20, r18
     372:	02 c0       	rjmp	.+4      	; 0x378 <com74hc595_unsetBit+0x1c>
     374:	44 0f       	add	r20, r20
     376:	55 1f       	adc	r21, r21
     378:	8a 95       	dec	r24
     37a:	e2 f7       	brpl	.-8      	; 0x374 <com74hc595_unsetBit+0x18>
     37c:	ca 01       	movw	r24, r20
     37e:	80 95       	com	r24
     380:	90 81       	ld	r25, Z
     382:	89 23       	and	r24, r25
     384:	80 83       	st	Z, r24
     386:	08 95       	ret

00000388 <com74hc595_setall>:
     388:	80 e0       	ldi	r24, 0x00	; 0
     38a:	90 e0       	ldi	r25, 0x00	; 0
     38c:	2f ef       	ldi	r18, 0xFF	; 255
     38e:	fc 01       	movw	r30, r24
     390:	ff 27       	eor	r31, r31
     392:	ec 5e       	subi	r30, 0xEC	; 236
     394:	fd 4f       	sbci	r31, 0xFD	; 253
     396:	20 83       	st	Z, r18
     398:	01 96       	adiw	r24, 0x01	; 1
     39a:	82 31       	cpi	r24, 0x12	; 18
     39c:	91 05       	cpc	r25, r1
     39e:	b9 f7       	brne	.-18     	; 0x38e <com74hc595_setall+0x6>
     3a0:	08 95       	ret

000003a2 <com74hc595_unsetall>:
     3a2:	80 e0       	ldi	r24, 0x00	; 0
     3a4:	90 e0       	ldi	r25, 0x00	; 0
     3a6:	fc 01       	movw	r30, r24
     3a8:	ff 27       	eor	r31, r31
     3aa:	ec 5e       	subi	r30, 0xEC	; 236
     3ac:	fd 4f       	sbci	r31, 0xFD	; 253
     3ae:	10 82       	st	Z, r1
     3b0:	01 96       	adiw	r24, 0x01	; 1
     3b2:	82 31       	cpi	r24, 0x12	; 18
     3b4:	91 05       	cpc	r25, r1
     3b6:	b9 f7       	brne	.-18     	; 0x3a6 <com74hc595_unsetall+0x4>
     3b8:	08 95       	ret

000003ba <com74hc595_setPort>:
     3ba:	e8 2f       	mov	r30, r24
     3bc:	f0 e0       	ldi	r31, 0x00	; 0
     3be:	ec 5e       	subi	r30, 0xEC	; 236
     3c0:	fd 4f       	sbci	r31, 0xFD	; 253
     3c2:	60 83       	st	Z, r22
     3c4:	08 95       	ret

000003c6 <com74hc595_unsetPort>:
     3c6:	e8 2f       	mov	r30, r24
     3c8:	f0 e0       	ldi	r31, 0x00	; 0
     3ca:	ec 5e       	subi	r30, 0xEC	; 236
     3cc:	fd 4f       	sbci	r31, 0xFD	; 253
     3ce:	10 82       	st	Z, r1
     3d0:	08 95       	ret

000003d2 <com74hc595_out>:
     3d2:	e6 e2       	ldi	r30, 0x26	; 38
     3d4:	f2 e0       	ldi	r31, 0x02	; 2
     3d6:	84 e1       	ldi	r24, 0x14	; 20
     3d8:	92 e0       	ldi	r25, 0x02	; 2
     3da:	48 e0       	ldi	r20, 0x08	; 8
     3dc:	32 91       	ld	r19, -Z
     3de:	24 2f       	mov	r18, r20
     3e0:	95 98       	cbi	0x12, 5	; 18
     3e2:	33 23       	and	r19, r19
     3e4:	0c f4       	brge	.+2      	; 0x3e8 <com74hc595_out+0x16>
     3e6:	95 9a       	sbi	0x12, 5	; 18
     3e8:	33 0f       	add	r19, r19
     3ea:	96 98       	cbi	0x12, 6	; 18
     3ec:	96 9a       	sbi	0x12, 6	; 18
     3ee:	21 50       	subi	r18, 0x01	; 1
     3f0:	b9 f7       	brne	.-18     	; 0x3e0 <com74hc595_out+0xe>
     3f2:	e8 17       	cp	r30, r24
     3f4:	f9 07       	cpc	r31, r25
     3f6:	91 f7       	brne	.-28     	; 0x3dc <com74hc595_out+0xa>
     3f8:	94 98       	cbi	0x12, 4	; 18
     3fa:	94 9a       	sbi	0x12, 4	; 18
     3fc:	08 95       	ret

000003fe <com74hc595_init>:
     3fe:	8d 9a       	sbi	0x11, 5	; 17
     400:	8e 9a       	sbi	0x11, 6	; 17
     402:	8c 9a       	sbi	0x11, 4	; 17
     404:	95 98       	cbi	0x12, 5	; 18
     406:	96 9a       	sbi	0x12, 6	; 18
     408:	94 9a       	sbi	0x12, 4	; 18
     40a:	0e 94 d1 01 	call	0x3a2	; 0x3a2 <com74hc595_unsetall>
     40e:	0e 94 e9 01 	call	0x3d2	; 0x3d2 <com74hc595_out>
     412:	08 95       	ret

00000414 <init_ADC>:
     414:	87 b1       	in	r24, 0x07	; 7
     416:	80 6c       	ori	r24, 0xC0	; 192
     418:	87 b9       	out	0x07, r24	; 7
     41a:	86 b1       	in	r24, 0x06	; 6
     41c:	84 68       	ori	r24, 0x84	; 132
     41e:	86 b9       	out	0x06, r24	; 6
     420:	08 95       	ret

00000422 <read_ADC>:
     422:	97 b1       	in	r25, 0x07	; 7
     424:	89 2b       	or	r24, r25
     426:	87 b9       	out	0x07, r24	; 7
     428:	36 9a       	sbi	0x06, 6	; 6
     42a:	34 9b       	sbis	0x06, 4	; 6
     42c:	fe cf       	rjmp	.-4      	; 0x42a <read_ADC+0x8>
     42e:	34 9a       	sbi	0x06, 4	; 6
     430:	84 b1       	in	r24, 0x04	; 4
     432:	95 b1       	in	r25, 0x05	; 5
     434:	08 95       	ret

00000436 <Disable_ADC>:
     436:	87 b1       	in	r24, 0x07	; 7
     438:	8f 73       	andi	r24, 0x3F	; 63
     43a:	87 b9       	out	0x07, r24	; 7
     43c:	86 b1       	in	r24, 0x06	; 6
     43e:	8d 77       	andi	r24, 0x7D	; 125
     440:	86 b9       	out	0x06, r24	; 6
     442:	08 95       	ret

00000444 <__vector_13>:
     444:	1f 92       	push	r1
     446:	0f 92       	push	r0
     448:	0f b6       	in	r0, 0x3f	; 63
     44a:	0f 92       	push	r0
     44c:	11 24       	eor	r1, r1
     44e:	2f 93       	push	r18
     450:	8f 93       	push	r24
     452:	9f 93       	push	r25
     454:	ef 93       	push	r30
     456:	ff 93       	push	r31
     458:	8b b1       	in	r24, 0x0b	; 11
     45a:	2c b1       	in	r18, 0x0c	; 12
     45c:	88 71       	andi	r24, 0x18	; 24
     45e:	e0 91 aa 01 	lds	r30, 0x01AA
     462:	ef 5f       	subi	r30, 0xFF	; 255
     464:	ef 71       	andi	r30, 0x1F	; 31
     466:	90 91 a9 01 	lds	r25, 0x01A9
     46a:	e9 17       	cp	r30, r25
     46c:	39 f0       	breq	.+14     	; 0x47c <__vector_13+0x38>
     46e:	e0 93 aa 01 	sts	0x01AA, r30
     472:	f0 e0       	ldi	r31, 0x00	; 0
     474:	e3 55       	subi	r30, 0x53	; 83
     476:	fe 4f       	sbci	r31, 0xFE	; 254
     478:	20 83       	st	Z, r18
     47a:	01 c0       	rjmp	.+2      	; 0x47e <__vector_13+0x3a>
     47c:	82 e0       	ldi	r24, 0x02	; 2
     47e:	90 91 a8 01 	lds	r25, 0x01A8
     482:	89 2b       	or	r24, r25
     484:	80 93 a8 01 	sts	0x01A8, r24
     488:	ff 91       	pop	r31
     48a:	ef 91       	pop	r30
     48c:	9f 91       	pop	r25
     48e:	8f 91       	pop	r24
     490:	2f 91       	pop	r18
     492:	0f 90       	pop	r0
     494:	0f be       	out	0x3f, r0	; 63
     496:	0f 90       	pop	r0
     498:	1f 90       	pop	r1
     49a:	18 95       	reti

0000049c <__vector_14>:
     49c:	1f 92       	push	r1
     49e:	0f 92       	push	r0
     4a0:	0f b6       	in	r0, 0x3f	; 63
     4a2:	0f 92       	push	r0
     4a4:	11 24       	eor	r1, r1
     4a6:	8f 93       	push	r24
     4a8:	9f 93       	push	r25
     4aa:	ef 93       	push	r30
     4ac:	ff 93       	push	r31
     4ae:	90 91 ac 01 	lds	r25, 0x01AC
     4b2:	80 91 ab 01 	lds	r24, 0x01AB
     4b6:	98 17       	cp	r25, r24
     4b8:	61 f0       	breq	.+24     	; 0x4d2 <__vector_14+0x36>
     4ba:	e0 91 ab 01 	lds	r30, 0x01AB
     4be:	ef 5f       	subi	r30, 0xFF	; 255
     4c0:	ef 71       	andi	r30, 0x1F	; 31
     4c2:	e0 93 ab 01 	sts	0x01AB, r30
     4c6:	f0 e0       	ldi	r31, 0x00	; 0
     4c8:	e3 53       	subi	r30, 0x33	; 51
     4ca:	fe 4f       	sbci	r31, 0xFE	; 254
     4cc:	80 81       	ld	r24, Z
     4ce:	8c b9       	out	0x0c, r24	; 12
     4d0:	01 c0       	rjmp	.+2      	; 0x4d4 <__vector_14+0x38>
     4d2:	55 98       	cbi	0x0a, 5	; 10
     4d4:	ff 91       	pop	r31
     4d6:	ef 91       	pop	r30
     4d8:	9f 91       	pop	r25
     4da:	8f 91       	pop	r24
     4dc:	0f 90       	pop	r0
     4de:	0f be       	out	0x3f, r0	; 63
     4e0:	0f 90       	pop	r0
     4e2:	1f 90       	pop	r1
     4e4:	18 95       	reti

000004e6 <uart_init>:
     4e6:	10 92 ac 01 	sts	0x01AC, r1
     4ea:	10 92 ab 01 	sts	0x01AB, r1
     4ee:	10 92 aa 01 	sts	0x01AA, r1
     4f2:	10 92 a9 01 	sts	0x01A9, r1
     4f6:	99 23       	and	r25, r25
     4f8:	1c f4       	brge	.+6      	; 0x500 <uart_init+0x1a>
     4fa:	22 e0       	ldi	r18, 0x02	; 2
     4fc:	2b b9       	out	0x0b, r18	; 11
     4fe:	9f 77       	andi	r25, 0x7F	; 127
     500:	90 bd       	out	0x20, r25	; 32
     502:	89 b9       	out	0x09, r24	; 9
     504:	88 e9       	ldi	r24, 0x98	; 152
     506:	8a b9       	out	0x0a, r24	; 10
     508:	86 e8       	ldi	r24, 0x86	; 134
     50a:	80 bd       	out	0x20, r24	; 32
     50c:	08 95       	ret

0000050e <__vector_10>:

}// End ISR(TIMER1_COMPA_vect)

/* TIMER0 for the multiplex function */
ISR(TIMER0_COMP_vect)
{			
     50e:	1f 92       	push	r1
     510:	0f 92       	push	r0
     512:	0f b6       	in	r0, 0x3f	; 63
     514:	0f 92       	push	r0
     516:	11 24       	eor	r1, r1
     518:	2f 93       	push	r18
     51a:	8f 93       	push	r24
     51c:	9f 93       	push	r25
     51e:	af 93       	push	r26
     520:	bf 93       	push	r27
     522:	ef 93       	push	r30
     524:	ff 93       	push	r31
	/* column must declared @ staric volatile */
    static volatile uint8_t column = 0;
    
	/* set the Pins at "low" level */
    PORTC &= ~((1<<PC0) | (1<<PC1) | (1<<PC2) | (1<<PC3) | (1<<PC4) | (1<<PC5) | (1<<PC6) | (1<<PC7));
     526:	85 b3       	in	r24, 0x15	; 21
     528:	15 ba       	out	0x15, r1	; 21
	//PORTC = 0x00;
	
	/* give out the new Data on 8 x 8 Matrix */
    PORTB = (VRAM)[column];
     52a:	e0 91 ed 01 	lds	r30, 0x01ED
     52e:	f0 e0       	ldi	r31, 0x00	; 0
     530:	ee 0f       	add	r30, r30
     532:	ff 1f       	adc	r31, r31
     534:	ec 50       	subi	r30, 0x0C	; 12
     536:	fe 4f       	sbci	r31, 0xFE	; 254
     538:	80 81       	ld	r24, Z
     53a:	91 81       	ldd	r25, Z+1	; 0x01
     53c:	88 bb       	out	0x18, r24	; 24
    
	/* switch the columns ( case 0 are the right column ) */
    switch (column)
     53e:	80 91 ed 01 	lds	r24, 0x01ED
     542:	90 e0       	ldi	r25, 0x00	; 0
     544:	88 30       	cpi	r24, 0x08	; 8
     546:	91 05       	cpc	r25, r1
     548:	a0 f4       	brcc	.+40     	; 0x572 <__vector_10+0x64>
     54a:	fc 01       	movw	r30, r24
     54c:	e6 5d       	subi	r30, 0xD6	; 214
     54e:	ff 4f       	sbci	r31, 0xFF	; 255
     550:	0c 94 b6 35 	jmp	0x6b6c	; 0x6b6c <__tablejump2__>
    {
	    case 0: PORTC |= (1<<PC7);
     554:	af 9a       	sbi	0x15, 7	; 21
	    break;
     556:	0d c0       	rjmp	.+26     	; 0x572 <__vector_10+0x64>
	    case 1: PORTC |= (1<<PC6);
     558:	ae 9a       	sbi	0x15, 6	; 21
	    break;
     55a:	0b c0       	rjmp	.+22     	; 0x572 <__vector_10+0x64>
	    case 2: PORTC |= (1<<PC5);
     55c:	ad 9a       	sbi	0x15, 5	; 21
	    break;
     55e:	09 c0       	rjmp	.+18     	; 0x572 <__vector_10+0x64>
	    case 3: PORTC |= (1<<PC4);
     560:	ac 9a       	sbi	0x15, 4	; 21
	    break;
     562:	07 c0       	rjmp	.+14     	; 0x572 <__vector_10+0x64>
	    case 4: PORTC |= (1<<PC3);
     564:	ab 9a       	sbi	0x15, 3	; 21
	    break;
     566:	05 c0       	rjmp	.+10     	; 0x572 <__vector_10+0x64>
	    case 5: PORTC |= (1<<PC2);
     568:	aa 9a       	sbi	0x15, 2	; 21
	    break;
     56a:	03 c0       	rjmp	.+6      	; 0x572 <__vector_10+0x64>
	    case 6: PORTC |= (1<<PC1);
     56c:	a9 9a       	sbi	0x15, 1	; 21
	    break;
     56e:	01 c0       	rjmp	.+2      	; 0x572 <__vector_10+0x64>
	    case 7: PORTC |= (1<<PC0);
     570:	a8 9a       	sbi	0x15, 0	; 21
	    break;
	    default: break;
    }
    
	/* set the next column */
    column++; 
     572:	80 91 ed 01 	lds	r24, 0x01ED
     576:	8f 5f       	subi	r24, 0xFF	; 255
     578:	80 93 ed 01 	sts	0x01ED, r24
    
	/* check the overflow from column */
    if (column >= 8) column = 0;
     57c:	80 91 ed 01 	lds	r24, 0x01ED
     580:	88 30       	cpi	r24, 0x08	; 8
     582:	10 f0       	brcs	.+4      	; 0x588 <__vector_10+0x7a>
     584:	10 92 ed 01 	sts	0x01ED, r1
	
	
	Heart_Beat ++;
     588:	80 91 3d 02 	lds	r24, 0x023D
     58c:	90 91 3e 02 	lds	r25, 0x023E
     590:	01 96       	adiw	r24, 0x01	; 1
     592:	90 93 3e 02 	sts	0x023E, r25
     596:	80 93 3d 02 	sts	0x023D, r24
	
	#ifdef WITH_LIVE_LED
	
	/* live the µC ? ( toggle the live led ) */
	if (Heart_Beat == 1000)
     59a:	80 91 3d 02 	lds	r24, 0x023D
     59e:	90 91 3e 02 	lds	r25, 0x023E
     5a2:	88 3e       	cpi	r24, 0xE8	; 232
     5a4:	93 40       	sbci	r25, 0x03	; 3
     5a6:	09 f4       	brne	.+2      	; 0x5aa <__vector_10+0x9c>
	{
		LIVE_LED_ON;
     5a8:	d9 98       	cbi	0x1b, 1	; 27
	}
	if (Heart_Beat == 1100)
     5aa:	80 91 3d 02 	lds	r24, 0x023D
     5ae:	90 91 3e 02 	lds	r25, 0x023E
     5b2:	8c 34       	cpi	r24, 0x4C	; 76
     5b4:	94 40       	sbci	r25, 0x04	; 4
     5b6:	09 f4       	brne	.+2      	; 0x5ba <__vector_10+0xac>
	{
		LIVE_LED_OFF;
     5b8:	d9 9a       	sbi	0x1b, 1	; 27
	}
	if (Heart_Beat == 1250)
     5ba:	80 91 3d 02 	lds	r24, 0x023D
     5be:	90 91 3e 02 	lds	r25, 0x023E
     5c2:	82 3e       	cpi	r24, 0xE2	; 226
     5c4:	94 40       	sbci	r25, 0x04	; 4
     5c6:	09 f4       	brne	.+2      	; 0x5ca <__vector_10+0xbc>
	{
		LIVE_LED_ON;
     5c8:	d9 98       	cbi	0x1b, 1	; 27
	}
	if (Heart_Beat == 1350)
     5ca:	80 91 3d 02 	lds	r24, 0x023D
     5ce:	90 91 3e 02 	lds	r25, 0x023E
     5d2:	86 34       	cpi	r24, 0x46	; 70
     5d4:	95 40       	sbci	r25, 0x05	; 5
     5d6:	29 f4       	brne	.+10     	; 0x5e2 <__vector_10+0xd4>
	{
		LIVE_LED_OFF;
     5d8:	d9 9a       	sbi	0x1b, 1	; 27
		Heart_Beat = 0;
     5da:	10 92 3e 02 	sts	0x023E, r1
     5de:	10 92 3d 02 	sts	0x023D, r1
	}

	#endif	
	    
}// End ISR(TIMER0_COMP_vect)
     5e2:	ff 91       	pop	r31
     5e4:	ef 91       	pop	r30
     5e6:	bf 91       	pop	r27
     5e8:	af 91       	pop	r26
     5ea:	9f 91       	pop	r25
     5ec:	8f 91       	pop	r24
     5ee:	2f 91       	pop	r18
     5f0:	0f 90       	pop	r0
     5f2:	0f be       	out	0x3f, r0	; 63
     5f4:	0f 90       	pop	r0
     5f6:	1f 90       	pop	r1
     5f8:	18 95       	reti

000005fa <__vector_1>:

/* must exist (Interrupt Vector Table!) */
ISR(INT0_vect)
{
     5fa:	1f 92       	push	r1
     5fc:	0f 92       	push	r0
     5fe:	0f b6       	in	r0, 0x3f	; 63
     600:	0f 92       	push	r0
     602:	11 24       	eor	r1, r1
	// empty
}
     604:	0f 90       	pop	r0
     606:	0f be       	out	0x3f, r0	; 63
     608:	0f 90       	pop	r0
     60a:	1f 90       	pop	r1
     60c:	18 95       	reti

0000060e <clear_screen>:

/* clear the Screen of 8 x 8 Matrix */
void clear_screen(void)
{
     60e:	80 e0       	ldi	r24, 0x00	; 0
     610:	90 e0       	ldi	r25, 0x00	; 0
	for(uint8_t i = 0 ; i < 8 ; i++)
	{
		VRAM[i] = 0x00;
     612:	fc 01       	movw	r30, r24
     614:	ee 0f       	add	r30, r30
     616:	ff 1f       	adc	r31, r31
     618:	ec 50       	subi	r30, 0x0C	; 12
     61a:	fe 4f       	sbci	r31, 0xFE	; 254
     61c:	11 82       	std	Z+1, r1	; 0x01
     61e:	10 82       	st	Z, r1
     620:	01 96       	adiw	r24, 0x01	; 1
}

/* clear the Screen of 8 x 8 Matrix */
void clear_screen(void)
{
	for(uint8_t i = 0 ; i < 8 ; i++)
     622:	88 30       	cpi	r24, 0x08	; 8
     624:	91 05       	cpc	r25, r1
     626:	a9 f7       	brne	.-22     	; 0x612 <clear_screen+0x4>
	{
		VRAM[i] = 0x00;
	}
}
     628:	08 95       	ret

0000062a <__vector_7>:
}// End main


/* TIMER1 for the 25 ms base ( Switch Debounce / Auto_Off ) */
ISR(TIMER1_COMPA_vect)
{
     62a:	1f 92       	push	r1
     62c:	0f 92       	push	r0
     62e:	0f b6       	in	r0, 0x3f	; 63
     630:	0f 92       	push	r0
     632:	11 24       	eor	r1, r1
     634:	2f 93       	push	r18
     636:	3f 93       	push	r19
     638:	4f 93       	push	r20
     63a:	5f 93       	push	r21
     63c:	6f 93       	push	r22
     63e:	7f 93       	push	r23
     640:	8f 93       	push	r24
     642:	9f 93       	push	r25
     644:	af 93       	push	r26
     646:	bf 93       	push	r27
     648:	ef 93       	push	r30
     64a:	ff 93       	push	r31
	Sleep_Counter ++;
     64c:	60 91 7b 02 	lds	r22, 0x027B
     650:	70 91 7c 02 	lds	r23, 0x027C
     654:	80 91 7d 02 	lds	r24, 0x027D
     658:	90 91 7e 02 	lds	r25, 0x027E
     65c:	20 e0       	ldi	r18, 0x00	; 0
     65e:	30 e0       	ldi	r19, 0x00	; 0
     660:	40 e8       	ldi	r20, 0x80	; 128
     662:	5f e3       	ldi	r21, 0x3F	; 63
     664:	0e 94 c1 34 	call	0x6982	; 0x6982 <__addsf3>
     668:	60 93 7b 02 	sts	0x027B, r22
     66c:	70 93 7c 02 	sts	0x027C, r23
     670:	80 93 7d 02 	sts	0x027D, r24
     674:	90 93 7e 02 	sts	0x027E, r25
	if (!(ACCU_IS_CHARGING))
     678:	ce 9b       	sbis	0x19, 6	; 25
     67a:	09 c0       	rjmp	.+18     	; 0x68e <__vector_7+0x64>
	{
		Counter_For_Display ++;
     67c:	80 91 65 02 	lds	r24, 0x0265
     680:	90 91 66 02 	lds	r25, 0x0266
     684:	01 96       	adiw	r24, 0x01	; 1
     686:	90 93 66 02 	sts	0x0266, r25
     68a:	80 93 65 02 	sts	0x0265, r24
	}
	Counter_For_Reading_ADC ++;
     68e:	80 91 5d 02 	lds	r24, 0x025D
     692:	8f 5f       	subi	r24, 0xFF	; 255
     694:	80 93 5d 02 	sts	0x025D, r24
	Counter_For_Reading_Accu ++;
     698:	80 91 38 02 	lds	r24, 0x0238
     69c:	8f 5f       	subi	r24, 0xFF	; 255
     69e:	80 93 38 02 	sts	0x0238, r24
	
	/* variable for AutoChange Simulation 1 - 9 ( 2400 = 1 min )*/
	Auto_Change_ISR ++;
     6a2:	80 91 f2 01 	lds	r24, 0x01F2
     6a6:	90 91 f3 01 	lds	r25, 0x01F3
     6aa:	01 96       	adiw	r24, 0x01	; 1
     6ac:	90 93 f3 01 	sts	0x01F3, r25
     6b0:	80 93 f2 01 	sts	0x01F2, r24
	
	if (LED_Status == 12)
     6b4:	80 91 28 02 	lds	r24, 0x0228
     6b8:	90 91 29 02 	lds	r25, 0x0229
     6bc:	0c 97       	sbiw	r24, 0x0c	; 12
     6be:	a1 f4       	brne	.+40     	; 0x6e8 <__vector_7+0xbe>
	{
		if (Auto_Change_ISR >= 2400)
     6c0:	80 91 f2 01 	lds	r24, 0x01F2
     6c4:	90 91 f3 01 	lds	r25, 0x01F3
     6c8:	80 36       	cpi	r24, 0x60	; 96
     6ca:	99 40       	sbci	r25, 0x09	; 9
     6cc:	68 f0       	brcs	.+26     	; 0x6e8 <__vector_7+0xbe>
		{
			Auto_Change_ISR = 0;
     6ce:	10 92 f3 01 	sts	0x01F3, r1
     6d2:	10 92 f2 01 	sts	0x01F2, r1
			Auto_Change++;
     6d6:	80 91 f0 01 	lds	r24, 0x01F0
     6da:	90 91 f1 01 	lds	r25, 0x01F1
     6de:	01 96       	adiw	r24, 0x01	; 1
     6e0:	90 93 f1 01 	sts	0x01F1, r25
     6e4:	80 93 f0 01 	sts	0x01F0, r24
		}	
	}


	/* change LED_Status after endless Switch one */	
	if (SWITCH_ONE_PRESSED)
     6e8:	cb 99       	sbic	0x19, 3	; 25
     6ea:	03 c0       	rjmp	.+6      	; 0x6f2 <__vector_7+0xc8>
	{
		Switch_One_Flag = 1;
     6ec:	81 e0       	ldi	r24, 0x01	; 1
     6ee:	80 93 44 02 	sts	0x0244, r24
	}
	
	if (Switch_One_Flag == 1)
     6f2:	80 91 44 02 	lds	r24, 0x0244
     6f6:	81 30       	cpi	r24, 0x01	; 1
     6f8:	a9 f4       	brne	.+42     	; 0x724 <__vector_7+0xfa>
	{
		if (!(SWITCH_ONE_PRESSED))
     6fa:	cb 9b       	sbis	0x19, 3	; 25
     6fc:	13 c0       	rjmp	.+38     	; 0x724 <__vector_7+0xfa>
		{
			Long_Key_Pressed = 0;
     6fe:	10 92 27 02 	sts	0x0227, r1
     702:	10 92 26 02 	sts	0x0226, r1
			Switch_One_Flag = 0;
     706:	10 92 44 02 	sts	0x0244, r1
			counter_for_Test_Mode = 0;
     70a:	10 92 8d 02 	sts	0x028D, r1
     70e:	10 92 8c 02 	sts	0x028C, r1
			LED_Status ++;
     712:	80 91 28 02 	lds	r24, 0x0228
     716:	90 91 29 02 	lds	r25, 0x0229
     71a:	01 96       	adiw	r24, 0x01	; 1
     71c:	90 93 29 02 	sts	0x0229, r25
     720:	80 93 28 02 	sts	0x0228, r24
		}
	}
	
	if (SWITCH_TWO_PRESSED)
     724:	ca 99       	sbic	0x19, 2	; 25
     726:	03 c0       	rjmp	.+6      	; 0x72e <__vector_7+0x104>
	{
		Switch_Two_Flag = 1;
     728:	81 e0       	ldi	r24, 0x01	; 1
     72a:	80 93 45 02 	sts	0x0245, r24
	}
	
	if (Switch_Two_Flag == 1)
     72e:	80 91 45 02 	lds	r24, 0x0245
     732:	81 30       	cpi	r24, 0x01	; 1
     734:	e1 f4       	brne	.+56     	; 0x76e <__vector_7+0x144>
	{
		if (!(SWITCH_TWO_PRESSED))
     736:	ca 9b       	sbis	0x19, 2	; 25
     738:	1a c0       	rjmp	.+52     	; 0x76e <__vector_7+0x144>
		{
			if (counter_for_Test_Mode <= 200)
     73a:	80 91 8c 02 	lds	r24, 0x028C
     73e:	90 91 8d 02 	lds	r25, 0x028D
     742:	89 3c       	cpi	r24, 0xC9	; 201
     744:	91 05       	cpc	r25, r1
     746:	98 f4       	brcc	.+38     	; 0x76e <__vector_7+0x144>
			{
				Long_Key_Pressed = 0;
     748:	10 92 27 02 	sts	0x0227, r1
     74c:	10 92 26 02 	sts	0x0226, r1
				counter_for_Test_Mode = 0;
     750:	10 92 8d 02 	sts	0x028D, r1
     754:	10 92 8c 02 	sts	0x028C, r1
				Switch_Two_Flag = 0;
     758:	10 92 45 02 	sts	0x0245, r1
				LED_Status --;			
     75c:	80 91 28 02 	lds	r24, 0x0228
     760:	90 91 29 02 	lds	r25, 0x0229
     764:	01 97       	sbiw	r24, 0x01	; 1
     766:	90 93 29 02 	sts	0x0229, r25
     76a:	80 93 28 02 	sts	0x0228, r24
	}

	
	/* clear the screen after 2 secounds when LED_Status has changed */
	
	if (!(ACCU_IS_CHARGING))
     76e:	ce 9b       	sbis	0x19, 6	; 25
     770:	09 c0       	rjmp	.+18     	; 0x784 <__vector_7+0x15a>
	{
		if (Counter_For_Display >= 100)
     772:	80 91 65 02 	lds	r24, 0x0265
     776:	90 91 66 02 	lds	r25, 0x0266
     77a:	84 36       	cpi	r24, 0x64	; 100
     77c:	91 05       	cpc	r25, r1
     77e:	10 f0       	brcs	.+4      	; 0x784 <__vector_7+0x15a>
		{
			clear_screen();
     780:	0e 94 07 03 	call	0x60e	; 0x60e <clear_screen>
	}

	
	/* sleep after long key pressed */
		
	if (SWITCH_ONE_PRESSED)
     784:	cb 99       	sbic	0x19, 3	; 25
     786:	09 c0       	rjmp	.+18     	; 0x79a <__vector_7+0x170>
	{
		Long_Key_Pressed ++;
     788:	80 91 26 02 	lds	r24, 0x0226
     78c:	90 91 27 02 	lds	r25, 0x0227
     790:	01 96       	adiw	r24, 0x01	; 1
     792:	90 93 27 02 	sts	0x0227, r25
     796:	80 93 26 02 	sts	0x0226, r24
	}
	
	if (SWITCH_TWO_PRESSED)
     79a:	ca 99       	sbic	0x19, 2	; 25
     79c:	09 c0       	rjmp	.+18     	; 0x7b0 <__vector_7+0x186>
	{
		Long_Key_Pressed ++;
     79e:	80 91 26 02 	lds	r24, 0x0226
     7a2:	90 91 27 02 	lds	r25, 0x0227
     7a6:	01 96       	adiw	r24, 0x01	; 1
     7a8:	90 93 27 02 	sts	0x0227, r25
     7ac:	80 93 26 02 	sts	0x0226, r24
	}



	if (SWITCH_ONE_PRESSED)
     7b0:	cb 99       	sbic	0x19, 3	; 25
     7b2:	0f c0       	rjmp	.+30     	; 0x7d2 <__vector_7+0x1a8>
	{
		if (SWITCH_TWO_PRESSED)
     7b4:	ca 99       	sbic	0x19, 2	; 25
     7b6:	0d c0       	rjmp	.+26     	; 0x7d2 <__vector_7+0x1a8>
		{
			Long_Key_Pressed = 0;
     7b8:	10 92 27 02 	sts	0x0227, r1
     7bc:	10 92 26 02 	sts	0x0226, r1
			counter_for_Test_Mode ++;
     7c0:	80 91 8c 02 	lds	r24, 0x028C
     7c4:	90 91 8d 02 	lds	r25, 0x028D
     7c8:	01 96       	adiw	r24, 0x01	; 1
     7ca:	90 93 8d 02 	sts	0x028D, r25
     7ce:	80 93 8c 02 	sts	0x028C, r24
	
	
	
	
		
	if (counter_for_Test_Mode >= 200)
     7d2:	80 91 8c 02 	lds	r24, 0x028C
     7d6:	90 91 8d 02 	lds	r25, 0x028D
     7da:	88 3c       	cpi	r24, 0xC8	; 200
     7dc:	91 05       	cpc	r25, r1
     7de:	d8 f0       	brcs	.+54     	; 0x816 <__vector_7+0x1ec>
	{
		LIVE_LED_ON;
     7e0:	d9 98       	cbi	0x1b, 1	; 27
		if (SWITCH_ONE_PRESSED)
     7e2:	cb 99       	sbic	0x19, 3	; 25
     7e4:	10 c0       	rjmp	.+32     	; 0x806 <__vector_7+0x1dc>
		{
			if (!(SWITCH_TWO_PRESSED))
     7e6:	ca 9b       	sbis	0x19, 2	; 25
     7e8:	16 c0       	rjmp	.+44     	; 0x816 <__vector_7+0x1ec>
			{
				Long_Key_Pressed = 0;
     7ea:	10 92 27 02 	sts	0x0227, r1
     7ee:	10 92 26 02 	sts	0x0226, r1
				variable_for_check_test_mode ++;
     7f2:	80 91 74 02 	lds	r24, 0x0274
     7f6:	90 91 75 02 	lds	r25, 0x0275
     7fa:	01 96       	adiw	r24, 0x01	; 1
     7fc:	90 93 75 02 	sts	0x0275, r25
     800:	80 93 74 02 	sts	0x0274, r24
     804:	08 c0       	rjmp	.+16     	; 0x816 <__vector_7+0x1ec>
			}
		}
		else
		{
			counter_for_Test_Mode = 0;
     806:	10 92 8d 02 	sts	0x028D, r1
     80a:	10 92 8c 02 	sts	0x028C, r1
			variable_for_check_test_mode = 0;
     80e:	10 92 75 02 	sts	0x0275, r1
     812:	10 92 74 02 	sts	0x0274, r1





}// End ISR(TIMER1_COMPA_vect)
     816:	ff 91       	pop	r31
     818:	ef 91       	pop	r30
     81a:	bf 91       	pop	r27
     81c:	af 91       	pop	r26
     81e:	9f 91       	pop	r25
     820:	8f 91       	pop	r24
     822:	7f 91       	pop	r23
     824:	6f 91       	pop	r22
     826:	5f 91       	pop	r21
     828:	4f 91       	pop	r20
     82a:	3f 91       	pop	r19
     82c:	2f 91       	pop	r18
     82e:	0f 90       	pop	r0
     830:	0f be       	out	0x3f, r0	; 63
     832:	0f 90       	pop	r0
     834:	1f 90       	pop	r1
     836:	18 95       	reti

00000838 <fill_screen>:
	}
}

/* fill the Screen of 8 x 8 Matrix */
void fill_screen(void)
{
     838:	80 e0       	ldi	r24, 0x00	; 0
     83a:	90 e0       	ldi	r25, 0x00	; 0
	for (uint8_t i = 0 ; i < 8 ; i++)
	{
		VRAM[i] = 0xFF;
     83c:	2f ef       	ldi	r18, 0xFF	; 255
     83e:	30 e0       	ldi	r19, 0x00	; 0
     840:	fc 01       	movw	r30, r24
     842:	ee 0f       	add	r30, r30
     844:	ff 1f       	adc	r31, r31
     846:	ec 50       	subi	r30, 0x0C	; 12
     848:	fe 4f       	sbci	r31, 0xFE	; 254
     84a:	31 83       	std	Z+1, r19	; 0x01
     84c:	20 83       	st	Z, r18
     84e:	01 96       	adiw	r24, 0x01	; 1
}

/* fill the Screen of 8 x 8 Matrix */
void fill_screen(void)
{
	for (uint8_t i = 0 ; i < 8 ; i++)
     850:	88 30       	cpi	r24, 0x08	; 8
     852:	91 05       	cpc	r25, r1
     854:	a9 f7       	brne	.-22     	; 0x840 <fill_screen+0x8>
	{
		VRAM[i] = 0xFF;
	}
}
     856:	08 95       	ret

00000858 <GetCharacterIndex>:
/* give the Index number of charMap array  */
uint8_t GetCharacterIndex(char a)
{
	uint8_t index = 1;    // alles aus
	
	if ((a >= '0') && (a <= '9'))
     858:	90 ed       	ldi	r25, 0xD0	; 208
     85a:	98 0f       	add	r25, r24
     85c:	9a 30       	cpi	r25, 0x0A	; 10
     85e:	10 f4       	brcc	.+4      	; 0x864 <__stack+0x5>
	index = a+2-48;  // erste Zahl ist Index in der Tabelle des ersten Zeichens, zweite Zahl ist Index in Ascii Code des ersten Zeichens
     860:	8e 52       	subi	r24, 0x2E	; 46
     862:	08 95       	ret
	else if ((a >= 'A') && (a <= 'Z'))
     864:	9f eb       	ldi	r25, 0xBF	; 191
     866:	98 0f       	add	r25, r24
     868:	9a 31       	cpi	r25, 0x1A	; 26
     86a:	10 f4       	brcc	.+4      	; 0x870 <__stack+0x11>
	index = a+12-65;
     86c:	85 53       	subi	r24, 0x35	; 53
     86e:	08 95       	ret
	else if ((a >= 'a') && (a <= 'z'))
     870:	9f e9       	ldi	r25, 0x9F	; 159
     872:	98 0f       	add	r25, r24
     874:	9a 31       	cpi	r25, 0x1A	; 26
     876:	10 f4       	brcc	.+4      	; 0x87c <__stack+0x1d>
	index = a+38-97;
     878:	8b 53       	subi	r24, 0x3B	; 59
     87a:	08 95       	ret
	else if ((a == '.'))
     87c:	8e 32       	cpi	r24, 0x2E	; 46
     87e:	59 f0       	breq	.+22     	; 0x896 <__stack+0x37>
	index = a+70-46;
	else if ((a >= '/'))
     880:	10 f0       	brcs	.+4      	; 0x886 <__stack+0x27>
	index = a+71-47;
     882:	88 5e       	subi	r24, 0xE8	; 232
     884:	08 95       	ret
	else if ((a >= '-'))
     886:	8d 32       	cpi	r24, 0x2D	; 45
     888:	10 f0       	brcs	.+4      	; 0x88e <__stack+0x2f>
	index = a+72-45;
     88a:	85 5e       	subi	r24, 0xE5	; 229
     88c:	08 95       	ret
	else if ((a >= ' '))
     88e:	80 32       	cpi	r24, 0x20	; 32
     890:	20 f0       	brcs	.+8      	; 0x89a <__stack+0x3b>
	index = a+1-32;
     892:	8f 51       	subi	r24, 0x1F	; 31
     894:	08 95       	ret
	else if ((a >= 'A') && (a <= 'Z'))
	index = a+12-65;
	else if ((a >= 'a') && (a <= 'z'))
	index = a+38-97;
	else if ((a == '.'))
	index = a+70-46;
     896:	86 e4       	ldi	r24, 0x46	; 70
     898:	08 95       	ret
}

/* give the Index number of charMap array  */
uint8_t GetCharacterIndex(char a)
{
	uint8_t index = 1;    // alles aus
     89a:	81 e0       	ldi	r24, 0x01	; 1
	index = a+72-45;
	else if ((a >= ' '))
	index = a+1-32;
	
	return index;
}
     89c:	08 95       	ret

0000089e <DisplayString>:

/* display a String on the 8 x 8 Matrix */
void DisplayString(uint16_t x, const char *s)
{
     89e:	ef 92       	push	r14
     8a0:	ff 92       	push	r15
     8a2:	0f 93       	push	r16
     8a4:	1f 93       	push	r17
     8a6:	cf 93       	push	r28
     8a8:	df 93       	push	r29
     8aa:	7c 01       	movw	r14, r24
     8ac:	eb 01       	movw	r28, r22

	uint16_t len;
	uint8_t i, d, u1, u2;
	
	len = strlen(s)*8;
     8ae:	fb 01       	movw	r30, r22
     8b0:	01 90       	ld	r0, Z+
     8b2:	00 20       	and	r0, r0
     8b4:	e9 f7       	brne	.-6      	; 0x8b0 <DisplayString+0x12>
     8b6:	31 97       	sbiw	r30, 0x01	; 1
     8b8:	e6 1b       	sub	r30, r22
     8ba:	f7 0b       	sbc	r31, r23
     8bc:	ee 0f       	add	r30, r30
     8be:	ff 1f       	adc	r31, r31
     8c0:	ee 0f       	add	r30, r30
     8c2:	ff 1f       	adc	r31, r31
     8c4:	ee 0f       	add	r30, r30
     8c6:	ff 1f       	adc	r31, r31
	
	if (x < len)
     8c8:	8e 17       	cp	r24, r30
     8ca:	9f 07       	cpc	r25, r31
     8cc:	08 f0       	brcs	.+2      	; 0x8d0 <DisplayString+0x32>
     8ce:	75 c0       	rjmp	.+234    	; 0x9ba <DisplayString+0x11c>
	{
		
		clear_screen();
     8d0:	0e 94 07 03 	call	0x60e	; 0x60e <clear_screen>
		
		i = x >> 3; // Index vom ersten Zeichen
     8d4:	87 01       	movw	r16, r14
     8d6:	16 95       	lsr	r17
     8d8:	07 95       	ror	r16
     8da:	16 95       	lsr	r17
     8dc:	07 95       	ror	r16
     8de:	16 95       	lsr	r17
     8e0:	07 95       	ror	r16
		u1 = GetCharacterIndex(s[i++]); // erstes Zeichen
     8e2:	fe 01       	movw	r30, r28
     8e4:	e0 0f       	add	r30, r16
     8e6:	f1 1d       	adc	r31, r1
     8e8:	80 81       	ld	r24, Z
     8ea:	0e 94 2c 04 	call	0x858	; 0x858 <GetCharacterIndex>
     8ee:	18 2f       	mov	r17, r24
     8f0:	0f 5f       	subi	r16, 0xFF	; 255
		u2 = GetCharacterIndex(s[i]);  // zweites Zeichen
     8f2:	c0 0f       	add	r28, r16
     8f4:	d1 1d       	adc	r29, r1
     8f6:	88 81       	ld	r24, Y
     8f8:	0e 94 2c 04 	call	0x858	; 0x858 <GetCharacterIndex>
     8fc:	21 2f       	mov	r18, r17
     8fe:	30 e0       	ldi	r19, 0x00	; 0
     900:	a9 01       	movw	r20, r18
     902:	44 0f       	add	r20, r20
     904:	55 1f       	adc	r21, r21
     906:	44 0f       	add	r20, r20
     908:	55 1f       	adc	r21, r21
     90a:	44 0f       	add	r20, r20
     90c:	55 1f       	adc	r21, r21
     90e:	4c 56       	subi	r20, 0x6C	; 108
     910:	5f 4f       	sbci	r21, 0xFF	; 255
     912:	08 2f       	mov	r16, r24
     914:	10 e0       	ldi	r17, 0x00	; 0
     916:	02 1b       	sub	r16, r18
     918:	13 0b       	sbc	r17, r19
     91a:	00 0f       	add	r16, r16
     91c:	11 1f       	adc	r17, r17
     91e:	00 0f       	add	r16, r16
     920:	11 1f       	adc	r17, r17
     922:	00 0f       	add	r16, r16
     924:	11 1f       	adc	r17, r17
     926:	20 e0       	ldi	r18, 0x00	; 0
     928:	30 e0       	ldi	r19, 0x00	; 0
		for (d=0 ; d<16 ; d++)
		{
			VRAM[d] = 0xFF;
     92a:	cf ef       	ldi	r28, 0xFF	; 255
     92c:	d0 e0       	ldi	r29, 0x00	; 0
			VRAM[d] &= ~(pgm_read_byte(&charMap[u1][d]) << (x & 7)); // erstes Zeichen verschoben nach links
     92e:	c7 01       	movw	r24, r14
     930:	87 70       	andi	r24, 0x07	; 7
     932:	99 27       	eor	r25, r25
			VRAM[d] &= ~(pgm_read_byte(&charMap[u2][d]) >> (8-(x & 7)));  // zweites Zeichen verschoben nach rechts
     934:	a8 e0       	ldi	r26, 0x08	; 8
     936:	b0 e0       	ldi	r27, 0x00	; 0
     938:	a8 1b       	sub	r26, r24
     93a:	b9 0b       	sbc	r27, r25
		i = x >> 3; // Index vom ersten Zeichen
		u1 = GetCharacterIndex(s[i++]); // erstes Zeichen
		u2 = GetCharacterIndex(s[i]);  // zweites Zeichen
		for (d=0 ; d<16 ; d++)
		{
			VRAM[d] = 0xFF;
     93c:	f9 01       	movw	r30, r18
     93e:	ee 0f       	add	r30, r30
     940:	ff 1f       	adc	r31, r31
     942:	ec 50       	subi	r30, 0x0C	; 12
     944:	fe 4f       	sbci	r31, 0xFE	; 254
     946:	d1 83       	std	Z+1, r29	; 0x01
     948:	c0 83       	st	Z, r28
			VRAM[d] &= ~(pgm_read_byte(&charMap[u1][d]) << (x & 7)); // erstes Zeichen verschoben nach links
     94a:	60 81       	ld	r22, Z
     94c:	71 81       	ldd	r23, Z+1	; 0x01
     94e:	fa 01       	movw	r30, r20
     950:	f4 90       	lpm	r15, Z
     952:	ef 2d       	mov	r30, r15
     954:	f0 e0       	ldi	r31, 0x00	; 0
     956:	08 2e       	mov	r0, r24
     958:	02 c0       	rjmp	.+4      	; 0x95e <DisplayString+0xc0>
     95a:	ee 0f       	add	r30, r30
     95c:	ff 1f       	adc	r31, r31
     95e:	0a 94       	dec	r0
     960:	e2 f7       	brpl	.-8      	; 0x95a <DisplayString+0xbc>
     962:	e0 95       	com	r30
     964:	f0 95       	com	r31
     966:	6e 23       	and	r22, r30
     968:	7f 23       	and	r23, r31
     96a:	f9 01       	movw	r30, r18
     96c:	ee 0f       	add	r30, r30
     96e:	ff 1f       	adc	r31, r31
     970:	ec 50       	subi	r30, 0x0C	; 12
     972:	fe 4f       	sbci	r31, 0xFE	; 254
     974:	71 83       	std	Z+1, r23	; 0x01
     976:	60 83       	st	Z, r22
			VRAM[d] &= ~(pgm_read_byte(&charMap[u2][d]) >> (8-(x & 7)));  // zweites Zeichen verschoben nach rechts
     978:	60 81       	ld	r22, Z
     97a:	71 81       	ldd	r23, Z+1	; 0x01
     97c:	fa 01       	movw	r30, r20
     97e:	e0 0f       	add	r30, r16
     980:	f1 1f       	adc	r31, r17
     982:	e4 91       	lpm	r30, Z
     984:	f0 e0       	ldi	r31, 0x00	; 0
     986:	0a 2e       	mov	r0, r26
     988:	02 c0       	rjmp	.+4      	; 0x98e <DisplayString+0xf0>
     98a:	f5 95       	asr	r31
     98c:	e7 95       	ror	r30
     98e:	0a 94       	dec	r0
     990:	e2 f7       	brpl	.-8      	; 0x98a <DisplayString+0xec>
     992:	e0 95       	com	r30
     994:	f0 95       	com	r31
     996:	6e 23       	and	r22, r30
     998:	7f 23       	and	r23, r31
     99a:	f9 01       	movw	r30, r18
     99c:	ee 0f       	add	r30, r30
     99e:	ff 1f       	adc	r31, r31
     9a0:	ec 50       	subi	r30, 0x0C	; 12
     9a2:	fe 4f       	sbci	r31, 0xFE	; 254
     9a4:	71 83       	std	Z+1, r23	; 0x01
     9a6:	60 83       	st	Z, r22
     9a8:	2f 5f       	subi	r18, 0xFF	; 255
     9aa:	3f 4f       	sbci	r19, 0xFF	; 255
     9ac:	4f 5f       	subi	r20, 0xFF	; 255
     9ae:	5f 4f       	sbci	r21, 0xFF	; 255
		clear_screen();
		
		i = x >> 3; // Index vom ersten Zeichen
		u1 = GetCharacterIndex(s[i++]); // erstes Zeichen
		u2 = GetCharacterIndex(s[i]);  // zweites Zeichen
		for (d=0 ; d<16 ; d++)
     9b0:	20 31       	cpi	r18, 0x10	; 16
     9b2:	31 05       	cpc	r19, r1
     9b4:	09 f0       	breq	.+2      	; 0x9b8 <DisplayString+0x11a>
     9b6:	c2 cf       	rjmp	.-124    	; 0x93c <DisplayString+0x9e>
     9b8:	0f c0       	rjmp	.+30     	; 0x9d8 <DisplayString+0x13a>
	uint16_t len;
	uint8_t i, d, u1, u2;
	
	len = strlen(s)*8;
	
	if (x < len)
     9ba:	80 e0       	ldi	r24, 0x00	; 0
     9bc:	90 e0       	ldi	r25, 0x00	; 0
		}
		
		} else {
		// x zu groß, alles aus
		for (d=0 ; d<8 ; d++)
		VRAM[d] = 0xFF;
     9be:	2f ef       	ldi	r18, 0xFF	; 255
     9c0:	30 e0       	ldi	r19, 0x00	; 0
     9c2:	fc 01       	movw	r30, r24
     9c4:	ee 0f       	add	r30, r30
     9c6:	ff 1f       	adc	r31, r31
     9c8:	ec 50       	subi	r30, 0x0C	; 12
     9ca:	fe 4f       	sbci	r31, 0xFE	; 254
     9cc:	31 83       	std	Z+1, r19	; 0x01
     9ce:	20 83       	st	Z, r18
     9d0:	01 96       	adiw	r24, 0x01	; 1
			VRAM[d] &= ~(pgm_read_byte(&charMap[u2][d]) >> (8-(x & 7)));  // zweites Zeichen verschoben nach rechts
		}
		
		} else {
		// x zu groß, alles aus
		for (d=0 ; d<8 ; d++)
     9d2:	88 30       	cpi	r24, 0x08	; 8
     9d4:	91 05       	cpc	r25, r1
     9d6:	a9 f7       	brne	.-22     	; 0x9c2 <DisplayString+0x124>
		VRAM[d] = 0xFF;
		
	}

}
     9d8:	df 91       	pop	r29
     9da:	cf 91       	pop	r28
     9dc:	1f 91       	pop	r17
     9de:	0f 91       	pop	r16
     9e0:	ff 90       	pop	r15
     9e2:	ef 90       	pop	r14
     9e4:	08 95       	ret

000009e6 <Display_a_Character>:

}

/* display one of Character from charMap */
void Display_a_Character(uint8_t i)
{
     9e6:	28 e0       	ldi	r18, 0x08	; 8
     9e8:	82 9f       	mul	r24, r18
     9ea:	c0 01       	movw	r24, r0
     9ec:	11 24       	eor	r1, r1
     9ee:	20 e0       	ldi	r18, 0x00	; 0
     9f0:	30 e0       	ldi	r19, 0x00	; 0
     9f2:	8c 56       	subi	r24, 0x6C	; 108
     9f4:	9f 4f       	sbci	r25, 0xFF	; 255
     9f6:	fc 01       	movw	r30, r24
     9f8:	e2 0f       	add	r30, r18
     9fa:	f3 1f       	adc	r31, r19
	for (uint8_t d= 0 ; d < 8 ; d++)
	{
		VRAM[d] = ~(pgm_read_byte(&charMap[i][d]));
     9fc:	e4 91       	lpm	r30, Z
     9fe:	f0 e0       	ldi	r31, 0x00	; 0
     a00:	e0 95       	com	r30
     a02:	f0 95       	com	r31
     a04:	d9 01       	movw	r26, r18
     a06:	aa 0f       	add	r26, r26
     a08:	bb 1f       	adc	r27, r27
     a0a:	ac 50       	subi	r26, 0x0C	; 12
     a0c:	be 4f       	sbci	r27, 0xFE	; 254
     a0e:	11 96       	adiw	r26, 0x01	; 1
     a10:	fc 93       	st	X, r31
     a12:	ee 93       	st	-X, r30
     a14:	2f 5f       	subi	r18, 0xFF	; 255
     a16:	3f 4f       	sbci	r19, 0xFF	; 255
}

/* display one of Character from charMap */
void Display_a_Character(uint8_t i)
{
	for (uint8_t d= 0 ; d < 8 ; d++)
     a18:	28 30       	cpi	r18, 0x08	; 8
     a1a:	31 05       	cpc	r19, r1
     a1c:	61 f7       	brne	.-40     	; 0x9f6 <Display_a_Character+0x10>
	{
		VRAM[d] = ~(pgm_read_byte(&charMap[i][d]));
	}
}
     a1e:	08 95       	ret

00000a20 <Display_Start_String>:

/* display start String */
void Display_Start_String(void)
{
     a20:	ef 92       	push	r14
     a22:	ff 92       	push	r15
     a24:	0f 93       	push	r16
     a26:	1f 93       	push	r17
     a28:	cf 93       	push	r28
     a2a:	df 93       	push	r29
     a2c:	cd b7       	in	r28, 0x3d	; 61
     a2e:	de b7       	in	r29, 0x3e	; 62
     a30:	63 97       	sbiw	r28, 0x13	; 19
     a32:	0f b6       	in	r0, 0x3f	; 63
     a34:	f8 94       	cli
     a36:	de bf       	out	0x3e, r29	; 62
     a38:	0f be       	out	0x3f, r0	; 63
     a3a:	cd bf       	out	0x3d, r28	; 61
	LIVE_LED_OFF;
     a3c:	d9 9a       	sbi	0x1b, 1	; 27

	char s[] = " Xmas-Tree-Xtreeme";
     a3e:	83 e1       	ldi	r24, 0x13	; 19
     a40:	e6 e7       	ldi	r30, 0x76	; 118
     a42:	f0 e0       	ldi	r31, 0x00	; 0
     a44:	de 01       	movw	r26, r28
     a46:	11 96       	adiw	r26, 0x01	; 1
     a48:	01 90       	ld	r0, Z+
     a4a:	0d 92       	st	X+, r0
     a4c:	8a 95       	dec	r24
     a4e:	e1 f7       	brne	.-8      	; 0xa48 <Display_Start_String+0x28>
		    
	for (uint16_t x=0; x<(strlen(s)*8); x++)
     a50:	00 e0       	ldi	r16, 0x00	; 0
     a52:	10 e0       	ldi	r17, 0x00	; 0
     a54:	ce 01       	movw	r24, r28
     a56:	01 96       	adiw	r24, 0x01	; 1
     a58:	7c 01       	movw	r14, r24
     a5a:	0f c0       	rjmp	.+30     	; 0xa7a <Display_Start_String+0x5a>
	{
		DisplayString(x, s);
     a5c:	b7 01       	movw	r22, r14
     a5e:	c8 01       	movw	r24, r16
     a60:	0e 94 4f 04 	call	0x89e	; 0x89e <DisplayString>
	#else
		//round up by default
		__ticks_dc = (uint32_t)(ceil(fabs(__tmp)));
	#endif

	__builtin_avr_delay_cycles(__ticks_dc);
     a64:	9f ef       	ldi	r25, 0xFF	; 255
     a66:	21 ee       	ldi	r18, 0xE1	; 225
     a68:	84 e0       	ldi	r24, 0x04	; 4
     a6a:	91 50       	subi	r25, 0x01	; 1
     a6c:	20 40       	sbci	r18, 0x00	; 0
     a6e:	80 40       	sbci	r24, 0x00	; 0
     a70:	e1 f7       	brne	.-8      	; 0xa6a <Display_Start_String+0x4a>
     a72:	00 c0       	rjmp	.+0      	; 0xa74 <Display_Start_String+0x54>
     a74:	00 00       	nop
{
	LIVE_LED_OFF;

	char s[] = " Xmas-Tree-Xtreeme";
		    
	for (uint16_t x=0; x<(strlen(s)*8); x++)
     a76:	0f 5f       	subi	r16, 0xFF	; 255
     a78:	1f 4f       	sbci	r17, 0xFF	; 255
     a7a:	f7 01       	movw	r30, r14
     a7c:	01 90       	ld	r0, Z+
     a7e:	00 20       	and	r0, r0
     a80:	e9 f7       	brne	.-6      	; 0xa7c <Display_Start_String+0x5c>
     a82:	31 97       	sbiw	r30, 0x01	; 1
     a84:	ee 19       	sub	r30, r14
     a86:	ff 09       	sbc	r31, r15
     a88:	ee 0f       	add	r30, r30
     a8a:	ff 1f       	adc	r31, r31
     a8c:	ee 0f       	add	r30, r30
     a8e:	ff 1f       	adc	r31, r31
     a90:	ee 0f       	add	r30, r30
     a92:	ff 1f       	adc	r31, r31
     a94:	0e 17       	cp	r16, r30
     a96:	1f 07       	cpc	r17, r31
     a98:	08 f3       	brcs	.-62     	; 0xa5c <Display_Start_String+0x3c>
		DisplayString(x, s);
		_delay_ms(100);
	}
	

}
     a9a:	63 96       	adiw	r28, 0x13	; 19
     a9c:	0f b6       	in	r0, 0x3f	; 63
     a9e:	f8 94       	cli
     aa0:	de bf       	out	0x3e, r29	; 62
     aa2:	0f be       	out	0x3f, r0	; 63
     aa4:	cd bf       	out	0x3d, r28	; 61
     aa6:	df 91       	pop	r29
     aa8:	cf 91       	pop	r28
     aaa:	1f 91       	pop	r17
     aac:	0f 91       	pop	r16
     aae:	ff 90       	pop	r15
     ab0:	ef 90       	pop	r14
     ab2:	08 95       	ret

00000ab4 <all_LED_OFF>:
}

/* show no LED */
void all_LED_OFF()
{
	com74hc595_unsetall();
     ab4:	0e 94 d1 01 	call	0x3a2	; 0x3a2 <com74hc595_unsetall>
	com74hc595_out();
     ab8:	0e 94 e9 01 	call	0x3d2	; 0x3d2 <com74hc595_out>
     abc:	08 95       	ret

00000abe <Test_Mode>:

}

/* use this function for testing Device */
void Test_Mode(void)
{
     abe:	2f 92       	push	r2
     ac0:	3f 92       	push	r3
     ac2:	4f 92       	push	r4
     ac4:	5f 92       	push	r5
     ac6:	6f 92       	push	r6
     ac8:	7f 92       	push	r7
     aca:	8f 92       	push	r8
     acc:	9f 92       	push	r9
     ace:	af 92       	push	r10
     ad0:	bf 92       	push	r11
     ad2:	cf 92       	push	r12
     ad4:	df 92       	push	r13
     ad6:	ef 92       	push	r14
     ad8:	ff 92       	push	r15
     ada:	0f 93       	push	r16
     adc:	1f 93       	push	r17
     ade:	cf 93       	push	r28
     ae0:	df 93       	push	r29
     ae2:	cd b7       	in	r28, 0x3d	; 61
     ae4:	de b7       	in	r29, 0x3e	; 62
     ae6:	61 97       	sbiw	r28, 0x11	; 17
     ae8:	0f b6       	in	r0, 0x3f	; 63
     aea:	f8 94       	cli
     aec:	de bf       	out	0x3e, r29	; 62
     aee:	0f be       	out	0x3f, r0	; 63
     af0:	cd bf       	out	0x3d, r28	; 61
	clear_screen();
     af2:	0e 94 07 03 	call	0x60e	; 0x60e <clear_screen>
	all_LED_OFF();
     af6:	0e 94 5a 05 	call	0xab4	; 0xab4 <all_LED_OFF>
	LIVE_LED_OFF;
     afa:	d9 9a       	sbi	0x1b, 1	; 27
	DISABLE_25ms_ISR;
     afc:	89 b7       	in	r24, 0x39	; 57
     afe:	8f 7e       	andi	r24, 0xEF	; 239
     b00:	89 bf       	out	0x39, r24	; 57
	char s[] = " START TEST-MODE";
     b02:	81 e1       	ldi	r24, 0x11	; 17
     b04:	e9 e8       	ldi	r30, 0x89	; 137
     b06:	f0 e0       	ldi	r31, 0x00	; 0
     b08:	de 01       	movw	r26, r28
     b0a:	11 96       	adiw	r26, 0x01	; 1
     b0c:	01 90       	ld	r0, Z+
     b0e:	0d 92       	st	X+, r0
     b10:	8a 95       	dec	r24
     b12:	e1 f7       	brne	.-8      	; 0xb0c <Test_Mode+0x4e>
	for (uint16_t x=0; x<(strlen(s)*8); x++)
     b14:	00 e0       	ldi	r16, 0x00	; 0
     b16:	10 e0       	ldi	r17, 0x00	; 0
     b18:	ce 01       	movw	r24, r28
     b1a:	01 96       	adiw	r24, 0x01	; 1
     b1c:	7c 01       	movw	r14, r24
     b1e:	0f c0       	rjmp	.+30     	; 0xb3e <Test_Mode+0x80>
	{
		DisplayString(x, s);
     b20:	b7 01       	movw	r22, r14
     b22:	c8 01       	movw	r24, r16
     b24:	0e 94 4f 04 	call	0x89e	; 0x89e <DisplayString>
     b28:	9f ef       	ldi	r25, 0xFF	; 255
     b2a:	e3 ef       	ldi	r30, 0xF3	; 243
     b2c:	f1 e0       	ldi	r31, 0x01	; 1
     b2e:	91 50       	subi	r25, 0x01	; 1
     b30:	e0 40       	sbci	r30, 0x00	; 0
     b32:	f0 40       	sbci	r31, 0x00	; 0
     b34:	e1 f7       	brne	.-8      	; 0xb2e <Test_Mode+0x70>
     b36:	00 c0       	rjmp	.+0      	; 0xb38 <Test_Mode+0x7a>
     b38:	00 00       	nop
	clear_screen();
	all_LED_OFF();
	LIVE_LED_OFF;
	DISABLE_25ms_ISR;
	char s[] = " START TEST-MODE";
	for (uint16_t x=0; x<(strlen(s)*8); x++)
     b3a:	0f 5f       	subi	r16, 0xFF	; 255
     b3c:	1f 4f       	sbci	r17, 0xFF	; 255
     b3e:	f7 01       	movw	r30, r14
     b40:	01 90       	ld	r0, Z+
     b42:	00 20       	and	r0, r0
     b44:	e9 f7       	brne	.-6      	; 0xb40 <Test_Mode+0x82>
     b46:	31 97       	sbiw	r30, 0x01	; 1
     b48:	ee 19       	sub	r30, r14
     b4a:	ff 09       	sbc	r31, r15
     b4c:	ee 0f       	add	r30, r30
     b4e:	ff 1f       	adc	r31, r31
     b50:	ee 0f       	add	r30, r30
     b52:	ff 1f       	adc	r31, r31
     b54:	ee 0f       	add	r30, r30
     b56:	ff 1f       	adc	r31, r31
     b58:	0e 17       	cp	r16, r30
     b5a:	1f 07       	cpc	r17, r31
     b5c:	08 f3       	brcs	.-62     	; 0xb20 <Test_Mode+0x62>
	}	
		
 	
/* Check all LEDs */
	 
	com74hc595_setall();
     b5e:	0e 94 c4 01 	call	0x388	; 0x388 <com74hc595_setall>
 	com74hc595_out();			
     b62:	0e 94 e9 01 	call	0x3d2	; 0x3d2 <com74hc595_out>
	while (!(SWITCH_ONE_PRESSED))
     b66:	cb 9b       	sbis	0x19, 3	; 25
     b68:	04 c0       	rjmp	.+8      	; 0xb72 <Test_Mode+0xb4>
	com74hc595_unsetall();
     b6a:	0e 94 d1 01 	call	0x3a2	; 0x3a2 <com74hc595_unsetall>
 	
/* Check all LEDs */
	 
	com74hc595_setall();
 	com74hc595_out();			
	while (!(SWITCH_ONE_PRESSED))
     b6e:	cb 99       	sbic	0x19, 3	; 25
     b70:	fc cf       	rjmp	.-8      	; 0xb6a <Test_Mode+0xac>
	com74hc595_unsetall();
	com74hc595_out();
     b72:	0e 94 e9 01 	call	0x3d2	; 0x3d2 <com74hc595_out>
     b76:	2f ef       	ldi	r18, 0xFF	; 255
     b78:	83 ed       	ldi	r24, 0xD3	; 211
     b7a:	90 e3       	ldi	r25, 0x30	; 48
     b7c:	21 50       	subi	r18, 0x01	; 1
     b7e:	80 40       	sbci	r24, 0x00	; 0
     b80:	90 40       	sbci	r25, 0x00	; 0
     b82:	e1 f7       	brne	.-8      	; 0xb7c <Test_Mode+0xbe>
     b84:	00 c0       	rjmp	.+0      	; 0xb86 <Test_Mode+0xc8>
     b86:	00 00       	nop
	_delay_ms(1000);
	


	com74hc595_setPort(0,0b10101010);
     b88:	6a ea       	ldi	r22, 0xAA	; 170
     b8a:	80 e0       	ldi	r24, 0x00	; 0
     b8c:	0e 94 dd 01 	call	0x3ba	; 0x3ba <com74hc595_setPort>
	com74hc595_setPort(1,0b10101010);
     b90:	6a ea       	ldi	r22, 0xAA	; 170
     b92:	81 e0       	ldi	r24, 0x01	; 1
     b94:	0e 94 dd 01 	call	0x3ba	; 0x3ba <com74hc595_setPort>
	com74hc595_setPort(2,0b10101010);
     b98:	6a ea       	ldi	r22, 0xAA	; 170
     b9a:	82 e0       	ldi	r24, 0x02	; 2
     b9c:	0e 94 dd 01 	call	0x3ba	; 0x3ba <com74hc595_setPort>
	com74hc595_setPort(3,0b10101010);
     ba0:	6a ea       	ldi	r22, 0xAA	; 170
     ba2:	83 e0       	ldi	r24, 0x03	; 3
     ba4:	0e 94 dd 01 	call	0x3ba	; 0x3ba <com74hc595_setPort>
	com74hc595_setPort(4,0b10101010);
     ba8:	6a ea       	ldi	r22, 0xAA	; 170
     baa:	84 e0       	ldi	r24, 0x04	; 4
     bac:	0e 94 dd 01 	call	0x3ba	; 0x3ba <com74hc595_setPort>
	com74hc595_setPort(5,0b10101010);
     bb0:	6a ea       	ldi	r22, 0xAA	; 170
     bb2:	85 e0       	ldi	r24, 0x05	; 5
     bb4:	0e 94 dd 01 	call	0x3ba	; 0x3ba <com74hc595_setPort>
	com74hc595_setPort(6,0b10101010);
     bb8:	6a ea       	ldi	r22, 0xAA	; 170
     bba:	86 e0       	ldi	r24, 0x06	; 6
     bbc:	0e 94 dd 01 	call	0x3ba	; 0x3ba <com74hc595_setPort>
	com74hc595_setPort(7,0b10101010);
     bc0:	6a ea       	ldi	r22, 0xAA	; 170
     bc2:	87 e0       	ldi	r24, 0x07	; 7
     bc4:	0e 94 dd 01 	call	0x3ba	; 0x3ba <com74hc595_setPort>
	com74hc595_setPort(8,0b10101010);
     bc8:	6a ea       	ldi	r22, 0xAA	; 170
     bca:	88 e0       	ldi	r24, 0x08	; 8
     bcc:	0e 94 dd 01 	call	0x3ba	; 0x3ba <com74hc595_setPort>
	com74hc595_setPort(9,0b10101010);
     bd0:	6a ea       	ldi	r22, 0xAA	; 170
     bd2:	89 e0       	ldi	r24, 0x09	; 9
     bd4:	0e 94 dd 01 	call	0x3ba	; 0x3ba <com74hc595_setPort>
	com74hc595_setPort(10,0b10101010);
     bd8:	6a ea       	ldi	r22, 0xAA	; 170
     bda:	8a e0       	ldi	r24, 0x0A	; 10
     bdc:	0e 94 dd 01 	call	0x3ba	; 0x3ba <com74hc595_setPort>
	com74hc595_setPort(11,0b10101010);
     be0:	6a ea       	ldi	r22, 0xAA	; 170
     be2:	8b e0       	ldi	r24, 0x0B	; 11
     be4:	0e 94 dd 01 	call	0x3ba	; 0x3ba <com74hc595_setPort>
	com74hc595_setPort(12,0b10101010);
     be8:	6a ea       	ldi	r22, 0xAA	; 170
     bea:	8c e0       	ldi	r24, 0x0C	; 12
     bec:	0e 94 dd 01 	call	0x3ba	; 0x3ba <com74hc595_setPort>
	com74hc595_setPort(13,0b10101010);
     bf0:	6a ea       	ldi	r22, 0xAA	; 170
     bf2:	8d e0       	ldi	r24, 0x0D	; 13
     bf4:	0e 94 dd 01 	call	0x3ba	; 0x3ba <com74hc595_setPort>
	com74hc595_setPort(14,0b10101010);
     bf8:	6a ea       	ldi	r22, 0xAA	; 170
     bfa:	8e e0       	ldi	r24, 0x0E	; 14
     bfc:	0e 94 dd 01 	call	0x3ba	; 0x3ba <com74hc595_setPort>
	com74hc595_setPort(15,0b10101010);
     c00:	6a ea       	ldi	r22, 0xAA	; 170
     c02:	8f e0       	ldi	r24, 0x0F	; 15
     c04:	0e 94 dd 01 	call	0x3ba	; 0x3ba <com74hc595_setPort>
	com74hc595_setPort(16,0b10101010);
     c08:	6a ea       	ldi	r22, 0xAA	; 170
     c0a:	80 e1       	ldi	r24, 0x10	; 16
     c0c:	0e 94 dd 01 	call	0x3ba	; 0x3ba <com74hc595_setPort>
	com74hc595_setPort(17,0b10101010);
     c10:	6a ea       	ldi	r22, 0xAA	; 170
     c12:	81 e1       	ldi	r24, 0x11	; 17
     c14:	0e 94 dd 01 	call	0x3ba	; 0x3ba <com74hc595_setPort>
	com74hc595_out();
     c18:	0e 94 e9 01 	call	0x3d2	; 0x3d2 <com74hc595_out>
	
	while (!(SWITCH_ONE_PRESSED))
     c1c:	cb 9b       	sbis	0x19, 3	; 25
     c1e:	04 c0       	rjmp	.+8      	; 0xc28 <Test_Mode+0x16a>
	
	com74hc595_unsetall();
     c20:	0e 94 d1 01 	call	0x3a2	; 0x3a2 <com74hc595_unsetall>
	com74hc595_setPort(15,0b10101010);
	com74hc595_setPort(16,0b10101010);
	com74hc595_setPort(17,0b10101010);
	com74hc595_out();
	
	while (!(SWITCH_ONE_PRESSED))
     c24:	cb 99       	sbic	0x19, 3	; 25
     c26:	fc cf       	rjmp	.-8      	; 0xc20 <Test_Mode+0x162>
	
	com74hc595_unsetall();
	com74hc595_out();
     c28:	0e 94 e9 01 	call	0x3d2	; 0x3d2 <com74hc595_out>
     c2c:	ef ef       	ldi	r30, 0xFF	; 255
     c2e:	f3 ed       	ldi	r31, 0xD3	; 211
     c30:	20 e3       	ldi	r18, 0x30	; 48
     c32:	e1 50       	subi	r30, 0x01	; 1
     c34:	f0 40       	sbci	r31, 0x00	; 0
     c36:	20 40       	sbci	r18, 0x00	; 0
     c38:	e1 f7       	brne	.-8      	; 0xc32 <Test_Mode+0x174>
     c3a:	00 c0       	rjmp	.+0      	; 0xc3c <Test_Mode+0x17e>
     c3c:	00 00       	nop
	_delay_ms(1000);

	
	
	while (!(SWITCH_ONE_PRESSED))
     c3e:	cb 9b       	sbis	0x19, 3	; 25
     c40:	0d c0       	rjmp	.+26     	; 0xc5c <Test_Mode+0x19e>
	{
		fill_screen();
     c42:	0e 94 1c 04 	call	0x838	; 0x838 <fill_screen>
     c46:	8f ef       	ldi	r24, 0xFF	; 255
     c48:	93 ec       	ldi	r25, 0xC3	; 195
     c4a:	e9 e0       	ldi	r30, 0x09	; 9
     c4c:	81 50       	subi	r24, 0x01	; 1
     c4e:	90 40       	sbci	r25, 0x00	; 0
     c50:	e0 40       	sbci	r30, 0x00	; 0
     c52:	e1 f7       	brne	.-8      	; 0xc4c <Test_Mode+0x18e>
     c54:	00 c0       	rjmp	.+0      	; 0xc56 <Test_Mode+0x198>
     c56:	00 00       	nop
	com74hc595_out();
	_delay_ms(1000);

	
	
	while (!(SWITCH_ONE_PRESSED))
     c58:	cb 99       	sbic	0x19, 3	; 25
     c5a:	f3 cf       	rjmp	.-26     	; 0xc42 <Test_Mode+0x184>
	{
		fill_screen();
		_delay_ms(200);
	}
	LIVE_LED_OFF;
     c5c:	d9 9a       	sbi	0x1b, 1	; 27
	clear_screen();
     c5e:	0e 94 07 03 	call	0x60e	; 0x60e <clear_screen>
     c62:	ff ef       	ldi	r31, 0xFF	; 255
     c64:	23 ed       	ldi	r18, 0xD3	; 211
     c66:	80 e3       	ldi	r24, 0x30	; 48
     c68:	f1 50       	subi	r31, 0x01	; 1
     c6a:	20 40       	sbci	r18, 0x00	; 0
     c6c:	80 40       	sbci	r24, 0x00	; 0
     c6e:	e1 f7       	brne	.-8      	; 0xc68 <Test_Mode+0x1aa>
     c70:	00 c0       	rjmp	.+0      	; 0xc72 <Test_Mode+0x1b4>
     c72:	00 00       	nop
       {
	       
	       /* from right to left */
	       for (uint16_t x = 1 ; x <= 255 ; x = x * 2)
	       {
		       VRAM[0] = x;
     c74:	0f 2e       	mov	r0, r31
     c76:	f4 ef       	ldi	r31, 0xF4	; 244
     c78:	af 2e       	mov	r10, r31
     c7a:	f1 e0       	ldi	r31, 0x01	; 1
     c7c:	bf 2e       	mov	r11, r31
     c7e:	f0 2d       	mov	r31, r0
	       }
	       
	       /* from left to right */
	       for (uint16_t x = 128 ; x >= 1 ; x = x / 2)
	       {
		       VRAM[1] = x;
     c80:	0f 2e       	mov	r0, r31
     c82:	f6 ef       	ldi	r31, 0xF6	; 246
     c84:	cf 2e       	mov	r12, r31
     c86:	f1 e0       	ldi	r31, 0x01	; 1
     c88:	df 2e       	mov	r13, r31
     c8a:	f0 2d       	mov	r31, r0
	       }
	       
	       /* from right to left */
	       for (uint16_t x = 1 ; x <= 255 ; x = x * 2)
	       {
		       VRAM[2] = x;
     c8c:	0f 2e       	mov	r0, r31
     c8e:	f8 ef       	ldi	r31, 0xF8	; 248
     c90:	6f 2e       	mov	r6, r31
     c92:	f1 e0       	ldi	r31, 0x01	; 1
     c94:	7f 2e       	mov	r7, r31
     c96:	f0 2d       	mov	r31, r0
	       }
	       
	       /* from left to right */
	       for (uint16_t x = 128 ; x >= 1 ; x = x / 2)
	       {
		       VRAM[3] = x;
     c98:	0f 2e       	mov	r0, r31
     c9a:	fa ef       	ldi	r31, 0xFA	; 250
     c9c:	4f 2e       	mov	r4, r31
     c9e:	f1 e0       	ldi	r31, 0x01	; 1
     ca0:	5f 2e       	mov	r5, r31
     ca2:	f0 2d       	mov	r31, r0
	       }
	       
	       /* from right to left */
	       for (uint16_t x = 1 ; x <= 255 ; x = x * 2)
	       {
		       VRAM[4] = x;
     ca4:	0f 2e       	mov	r0, r31
     ca6:	fc ef       	ldi	r31, 0xFC	; 252
     ca8:	2f 2e       	mov	r2, r31
     caa:	f1 e0       	ldi	r31, 0x01	; 1
     cac:	3f 2e       	mov	r3, r31
     cae:	f0 2d       	mov	r31, r0
     cb0:	dc c0       	rjmp	.+440    	; 0xe6a <Test_Mode+0x3ac>
       {
	       
	       /* from right to left */
	       for (uint16_t x = 1 ; x <= 255 ; x = x * 2)
	       {
		       VRAM[0] = x;
     cb2:	f5 01       	movw	r30, r10
     cb4:	f1 82       	std	Z+1, r15	; 0x01
     cb6:	e0 82       	st	Z, r14
     cb8:	ff ef       	ldi	r31, 0xFF	; 255
     cba:	21 ee       	ldi	r18, 0xE1	; 225
     cbc:	84 e0       	ldi	r24, 0x04	; 4
     cbe:	f1 50       	subi	r31, 0x01	; 1
     cc0:	20 40       	sbci	r18, 0x00	; 0
     cc2:	80 40       	sbci	r24, 0x00	; 0
     cc4:	e1 f7       	brne	.-8      	; 0xcbe <Test_Mode+0x200>
     cc6:	00 c0       	rjmp	.+0      	; 0xcc8 <Test_Mode+0x20a>
     cc8:	00 00       	nop
		       _delay_ms(100);
		       clear_screen();
     cca:	0e 94 07 03 	call	0x60e	; 0x60e <clear_screen>

       while (!(SWITCH_ONE_PRESSED))
       {
	       
	       /* from right to left */
	       for (uint16_t x = 1 ; x <= 255 ; x = x * 2)
     cce:	ee 0c       	add	r14, r14
     cd0:	ff 1c       	adc	r15, r15
     cd2:	01 50       	subi	r16, 0x01	; 1
     cd4:	11 09       	sbc	r17, r1
     cd6:	01 15       	cp	r16, r1
     cd8:	11 05       	cpc	r17, r1
     cda:	59 f7       	brne	.-42     	; 0xcb2 <Test_Mode+0x1f4>
     cdc:	08 e0       	ldi	r16, 0x08	; 8
     cde:	10 e0       	ldi	r17, 0x00	; 0
     ce0:	68 94       	set
     ce2:	ee 24       	eor	r14, r14
     ce4:	e7 f8       	bld	r14, 7
     ce6:	f1 2c       	mov	r15, r1
	       }
	       
	       /* from left to right */
	       for (uint16_t x = 128 ; x >= 1 ; x = x / 2)
	       {
		       VRAM[1] = x;
     ce8:	f6 01       	movw	r30, r12
     cea:	f1 82       	std	Z+1, r15	; 0x01
     cec:	e0 82       	st	Z, r14
     cee:	ff ef       	ldi	r31, 0xFF	; 255
     cf0:	21 ee       	ldi	r18, 0xE1	; 225
     cf2:	84 e0       	ldi	r24, 0x04	; 4
     cf4:	f1 50       	subi	r31, 0x01	; 1
     cf6:	20 40       	sbci	r18, 0x00	; 0
     cf8:	80 40       	sbci	r24, 0x00	; 0
     cfa:	e1 f7       	brne	.-8      	; 0xcf4 <Test_Mode+0x236>
     cfc:	00 c0       	rjmp	.+0      	; 0xcfe <Test_Mode+0x240>
     cfe:	00 00       	nop
		       _delay_ms(100);
		       clear_screen();
     d00:	0e 94 07 03 	call	0x60e	; 0x60e <clear_screen>
		       _delay_ms(100);
		       clear_screen();
	       }
	       
	       /* from left to right */
	       for (uint16_t x = 128 ; x >= 1 ; x = x / 2)
     d04:	f6 94       	lsr	r15
     d06:	e7 94       	ror	r14
     d08:	01 50       	subi	r16, 0x01	; 1
     d0a:	11 09       	sbc	r17, r1
     d0c:	01 15       	cp	r16, r1
     d0e:	11 05       	cpc	r17, r1
     d10:	59 f7       	brne	.-42     	; 0xce8 <Test_Mode+0x22a>
     d12:	08 e0       	ldi	r16, 0x08	; 8
     d14:	10 e0       	ldi	r17, 0x00	; 0
     d16:	ee 24       	eor	r14, r14
     d18:	e3 94       	inc	r14
     d1a:	f1 2c       	mov	r15, r1
	       }
	       
	       /* from right to left */
	       for (uint16_t x = 1 ; x <= 255 ; x = x * 2)
	       {
		       VRAM[2] = x;
     d1c:	f3 01       	movw	r30, r6
     d1e:	f1 82       	std	Z+1, r15	; 0x01
     d20:	e0 82       	st	Z, r14
     d22:	ff ef       	ldi	r31, 0xFF	; 255
     d24:	21 ee       	ldi	r18, 0xE1	; 225
     d26:	84 e0       	ldi	r24, 0x04	; 4
     d28:	f1 50       	subi	r31, 0x01	; 1
     d2a:	20 40       	sbci	r18, 0x00	; 0
     d2c:	80 40       	sbci	r24, 0x00	; 0
     d2e:	e1 f7       	brne	.-8      	; 0xd28 <Test_Mode+0x26a>
     d30:	00 c0       	rjmp	.+0      	; 0xd32 <Test_Mode+0x274>
     d32:	00 00       	nop
		       _delay_ms(100);
		       clear_screen();
     d34:	0e 94 07 03 	call	0x60e	; 0x60e <clear_screen>
		       _delay_ms(100);
		       clear_screen();
	       }
	       
	       /* from right to left */
	       for (uint16_t x = 1 ; x <= 255 ; x = x * 2)
     d38:	ee 0c       	add	r14, r14
     d3a:	ff 1c       	adc	r15, r15
     d3c:	01 50       	subi	r16, 0x01	; 1
     d3e:	11 09       	sbc	r17, r1
     d40:	01 15       	cp	r16, r1
     d42:	11 05       	cpc	r17, r1
     d44:	59 f7       	brne	.-42     	; 0xd1c <Test_Mode+0x25e>
     d46:	08 e0       	ldi	r16, 0x08	; 8
     d48:	10 e0       	ldi	r17, 0x00	; 0
     d4a:	68 94       	set
     d4c:	ee 24       	eor	r14, r14
     d4e:	e7 f8       	bld	r14, 7
     d50:	f1 2c       	mov	r15, r1
	       }
	       
	       /* from left to right */
	       for (uint16_t x = 128 ; x >= 1 ; x = x / 2)
	       {
		       VRAM[3] = x;
     d52:	f2 01       	movw	r30, r4
     d54:	f1 82       	std	Z+1, r15	; 0x01
     d56:	e0 82       	st	Z, r14
     d58:	ff ef       	ldi	r31, 0xFF	; 255
     d5a:	21 ee       	ldi	r18, 0xE1	; 225
     d5c:	84 e0       	ldi	r24, 0x04	; 4
     d5e:	f1 50       	subi	r31, 0x01	; 1
     d60:	20 40       	sbci	r18, 0x00	; 0
     d62:	80 40       	sbci	r24, 0x00	; 0
     d64:	e1 f7       	brne	.-8      	; 0xd5e <Test_Mode+0x2a0>
     d66:	00 c0       	rjmp	.+0      	; 0xd68 <Test_Mode+0x2aa>
     d68:	00 00       	nop
		       _delay_ms(100);
		       clear_screen();
     d6a:	0e 94 07 03 	call	0x60e	; 0x60e <clear_screen>
		       _delay_ms(100);
		       clear_screen();
	       }
	       
	       /* from left to right */
	       for (uint16_t x = 128 ; x >= 1 ; x = x / 2)
     d6e:	f6 94       	lsr	r15
     d70:	e7 94       	ror	r14
     d72:	01 50       	subi	r16, 0x01	; 1
     d74:	11 09       	sbc	r17, r1
     d76:	01 15       	cp	r16, r1
     d78:	11 05       	cpc	r17, r1
     d7a:	59 f7       	brne	.-42     	; 0xd52 <Test_Mode+0x294>
     d7c:	08 e0       	ldi	r16, 0x08	; 8
     d7e:	10 e0       	ldi	r17, 0x00	; 0
     d80:	ee 24       	eor	r14, r14
     d82:	e3 94       	inc	r14
     d84:	f1 2c       	mov	r15, r1
	       }
	       
	       /* from right to left */
	       for (uint16_t x = 1 ; x <= 255 ; x = x * 2)
	       {
		       VRAM[4] = x;
     d86:	f1 01       	movw	r30, r2
     d88:	f1 82       	std	Z+1, r15	; 0x01
     d8a:	e0 82       	st	Z, r14
     d8c:	ff ef       	ldi	r31, 0xFF	; 255
     d8e:	21 ee       	ldi	r18, 0xE1	; 225
     d90:	84 e0       	ldi	r24, 0x04	; 4
     d92:	f1 50       	subi	r31, 0x01	; 1
     d94:	20 40       	sbci	r18, 0x00	; 0
     d96:	80 40       	sbci	r24, 0x00	; 0
     d98:	e1 f7       	brne	.-8      	; 0xd92 <Test_Mode+0x2d4>
     d9a:	00 c0       	rjmp	.+0      	; 0xd9c <Test_Mode+0x2de>
     d9c:	00 00       	nop
		       _delay_ms(100);
		       clear_screen();
     d9e:	0e 94 07 03 	call	0x60e	; 0x60e <clear_screen>
		       _delay_ms(100);
		       clear_screen();
	       }
	       
	       /* from right to left */
	       for (uint16_t x = 1 ; x <= 255 ; x = x * 2)
     da2:	ee 0c       	add	r14, r14
     da4:	ff 1c       	adc	r15, r15
     da6:	01 50       	subi	r16, 0x01	; 1
     da8:	11 09       	sbc	r17, r1
     daa:	01 15       	cp	r16, r1
     dac:	11 05       	cpc	r17, r1
     dae:	59 f7       	brne	.-42     	; 0xd86 <Test_Mode+0x2c8>
     db0:	08 e0       	ldi	r16, 0x08	; 8
     db2:	10 e0       	ldi	r17, 0x00	; 0
     db4:	68 94       	set
     db6:	ee 24       	eor	r14, r14
     db8:	e7 f8       	bld	r14, 7
     dba:	f1 2c       	mov	r15, r1
	       }
	       
	       /* from left to right */
	       for (uint16_t x = 128 ; x >= 1 ; x = x / 2)
	       {
		       VRAM[5] = x;
     dbc:	ee ef       	ldi	r30, 0xFE	; 254
     dbe:	f1 e0       	ldi	r31, 0x01	; 1
     dc0:	f1 82       	std	Z+1, r15	; 0x01
     dc2:	e0 82       	st	Z, r14
     dc4:	ff ef       	ldi	r31, 0xFF	; 255
     dc6:	21 ee       	ldi	r18, 0xE1	; 225
     dc8:	84 e0       	ldi	r24, 0x04	; 4
     dca:	f1 50       	subi	r31, 0x01	; 1
     dcc:	20 40       	sbci	r18, 0x00	; 0
     dce:	80 40       	sbci	r24, 0x00	; 0
     dd0:	e1 f7       	brne	.-8      	; 0xdca <Test_Mode+0x30c>
     dd2:	00 c0       	rjmp	.+0      	; 0xdd4 <Test_Mode+0x316>
     dd4:	00 00       	nop
		       _delay_ms(100);
		       clear_screen();
     dd6:	0e 94 07 03 	call	0x60e	; 0x60e <clear_screen>
		       _delay_ms(100);
		       clear_screen();
	       }
	       
	       /* from left to right */
	       for (uint16_t x = 128 ; x >= 1 ; x = x / 2)
     dda:	f6 94       	lsr	r15
     ddc:	e7 94       	ror	r14
     dde:	01 50       	subi	r16, 0x01	; 1
     de0:	11 09       	sbc	r17, r1
     de2:	01 15       	cp	r16, r1
     de4:	11 05       	cpc	r17, r1
     de6:	51 f7       	brne	.-44     	; 0xdbc <Test_Mode+0x2fe>
     de8:	08 e0       	ldi	r16, 0x08	; 8
     dea:	10 e0       	ldi	r17, 0x00	; 0
     dec:	ee 24       	eor	r14, r14
     dee:	e3 94       	inc	r14
     df0:	f1 2c       	mov	r15, r1
	       }
	       
	       /* from right to left */
	       for (uint16_t x = 1 ; x <= 255 ; x = x * 2)
	       {
		       VRAM[6] = x;
     df2:	0f 2e       	mov	r0, r31
     df4:	f0 e0       	ldi	r31, 0x00	; 0
     df6:	8f 2e       	mov	r8, r31
     df8:	f2 e0       	ldi	r31, 0x02	; 2
     dfa:	9f 2e       	mov	r9, r31
     dfc:	f0 2d       	mov	r31, r0
     dfe:	f4 01       	movw	r30, r8
     e00:	f1 82       	std	Z+1, r15	; 0x01
     e02:	e0 82       	st	Z, r14
     e04:	ff ef       	ldi	r31, 0xFF	; 255
     e06:	21 ee       	ldi	r18, 0xE1	; 225
     e08:	84 e0       	ldi	r24, 0x04	; 4
     e0a:	f1 50       	subi	r31, 0x01	; 1
     e0c:	20 40       	sbci	r18, 0x00	; 0
     e0e:	80 40       	sbci	r24, 0x00	; 0
     e10:	e1 f7       	brne	.-8      	; 0xe0a <Test_Mode+0x34c>
     e12:	00 c0       	rjmp	.+0      	; 0xe14 <Test_Mode+0x356>
     e14:	00 00       	nop
		       _delay_ms(100);
		       clear_screen();
     e16:	0e 94 07 03 	call	0x60e	; 0x60e <clear_screen>
		       _delay_ms(100);
		       clear_screen();
	       }
	       
	       /* from right to left */
	       for (uint16_t x = 1 ; x <= 255 ; x = x * 2)
     e1a:	ee 0c       	add	r14, r14
     e1c:	ff 1c       	adc	r15, r15
     e1e:	01 50       	subi	r16, 0x01	; 1
     e20:	11 09       	sbc	r17, r1
     e22:	01 15       	cp	r16, r1
     e24:	11 05       	cpc	r17, r1
     e26:	59 f7       	brne	.-42     	; 0xdfe <Test_Mode+0x340>
     e28:	08 e0       	ldi	r16, 0x08	; 8
     e2a:	10 e0       	ldi	r17, 0x00	; 0
     e2c:	68 94       	set
     e2e:	ee 24       	eor	r14, r14
     e30:	e7 f8       	bld	r14, 7
     e32:	f1 2c       	mov	r15, r1
	       }
	       
	       /* from left to right */
	       for (uint16_t x = 128 ; x >= 1 ; x = x / 2)
	       {
		       VRAM[7] = x;
     e34:	0f 2e       	mov	r0, r31
     e36:	f2 e0       	ldi	r31, 0x02	; 2
     e38:	8f 2e       	mov	r8, r31
     e3a:	f2 e0       	ldi	r31, 0x02	; 2
     e3c:	9f 2e       	mov	r9, r31
     e3e:	f0 2d       	mov	r31, r0
     e40:	f4 01       	movw	r30, r8
     e42:	f1 82       	std	Z+1, r15	; 0x01
     e44:	e0 82       	st	Z, r14
     e46:	ff ef       	ldi	r31, 0xFF	; 255
     e48:	21 ee       	ldi	r18, 0xE1	; 225
     e4a:	84 e0       	ldi	r24, 0x04	; 4
     e4c:	f1 50       	subi	r31, 0x01	; 1
     e4e:	20 40       	sbci	r18, 0x00	; 0
     e50:	80 40       	sbci	r24, 0x00	; 0
     e52:	e1 f7       	brne	.-8      	; 0xe4c <Test_Mode+0x38e>
     e54:	00 c0       	rjmp	.+0      	; 0xe56 <Test_Mode+0x398>
     e56:	00 00       	nop
		       _delay_ms(100);
		       clear_screen();
     e58:	0e 94 07 03 	call	0x60e	; 0x60e <clear_screen>
		       _delay_ms(100);
		       clear_screen();
	       }
	       
	       /* from left to right */
	       for (uint16_t x = 128 ; x >= 1 ; x = x / 2)
     e5c:	f6 94       	lsr	r15
     e5e:	e7 94       	ror	r14
     e60:	01 50       	subi	r16, 0x01	; 1
     e62:	11 09       	sbc	r17, r1
     e64:	01 15       	cp	r16, r1
     e66:	11 05       	cpc	r17, r1
     e68:	59 f7       	brne	.-42     	; 0xe40 <Test_Mode+0x382>
	LIVE_LED_OFF;
	clear_screen();
	_delay_ms(1000);
	

       while (!(SWITCH_ONE_PRESSED))
     e6a:	cb 9b       	sbis	0x19, 3	; 25
     e6c:	06 c0       	rjmp	.+12     	; 0xe7a <Test_Mode+0x3bc>
     e6e:	08 e0       	ldi	r16, 0x08	; 8
     e70:	10 e0       	ldi	r17, 0x00	; 0
     e72:	ee 24       	eor	r14, r14
     e74:	e3 94       	inc	r14
     e76:	f1 2c       	mov	r15, r1
     e78:	1c cf       	rjmp	.-456    	; 0xcb2 <Test_Mode+0x1f4>
		       _delay_ms(100);
		       clear_screen();
	       }
	       
       }
       ENABLE_25ms_ISR;
     e7a:	89 b7       	in	r24, 0x39	; 57
     e7c:	80 61       	ori	r24, 0x10	; 16
     e7e:	89 bf       	out	0x39, r24	; 57
	   counter_for_Test_Mode = 0;
     e80:	10 92 8d 02 	sts	0x028D, r1
     e84:	10 92 8c 02 	sts	0x028C, r1
}
     e88:	61 96       	adiw	r28, 0x11	; 17
     e8a:	0f b6       	in	r0, 0x3f	; 63
     e8c:	f8 94       	cli
     e8e:	de bf       	out	0x3e, r29	; 62
     e90:	0f be       	out	0x3f, r0	; 63
     e92:	cd bf       	out	0x3d, r28	; 61
     e94:	df 91       	pop	r29
     e96:	cf 91       	pop	r28
     e98:	1f 91       	pop	r17
     e9a:	0f 91       	pop	r16
     e9c:	ff 90       	pop	r15
     e9e:	ef 90       	pop	r14
     ea0:	df 90       	pop	r13
     ea2:	cf 90       	pop	r12
     ea4:	bf 90       	pop	r11
     ea6:	af 90       	pop	r10
     ea8:	9f 90       	pop	r9
     eaa:	8f 90       	pop	r8
     eac:	7f 90       	pop	r7
     eae:	6f 90       	pop	r6
     eb0:	5f 90       	pop	r5
     eb2:	4f 90       	pop	r4
     eb4:	3f 90       	pop	r3
     eb6:	2f 90       	pop	r2
     eb8:	08 95       	ret

00000eba <go_sleep>:
	com74hc595_out();
}

/* sleep Mode */
void go_sleep(void)
{
     eba:	ef 92       	push	r14
     ebc:	ff 92       	push	r15
     ebe:	0f 93       	push	r16
     ec0:	1f 93       	push	r17
     ec2:	cf 93       	push	r28
     ec4:	df 93       	push	r29
     ec6:	cd b7       	in	r28, 0x3d	; 61
     ec8:	de b7       	in	r29, 0x3e	; 62
     eca:	2d 97       	sbiw	r28, 0x0d	; 13
     ecc:	0f b6       	in	r0, 0x3f	; 63
     ece:	f8 94       	cli
     ed0:	de bf       	out	0x3e, r29	; 62
     ed2:	0f be       	out	0x3f, r0	; 63
     ed4:	cd bf       	out	0x3d, r28	; 61
	/* all LED´s & 8 x 8 pixel off */
	all_LED_OFF();
     ed6:	0e 94 5a 05 	call	0xab4	; 0xab4 <all_LED_OFF>
	LIVE_LED_OFF;
     eda:	d9 9a       	sbi	0x1b, 1	; 27
	
	/* setzt die Flag zurück, damit der LED_Status nicht hoch- oder runtergezählt wird */
	Switch_One_Flag = 0;
     edc:	10 92 44 02 	sts	0x0244, r1
	Switch_Two_Flag = 0;
     ee0:	10 92 45 02 	sts	0x0245, r1
	
#ifdef WITH_SLEEP_INFO
	
	DISABLE_25ms_ISR;
     ee4:	89 b7       	in	r24, 0x39	; 57
     ee6:	8f 7e       	andi	r24, 0xEF	; 239
     ee8:	89 bf       	out	0x39, r24	; 57
	char s[] = " Sleep";
     eea:	87 e0       	ldi	r24, 0x07	; 7
     eec:	ea e9       	ldi	r30, 0x9A	; 154
     eee:	f0 e0       	ldi	r31, 0x00	; 0
     ef0:	de 01       	movw	r26, r28
     ef2:	11 96       	adiw	r26, 0x01	; 1
     ef4:	01 90       	ld	r0, Z+
     ef6:	0d 92       	st	X+, r0
     ef8:	8a 95       	dec	r24
     efa:	e1 f7       	brne	.-8      	; 0xef4 <go_sleep+0x3a>
		
	for (uint16_t x=0; x<(strlen(s)*8); x++)
     efc:	00 e0       	ldi	r16, 0x00	; 0
     efe:	10 e0       	ldi	r17, 0x00	; 0
     f00:	ce 01       	movw	r24, r28
     f02:	01 96       	adiw	r24, 0x01	; 1
     f04:	7c 01       	movw	r14, r24
     f06:	0f c0       	rjmp	.+30     	; 0xf26 <go_sleep+0x6c>
	{
		DisplayString(x, s);
     f08:	b7 01       	movw	r22, r14
     f0a:	c8 01       	movw	r24, r16
     f0c:	0e 94 4f 04 	call	0x89e	; 0x89e <DisplayString>
     f10:	9f ef       	ldi	r25, 0xFF	; 255
     f12:	21 ee       	ldi	r18, 0xE1	; 225
     f14:	84 e0       	ldi	r24, 0x04	; 4
     f16:	91 50       	subi	r25, 0x01	; 1
     f18:	20 40       	sbci	r18, 0x00	; 0
     f1a:	80 40       	sbci	r24, 0x00	; 0
     f1c:	e1 f7       	brne	.-8      	; 0xf16 <go_sleep+0x5c>
     f1e:	00 c0       	rjmp	.+0      	; 0xf20 <go_sleep+0x66>
     f20:	00 00       	nop
#ifdef WITH_SLEEP_INFO
	
	DISABLE_25ms_ISR;
	char s[] = " Sleep";
		
	for (uint16_t x=0; x<(strlen(s)*8); x++)
     f22:	0f 5f       	subi	r16, 0xFF	; 255
     f24:	1f 4f       	sbci	r17, 0xFF	; 255
     f26:	f7 01       	movw	r30, r14
     f28:	01 90       	ld	r0, Z+
     f2a:	00 20       	and	r0, r0
     f2c:	e9 f7       	brne	.-6      	; 0xf28 <go_sleep+0x6e>
     f2e:	31 97       	sbiw	r30, 0x01	; 1
     f30:	ee 19       	sub	r30, r14
     f32:	ff 09       	sbc	r31, r15
     f34:	ee 0f       	add	r30, r30
     f36:	ff 1f       	adc	r31, r31
     f38:	ee 0f       	add	r30, r30
     f3a:	ff 1f       	adc	r31, r31
     f3c:	ee 0f       	add	r30, r30
     f3e:	ff 1f       	adc	r31, r31
     f40:	0e 17       	cp	r16, r30
     f42:	1f 07       	cpc	r17, r31
     f44:	08 f3       	brcs	.-62     	; 0xf08 <go_sleep+0x4e>
     f46:	9f ef       	ldi	r25, 0xFF	; 255
     f48:	21 ee       	ldi	r18, 0xE1	; 225
     f4a:	84 e0       	ldi	r24, 0x04	; 4
     f4c:	91 50       	subi	r25, 0x01	; 1
     f4e:	20 40       	sbci	r18, 0x00	; 0
     f50:	80 40       	sbci	r24, 0x00	; 0
     f52:	e1 f7       	brne	.-8      	; 0xf4c <go_sleep+0x92>
     f54:	00 c0       	rjmp	.+0      	; 0xf56 <go_sleep+0x9c>
     f56:	00 00       	nop
	}

#endif	
	
	_delay_ms(100);
	clear_screen();
     f58:	0e 94 07 03 	call	0x60e	; 0x60e <clear_screen>
	
	/* disable a part of X- Mas Tree Hardware */
	SWITCH_OFF_595;
     f5c:	dc 98       	cbi	0x1b, 4	; 27
	
	/* disable the ADC Unit ( save 330nA ) */
	Disable_ADC();
     f5e:	0e 94 1b 02 	call	0x436	; 0x436 <Disable_ADC>
		
	/* choose the sleep mode */
	set_sleep_mode(SLEEP_MODE_PWR_DOWN);
     f62:	85 b7       	in	r24, 0x35	; 53
     f64:	8f 78       	andi	r24, 0x8F	; 143
     f66:	80 62       	ori	r24, 0x20	; 32
     f68:	85 bf       	out	0x35, r24	; 53
	
	/* set the DDRx´s as Input */
 	DDRA &= ~(0xFF);
     f6a:	8a b3       	in	r24, 0x1a	; 26
     f6c:	1a ba       	out	0x1a, r1	; 26
 	DDRD &= ~(0xFF);
     f6e:	81 b3       	in	r24, 0x11	; 17
     f70:	11 ba       	out	0x11, r1	; 17

	/* enable the INT0 Interrupt */
	INTERRUPT_INT0_ENABLE;
     f72:	8b b7       	in	r24, 0x3b	; 59
     f74:	80 64       	ori	r24, 0x40	; 64
     f76:	8b bf       	out	0x3b, r24	; 59
     f78:	8a ef       	ldi	r24, 0xFA	; 250
	
	/* short delay for initialize the DDR´s */
	for (uint8_t x = 0 ; x < 250 ; x++)
	
	/* enable the sleep mode */
	sleep_enable();
     f7a:	95 b7       	in	r25, 0x35	; 53
     f7c:	90 68       	ori	r25, 0x80	; 128
     f7e:	95 bf       	out	0x35, r25	; 53
     f80:	81 50       	subi	r24, 0x01	; 1

	/* enable the INT0 Interrupt */
	INTERRUPT_INT0_ENABLE;
	
	/* short delay for initialize the DDR´s */
	for (uint8_t x = 0 ; x < 250 ; x++)
     f82:	d9 f7       	brne	.-10     	; 0xf7a <go_sleep+0xc0>
	
	/* enable the sleep mode */
	sleep_enable();
	
	/* CPU go sleep */
	sleep_cpu();
     f84:	88 95       	sleep
	
	/* if a Interrupt, then exit the sleep mode */
	sleep_disable();
     f86:	85 b7       	in	r24, 0x35	; 53
     f88:	8f 77       	andi	r24, 0x7F	; 127
     f8a:	85 bf       	out	0x35, r24	; 53
     f8c:	8a ef       	ldi	r24, 0xFA	; 250
	
	/* short delay for initialize the DDR´s */
	for (uint8_t x = 0 ; x < 250 ; x++)

	/* Config the DDRx Register */
	DDRA |= ((1<<PA1) | (1<<PA4));
     f8e:	9a b3       	in	r25, 0x1a	; 26
     f90:	92 61       	ori	r25, 0x12	; 18
     f92:	9a bb       	out	0x1a, r25	; 26
     f94:	81 50       	subi	r24, 0x01	; 1
	
	/* if a Interrupt, then exit the sleep mode */
	sleep_disable();
	
	/* short delay for initialize the DDR´s */
	for (uint8_t x = 0 ; x < 250 ; x++)
     f96:	d9 f7       	brne	.-10     	; 0xf8e <go_sleep+0xd4>

	/* Config the DDRx Register */
	DDRA |= ((1<<PA1) | (1<<PA4));
	DDRC |= ((1<<PC0) | (1<<PC1) | (1<<PC2) | (1<<PC3) | (1<<PC4) | (1<<PC5) | (1<<PC6) | (1<<PC7));
     f98:	84 b3       	in	r24, 0x14	; 20
     f9a:	8f ef       	ldi	r24, 0xFF	; 255
     f9c:	84 bb       	out	0x14, r24	; 20
	DDRB |= ((1<<PB0) | (1<<PB1) | (1<<PB2) | (1<<PB3) | (1<<PB4) | (1<<PB5) | (1<<PB6) | (1<<PB7));
     f9e:	97 b3       	in	r25, 0x17	; 23
     fa0:	87 bb       	out	0x17, r24	; 23
	DDRD |= ((1<<PD7));
     fa2:	8f 9a       	sbi	0x11, 7	; 17
	
	/* MR Pin from 595´er @ high level */
	MR_HIGH;
     fa4:	97 9a       	sbi	0x12, 7	; 18
	
	/* enable a part of Hardware */
	SWITCH_ON_595;
     fa6:	dc 9a       	sbi	0x1b, 4	; 27
	
	/* Initialize the ADC Unit */
	init_ADC();
     fa8:	0e 94 0a 02 	call	0x414	; 0x414 <init_ADC>
	
	/* Initialize the Pins for the 595´ ers */
	com74hc595_init();
     fac:	0e 94 ff 01 	call	0x3fe	; 0x3fe <com74hc595_init>
	
	
	
	/* disable Interrupt "INT0" */
	INTERRUPT_INT0_DISABLE;
     fb0:	8b b7       	in	r24, 0x3b	; 59
     fb2:	8f 7b       	andi	r24, 0xBF	; 191
     fb4:	8b bf       	out	0x3b, r24	; 59

	/* set the variable @ "0" */
	Sleep_Counter = 0;	
     fb6:	10 92 7b 02 	sts	0x027B, r1
     fba:	10 92 7c 02 	sts	0x027C, r1
     fbe:	10 92 7d 02 	sts	0x027D, r1
     fc2:	10 92 7e 02 	sts	0x027E, r1
	Long_Key_Pressed = 0;
     fc6:	10 92 27 02 	sts	0x0227, r1
     fca:	10 92 26 02 	sts	0x0226, r1
	Counter_For_Display = 0;
     fce:	10 92 66 02 	sts	0x0266, r1
     fd2:	10 92 65 02 	sts	0x0265, r1
		
#ifdef WITH_SLEEP_INFO
	
	char a[] = " Live";
     fd6:	86 e0       	ldi	r24, 0x06	; 6
     fd8:	e1 ea       	ldi	r30, 0xA1	; 161
     fda:	f0 e0       	ldi	r31, 0x00	; 0
     fdc:	de 01       	movw	r26, r28
     fde:	18 96       	adiw	r26, 0x08	; 8
     fe0:	01 90       	ld	r0, Z+
     fe2:	0d 92       	st	X+, r0
     fe4:	8a 95       	dec	r24
     fe6:	e1 f7       	brne	.-8      	; 0xfe0 <go_sleep+0x126>
	
	for (uint16_t x=0; x<(strlen(a)*8); x++)
     fe8:	00 e0       	ldi	r16, 0x00	; 0
     fea:	10 e0       	ldi	r17, 0x00	; 0
     fec:	7e 01       	movw	r14, r28
     fee:	98 e0       	ldi	r25, 0x08	; 8
     ff0:	e9 0e       	add	r14, r25
     ff2:	f1 1c       	adc	r15, r1
     ff4:	0f c0       	rjmp	.+30     	; 0x1014 <go_sleep+0x15a>
	{
		DisplayString(x, a);
     ff6:	b7 01       	movw	r22, r14
     ff8:	c8 01       	movw	r24, r16
     ffa:	0e 94 4f 04 	call	0x89e	; 0x89e <DisplayString>
     ffe:	2f ef       	ldi	r18, 0xFF	; 255
    1000:	81 ee       	ldi	r24, 0xE1	; 225
    1002:	94 e0       	ldi	r25, 0x04	; 4
    1004:	21 50       	subi	r18, 0x01	; 1
    1006:	80 40       	sbci	r24, 0x00	; 0
    1008:	90 40       	sbci	r25, 0x00	; 0
    100a:	e1 f7       	brne	.-8      	; 0x1004 <go_sleep+0x14a>
    100c:	00 c0       	rjmp	.+0      	; 0x100e <go_sleep+0x154>
    100e:	00 00       	nop
		
#ifdef WITH_SLEEP_INFO
	
	char a[] = " Live";
	
	for (uint16_t x=0; x<(strlen(a)*8); x++)
    1010:	0f 5f       	subi	r16, 0xFF	; 255
    1012:	1f 4f       	sbci	r17, 0xFF	; 255
    1014:	f7 01       	movw	r30, r14
    1016:	01 90       	ld	r0, Z+
    1018:	00 20       	and	r0, r0
    101a:	e9 f7       	brne	.-6      	; 0x1016 <go_sleep+0x15c>
    101c:	31 97       	sbiw	r30, 0x01	; 1
    101e:	ee 19       	sub	r30, r14
    1020:	ff 09       	sbc	r31, r15
    1022:	ee 0f       	add	r30, r30
    1024:	ff 1f       	adc	r31, r31
    1026:	ee 0f       	add	r30, r30
    1028:	ff 1f       	adc	r31, r31
    102a:	ee 0f       	add	r30, r30
    102c:	ff 1f       	adc	r31, r31
    102e:	0e 17       	cp	r16, r30
    1030:	1f 07       	cpc	r17, r31
    1032:	08 f3       	brcs	.-62     	; 0xff6 <go_sleep+0x13c>
	{
		DisplayString(x, a);
		_delay_ms(100);
	}
	
	ENABLE_25ms_ISR;
    1034:	89 b7       	in	r24, 0x39	; 57
    1036:	80 61       	ori	r24, 0x10	; 16
    1038:	89 bf       	out	0x39, r24	; 57

	
	/* Irgendeine Zahl, damit der Menuepunkt neu konfiguriert wird */
	while (LED_Status == LED_Status_Old)
    103a:	20 91 28 02 	lds	r18, 0x0228
    103e:	30 91 29 02 	lds	r19, 0x0229
    1042:	80 91 5e 02 	lds	r24, 0x025E
    1046:	90 91 5f 02 	lds	r25, 0x025F
    104a:	28 17       	cp	r18, r24
    104c:	39 07       	cpc	r19, r25
    104e:	b9 f4       	brne	.+46     	; 0x107e <go_sleep+0x1c4>
	{
		LED_Status_Old = (rand() % 20)+10;
    1050:	04 e1       	ldi	r16, 0x14	; 20
    1052:	10 e0       	ldi	r17, 0x00	; 0
    1054:	0e 94 1e 36 	call	0x6c3c	; 0x6c3c <rand>
    1058:	b8 01       	movw	r22, r16
    105a:	0e 94 a2 35 	call	0x6b44	; 0x6b44 <__divmodhi4>
    105e:	0a 96       	adiw	r24, 0x0a	; 10
    1060:	90 93 5f 02 	sts	0x025F, r25
    1064:	80 93 5e 02 	sts	0x025E, r24
	
	ENABLE_25ms_ISR;

	
	/* Irgendeine Zahl, damit der Menuepunkt neu konfiguriert wird */
	while (LED_Status == LED_Status_Old)
    1068:	20 91 28 02 	lds	r18, 0x0228
    106c:	30 91 29 02 	lds	r19, 0x0229
    1070:	80 91 5e 02 	lds	r24, 0x025E
    1074:	90 91 5f 02 	lds	r25, 0x025F
    1078:	28 17       	cp	r18, r24
    107a:	39 07       	cpc	r19, r25
    107c:	59 f3       	breq	.-42     	; 0x1054 <go_sleep+0x19a>
	
	
#endif
	

}
    107e:	2d 96       	adiw	r28, 0x0d	; 13
    1080:	0f b6       	in	r0, 0x3f	; 63
    1082:	f8 94       	cli
    1084:	de bf       	out	0x3e, r29	; 62
    1086:	0f be       	out	0x3f, r0	; 63
    1088:	cd bf       	out	0x3d, r28	; 61
    108a:	df 91       	pop	r29
    108c:	cf 91       	pop	r28
    108e:	1f 91       	pop	r17
    1090:	0f 91       	pop	r16
    1092:	ff 90       	pop	r15
    1094:	ef 90       	pop	r14
    1096:	08 95       	ret

00001098 <LED_Fading>:
	
}

/* fading all LED´s */
void LED_Fading(uint16_t Fading_Time_Down, uint16_t fading_time_up)
{	
    1098:	0f 93       	push	r16
    109a:	1f 93       	push	r17
    109c:	cf 93       	push	r28
    109e:	df 93       	push	r29
    10a0:	8c 01       	movw	r16, r24
    10a2:	eb 01       	movw	r28, r22
	if (LED_Status != LED_Status_Old)
    10a4:	20 91 28 02 	lds	r18, 0x0228
    10a8:	30 91 29 02 	lds	r19, 0x0229
    10ac:	80 91 5e 02 	lds	r24, 0x025E
    10b0:	90 91 5f 02 	lds	r25, 0x025F
    10b4:	28 17       	cp	r18, r24
    10b6:	39 07       	cpc	r19, r25
    10b8:	99 f1       	breq	.+102    	; 0x1120 <LED_Fading+0x88>
	{
		Brightness = 1;
    10ba:	81 e0       	ldi	r24, 0x01	; 1
    10bc:	90 e0       	ldi	r25, 0x00	; 0
    10be:	90 93 71 00 	sts	0x0071, r25
    10c2:	80 93 70 00 	sts	0x0070, r24
		LED_Status_Old = LED_Status;
    10c6:	80 91 28 02 	lds	r24, 0x0228
    10ca:	90 91 29 02 	lds	r25, 0x0229
    10ce:	90 93 5f 02 	sts	0x025F, r25
    10d2:	80 93 5e 02 	sts	0x025E, r24
		
		/* save the actual "LED Status" */
		eeprom_write_byte(&EEPROM_save_LED_Status, LED_Status);
    10d6:	60 91 28 02 	lds	r22, 0x0228
    10da:	70 91 29 02 	lds	r23, 0x0229
    10de:	80 e0       	ldi	r24, 0x00	; 0
    10e0:	90 e0       	ldi	r25, 0x00	; 0
    10e2:	0e 94 36 36 	call	0x6c6c	; 0x6c6c <__eewr_byte_m32>
		
		all_LED_OFF();
    10e6:	0e 94 5a 05 	call	0xab4	; 0xab4 <all_LED_OFF>
		Counter_For_Brightness_1 = 0;
    10ea:	10 92 3a 02 	sts	0x023A, r1
    10ee:	10 92 39 02 	sts	0x0239, r1
		Brightness_Flag_1 = 2;
    10f2:	82 e0       	ldi	r24, 0x02	; 2
    10f4:	90 e0       	ldi	r25, 0x00	; 0
    10f6:	90 93 64 02 	sts	0x0264, r25
    10fa:	80 93 63 02 	sts	0x0263, r24
		Counter_For_Display = 0;
    10fe:	10 92 66 02 	sts	0x0266, r1
    1102:	10 92 65 02 	sts	0x0265, r1
		counter_for_change_accu_symbol = 0;	
    1106:	10 92 43 02 	sts	0x0243, r1
    110a:	10 92 42 02 	sts	0x0242, r1
		if (LED_Status != 12)
    110e:	80 91 28 02 	lds	r24, 0x0228
    1112:	90 91 29 02 	lds	r25, 0x0229
    1116:	0c 97       	sbiw	r24, 0x0c	; 12
    1118:	19 f0       	breq	.+6      	; 0x1120 <LED_Fading+0x88>
		{
			Display_a_Character(6);
    111a:	86 e0       	ldi	r24, 0x06	; 6
    111c:	0e 94 f3 04 	call	0x9e6	; 0x9e6 <Display_a_Character>
		}			
			
	}
	
	Counter ++;
    1120:	80 91 56 02 	lds	r24, 0x0256
    1124:	90 91 57 02 	lds	r25, 0x0257
    1128:	01 96       	adiw	r24, 0x01	; 1
    112a:	90 93 57 02 	sts	0x0257, r25
    112e:	80 93 56 02 	sts	0x0256, r24
	Counter_For_Brightness_1++;
    1132:	80 91 39 02 	lds	r24, 0x0239
    1136:	90 91 3a 02 	lds	r25, 0x023A
    113a:	01 96       	adiw	r24, 0x01	; 1
    113c:	90 93 3a 02 	sts	0x023A, r25
    1140:	80 93 39 02 	sts	0x0239, r24
		
	
	if (Brightness == 15)
    1144:	20 91 70 00 	lds	r18, 0x0070
    1148:	30 91 71 00 	lds	r19, 0x0071
    114c:	2f 30       	cpi	r18, 0x0F	; 15
    114e:	31 05       	cpc	r19, r1
    1150:	31 f4       	brne	.+12     	; 0x115e <LED_Fading+0xc6>
	{
		Brightness_Flag_1 = 1;
    1152:	81 e0       	ldi	r24, 0x01	; 1
    1154:	90 e0       	ldi	r25, 0x00	; 0
    1156:	90 93 64 02 	sts	0x0264, r25
    115a:	80 93 63 02 	sts	0x0263, r24
	}
	if (Brightness == 1)
    115e:	20 91 70 00 	lds	r18, 0x0070
    1162:	30 91 71 00 	lds	r19, 0x0071
    1166:	21 30       	cpi	r18, 0x01	; 1
    1168:	31 05       	cpc	r19, r1
    116a:	31 f4       	brne	.+12     	; 0x1178 <LED_Fading+0xe0>
	{
		Brightness_Flag_1 = 2;
    116c:	82 e0       	ldi	r24, 0x02	; 2
    116e:	90 e0       	ldi	r25, 0x00	; 0
    1170:	90 93 64 02 	sts	0x0264, r25
    1174:	80 93 63 02 	sts	0x0263, r24
	}
	
	
	
	/* fading "down" */	
	if (Brightness_Flag_1 == 1)
    1178:	20 91 63 02 	lds	r18, 0x0263
    117c:	30 91 64 02 	lds	r19, 0x0264
    1180:	21 30       	cpi	r18, 0x01	; 1
    1182:	31 05       	cpc	r19, r1
    1184:	a1 f4       	brne	.+40     	; 0x11ae <LED_Fading+0x116>
	{
		if (Counter_For_Brightness_1 == Fading_Time_Down)
    1186:	80 91 39 02 	lds	r24, 0x0239
    118a:	90 91 3a 02 	lds	r25, 0x023A
    118e:	80 17       	cp	r24, r16
    1190:	91 07       	cpc	r25, r17
    1192:	69 f4       	brne	.+26     	; 0x11ae <LED_Fading+0x116>
		{
			Counter_For_Brightness_1 = 0;
    1194:	10 92 3a 02 	sts	0x023A, r1
    1198:	10 92 39 02 	sts	0x0239, r1
			Brightness --;
    119c:	80 91 70 00 	lds	r24, 0x0070
    11a0:	90 91 71 00 	lds	r25, 0x0071
    11a4:	01 97       	sbiw	r24, 0x01	; 1
    11a6:	90 93 71 00 	sts	0x0071, r25
    11aa:	80 93 70 00 	sts	0x0070, r24
		}
	}
	
	
	/* fading "up" */	
	if (Brightness_Flag_1 == 2)
    11ae:	80 91 63 02 	lds	r24, 0x0263
    11b2:	90 91 64 02 	lds	r25, 0x0264
    11b6:	02 97       	sbiw	r24, 0x02	; 2
    11b8:	a1 f4       	brne	.+40     	; 0x11e2 <LED_Fading+0x14a>
	{
		if (Counter_For_Brightness_1 == fading_time_up)
    11ba:	80 91 39 02 	lds	r24, 0x0239
    11be:	90 91 3a 02 	lds	r25, 0x023A
    11c2:	8c 17       	cp	r24, r28
    11c4:	9d 07       	cpc	r25, r29
    11c6:	69 f4       	brne	.+26     	; 0x11e2 <LED_Fading+0x14a>
		{
			Counter_For_Brightness_1 = 0;
    11c8:	10 92 3a 02 	sts	0x023A, r1
    11cc:	10 92 39 02 	sts	0x0239, r1
			Brightness ++;
    11d0:	80 91 70 00 	lds	r24, 0x0070
    11d4:	90 91 71 00 	lds	r25, 0x0071
    11d8:	01 96       	adiw	r24, 0x01	; 1
    11da:	90 93 71 00 	sts	0x0071, r25
    11de:	80 93 70 00 	sts	0x0070, r24
		}
	}

	/* PWM routine */
	if (Counter >= 60)
    11e2:	80 91 56 02 	lds	r24, 0x0256
    11e6:	90 91 57 02 	lds	r25, 0x0257
    11ea:	cc 97       	sbiw	r24, 0x3c	; 60
    11ec:	68 f0       	brcs	.+26     	; 0x1208 <LED_Fading+0x170>
	{
		Counter = 0;
    11ee:	10 92 57 02 	sts	0x0257, r1
    11f2:	10 92 56 02 	sts	0x0256, r1
		
		if (Brightness > 0)
    11f6:	80 91 70 00 	lds	r24, 0x0070
    11fa:	90 91 71 00 	lds	r25, 0x0071
    11fe:	89 2b       	or	r24, r25
    1200:	81 f0       	breq	.+32     	; 0x1222 <LED_Fading+0x18a>
		{
			com74hc595_setall();
    1202:	0e 94 c4 01 	call	0x388	; 0x388 <com74hc595_setall>
    1206:	0d c0       	rjmp	.+26     	; 0x1222 <LED_Fading+0x18a>
		}
	}
	else
	{
		if (Counter >= Brightness)
    1208:	20 91 56 02 	lds	r18, 0x0256
    120c:	30 91 57 02 	lds	r19, 0x0257
    1210:	80 91 70 00 	lds	r24, 0x0070
    1214:	90 91 71 00 	lds	r25, 0x0071
    1218:	28 17       	cp	r18, r24
    121a:	39 07       	cpc	r19, r25
    121c:	10 f0       	brcs	.+4      	; 0x1222 <LED_Fading+0x18a>
		{
			com74hc595_unsetall();
    121e:	0e 94 d1 01 	call	0x3a2	; 0x3a2 <com74hc595_unsetall>
		}
	}
	com74hc595_out();	
    1222:	0e 94 e9 01 	call	0x3d2	; 0x3d2 <com74hc595_out>
}
    1226:	df 91       	pop	r29
    1228:	cf 91       	pop	r28
    122a:	1f 91       	pop	r17
    122c:	0f 91       	pop	r16
    122e:	08 95       	ret

00001230 <Raindrop_Simulation_1>:

/* simulated raindrops Version "1" */
void Raindrop_Simulation_1(uint8_t Bright_1, uint8_t Bright_2, uint8_t Bright_3, uint8_t Bright_4, uint8_t Bright_5, uint8_t Bright_6, uint8_t Bright_7, uint8_t Bright_8)
{	
    1230:	af 92       	push	r10
    1232:	bf 92       	push	r11
    1234:	cf 92       	push	r12
    1236:	df 92       	push	r13
    1238:	ef 92       	push	r14
    123a:	ff 92       	push	r15
    123c:	0f 93       	push	r16
    123e:	1f 93       	push	r17
    1240:	cf 93       	push	r28
    1242:	df 93       	push	r29
    1244:	b8 2e       	mov	r11, r24
    1246:	d6 2e       	mov	r13, r22
    1248:	f4 2e       	mov	r15, r20
    124a:	12 2f       	mov	r17, r18
	
	if (LED_Status != LED_Status_Old)
    124c:	a0 91 28 02 	lds	r26, 0x0228
    1250:	b0 91 29 02 	lds	r27, 0x0229
    1254:	e0 91 5e 02 	lds	r30, 0x025E
    1258:	f0 91 5f 02 	lds	r31, 0x025F
    125c:	ae 17       	cp	r26, r30
    125e:	bf 07       	cpc	r27, r31
    1260:	09 f4       	brne	.+2      	; 0x1264 <Raindrop_Simulation_1+0x34>
    1262:	c3 c0       	rjmp	.+390    	; 0x13ea <Raindrop_Simulation_1+0x1ba>
	{
		Counter, Counter_1, Counter_2, Counter_3 = 0;
    1264:	80 91 56 02 	lds	r24, 0x0256
    1268:	90 91 57 02 	lds	r25, 0x0257
    126c:	80 91 71 02 	lds	r24, 0x0271
    1270:	90 91 72 02 	lds	r25, 0x0272
    1274:	80 91 84 02 	lds	r24, 0x0284
    1278:	90 91 85 02 	lds	r25, 0x0285
    127c:	10 92 83 02 	sts	0x0283, r1
    1280:	10 92 82 02 	sts	0x0282, r1
		
		all_LED_OFF();
    1284:	0e 94 5a 05 	call	0xab4	; 0xab4 <all_LED_OFF>
		
		LED_Status_Old = LED_Status;
    1288:	80 91 28 02 	lds	r24, 0x0228
    128c:	90 91 29 02 	lds	r25, 0x0229
    1290:	90 93 5f 02 	sts	0x025F, r25
    1294:	80 93 5e 02 	sts	0x025E, r24
		
		/* save the actual "LED Status" */
		eeprom_write_byte(&EEPROM_save_LED_Status, LED_Status);	
    1298:	60 91 28 02 	lds	r22, 0x0228
    129c:	70 91 29 02 	lds	r23, 0x0229
    12a0:	80 e0       	ldi	r24, 0x00	; 0
    12a2:	90 e0       	ldi	r25, 0x00	; 0
    12a4:	0e 94 36 36 	call	0x6c6c	; 0x6c6c <__eewr_byte_m32>
		
		Brightness_1, Brightness_2, Brightness_3, Brightness_4, Brightness_5, Brightness_6, Brightness_7, Brightness_8, Brightness_9, Brightness_10, Brightness_11, Brightness_12, Brightness_13, Brightness_14, Brightness_15, Brightness_16, Counter_For_Display = 0;
    12a8:	80 91 75 00 	lds	r24, 0x0075
    12ac:	80 91 74 00 	lds	r24, 0x0074
    12b0:	80 91 73 00 	lds	r24, 0x0073
    12b4:	80 91 72 00 	lds	r24, 0x0072
    12b8:	80 91 2c 02 	lds	r24, 0x022C
    12bc:	80 91 5c 02 	lds	r24, 0x025C
    12c0:	80 91 90 02 	lds	r24, 0x0290
    12c4:	80 91 7a 02 	lds	r24, 0x027A
    12c8:	80 91 37 02 	lds	r24, 0x0237
    12cc:	80 91 60 02 	lds	r24, 0x0260
    12d0:	80 91 33 02 	lds	r24, 0x0233
    12d4:	80 91 3f 02 	lds	r24, 0x023F
    12d8:	80 91 4c 02 	lds	r24, 0x024C
    12dc:	80 91 4d 02 	lds	r24, 0x024D
    12e0:	80 91 41 02 	lds	r24, 0x0241
    12e4:	80 91 32 02 	lds	r24, 0x0232
    12e8:	10 92 66 02 	sts	0x0266, r1
    12ec:	10 92 65 02 	sts	0x0265, r1
		LED_0 = 0;
    12f0:	10 92 59 02 	sts	0x0259, r1
    12f4:	10 92 58 02 	sts	0x0258, r1
		LED_1 = 1;
    12f8:	81 e0       	ldi	r24, 0x01	; 1
    12fa:	90 e0       	ldi	r25, 0x00	; 0
    12fc:	90 93 4b 02 	sts	0x024B, r25
    1300:	80 93 4a 02 	sts	0x024A, r24
		LED_2 = 2;
    1304:	82 e0       	ldi	r24, 0x02	; 2
    1306:	90 e0       	ldi	r25, 0x00	; 0
    1308:	90 93 87 02 	sts	0x0287, r25
    130c:	80 93 86 02 	sts	0x0286, r24
		LED_3 = 3;
    1310:	83 e0       	ldi	r24, 0x03	; 3
    1312:	90 e0       	ldi	r25, 0x00	; 0
    1314:	90 93 35 02 	sts	0x0235, r25
    1318:	80 93 34 02 	sts	0x0234, r24
		LED_4 = 12;
    131c:	8c e0       	ldi	r24, 0x0C	; 12
    131e:	90 e0       	ldi	r25, 0x00	; 0
    1320:	90 93 62 02 	sts	0x0262, r25
    1324:	80 93 61 02 	sts	0x0261, r24
		LED_5 = 13;
    1328:	8d e0       	ldi	r24, 0x0D	; 13
    132a:	90 e0       	ldi	r25, 0x00	; 0
    132c:	90 93 8b 02 	sts	0x028B, r25
    1330:	80 93 8a 02 	sts	0x028A, r24
		LED_6 = 14;
    1334:	8e e0       	ldi	r24, 0x0E	; 14
    1336:	90 e0       	ldi	r25, 0x00	; 0
    1338:	90 93 49 02 	sts	0x0249, r25
    133c:	80 93 48 02 	sts	0x0248, r24
		LED_7 = 15;
    1340:	8f e0       	ldi	r24, 0x0F	; 15
    1342:	90 e0       	ldi	r25, 0x00	; 0
    1344:	90 93 5b 02 	sts	0x025B, r25
    1348:	80 93 5a 02 	sts	0x025A, r24
		LED_8 = 72;
    134c:	88 e4       	ldi	r24, 0x48	; 72
    134e:	90 e0       	ldi	r25, 0x00	; 0
    1350:	90 93 2b 02 	sts	0x022B, r25
    1354:	80 93 2a 02 	sts	0x022A, r24
		LED_9 = 73;
    1358:	89 e4       	ldi	r24, 0x49	; 73
    135a:	90 e0       	ldi	r25, 0x00	; 0
    135c:	90 93 55 02 	sts	0x0255, r25
    1360:	80 93 54 02 	sts	0x0254, r24
		LED_10 = 74;
    1364:	8a e4       	ldi	r24, 0x4A	; 74
    1366:	90 e0       	ldi	r25, 0x00	; 0
    1368:	90 93 51 02 	sts	0x0251, r25
    136c:	80 93 50 02 	sts	0x0250, r24
		LED_11 = 75;
    1370:	8b e4       	ldi	r24, 0x4B	; 75
    1372:	90 e0       	ldi	r25, 0x00	; 0
    1374:	90 93 47 02 	sts	0x0247, r25
    1378:	80 93 46 02 	sts	0x0246, r24
		LED_12 = 84;
    137c:	84 e5       	ldi	r24, 0x54	; 84
    137e:	90 e0       	ldi	r25, 0x00	; 0
    1380:	90 93 6e 02 	sts	0x026E, r25
    1384:	80 93 6d 02 	sts	0x026D, r24
		LED_13 = 85;
    1388:	85 e5       	ldi	r24, 0x55	; 85
    138a:	90 e0       	ldi	r25, 0x00	; 0
    138c:	90 93 2f 02 	sts	0x022F, r25
    1390:	80 93 2e 02 	sts	0x022E, r24
		LED_14 = 86;
    1394:	86 e5       	ldi	r24, 0x56	; 86
    1396:	90 e0       	ldi	r25, 0x00	; 0
    1398:	90 93 6c 02 	sts	0x026C, r25
    139c:	80 93 6b 02 	sts	0x026B, r24
		LED_15 = 87;	
    13a0:	87 e5       	ldi	r24, 0x57	; 87
    13a2:	90 e0       	ldi	r25, 0x00	; 0
    13a4:	90 93 68 02 	sts	0x0268, r25
    13a8:	80 93 67 02 	sts	0x0267, r24
		Result_Random_Generator     = (rand() % 6)+1;
    13ac:	0e 94 1e 36 	call	0x6c3c	; 0x6c3c <rand>
    13b0:	c6 e0       	ldi	r28, 0x06	; 6
    13b2:	d0 e0       	ldi	r29, 0x00	; 0
    13b4:	be 01       	movw	r22, r28
    13b6:	0e 94 a2 35 	call	0x6b44	; 0x6b44 <__divmodhi4>
    13ba:	8f 5f       	subi	r24, 0xFF	; 255
    13bc:	80 93 40 02 	sts	0x0240, r24
		Result_Random_Generator_2	= (rand() % 6)+1;	
    13c0:	0e 94 1e 36 	call	0x6c3c	; 0x6c3c <rand>
    13c4:	be 01       	movw	r22, r28
    13c6:	0e 94 a2 35 	call	0x6b44	; 0x6b44 <__divmodhi4>
    13ca:	8f 5f       	subi	r24, 0xFF	; 255
    13cc:	80 93 2d 02 	sts	0x022D, r24
		counter_for_change_accu_symbol = 0;
    13d0:	10 92 43 02 	sts	0x0243, r1
    13d4:	10 92 42 02 	sts	0x0242, r1
		if (LED_Status != 12)
    13d8:	e0 91 28 02 	lds	r30, 0x0228
    13dc:	f0 91 29 02 	lds	r31, 0x0229
    13e0:	3c 97       	sbiw	r30, 0x0c	; 12
    13e2:	19 f0       	breq	.+6      	; 0x13ea <Raindrop_Simulation_1+0x1ba>
		{
			Display_a_Character(5);
    13e4:	85 e0       	ldi	r24, 0x05	; 5
    13e6:	0e 94 f3 04 	call	0x9e6	; 0x9e6 <Display_a_Character>
		}				
	}	
	
	
	Brightness_1 ++;
    13ea:	80 91 75 00 	lds	r24, 0x0075
    13ee:	8f 5f       	subi	r24, 0xFF	; 255
    13f0:	80 93 75 00 	sts	0x0075, r24
	Brightness_2 ++;
    13f4:	80 91 74 00 	lds	r24, 0x0074
    13f8:	8f 5f       	subi	r24, 0xFF	; 255
    13fa:	80 93 74 00 	sts	0x0074, r24
	Brightness_3 ++;
    13fe:	80 91 73 00 	lds	r24, 0x0073
    1402:	8f 5f       	subi	r24, 0xFF	; 255
    1404:	80 93 73 00 	sts	0x0073, r24
	Brightness_4 ++;
    1408:	80 91 72 00 	lds	r24, 0x0072
    140c:	8f 5f       	subi	r24, 0xFF	; 255
    140e:	80 93 72 00 	sts	0x0072, r24
	Brightness_5 ++;
    1412:	80 91 2c 02 	lds	r24, 0x022C
    1416:	8f 5f       	subi	r24, 0xFF	; 255
    1418:	80 93 2c 02 	sts	0x022C, r24
	Brightness_6 ++;
    141c:	80 91 5c 02 	lds	r24, 0x025C
    1420:	8f 5f       	subi	r24, 0xFF	; 255
    1422:	80 93 5c 02 	sts	0x025C, r24
	Brightness_7 ++;
    1426:	80 91 90 02 	lds	r24, 0x0290
    142a:	8f 5f       	subi	r24, 0xFF	; 255
    142c:	80 93 90 02 	sts	0x0290, r24
	Brightness_8 ++;
    1430:	80 91 7a 02 	lds	r24, 0x027A
    1434:	8f 5f       	subi	r24, 0xFF	; 255
    1436:	80 93 7a 02 	sts	0x027A, r24
	
	
	
	/* Einmalige Einstellung der LEDs nach dem Wechsel des Baumteils */
	if (Result_Random_Generator != Result_Random_Generator_Old)
    143a:	90 91 40 02 	lds	r25, 0x0240
    143e:	80 91 73 02 	lds	r24, 0x0273
    1442:	98 17       	cp	r25, r24
    1444:	09 f4       	brne	.+2      	; 0x1448 <Raindrop_Simulation_1+0x218>
    1446:	3b c1       	rjmp	.+630    	; 0x16be <Raindrop_Simulation_1+0x48e>
	{
		Result_Random_Generator_Old = Result_Random_Generator;
    1448:	80 91 40 02 	lds	r24, 0x0240
    144c:	80 93 73 02 	sts	0x0273, r24
		
		switch (Result_Random_Generator)
    1450:	80 91 40 02 	lds	r24, 0x0240
    1454:	83 30       	cpi	r24, 0x03	; 3
    1456:	09 f4       	brne	.+2      	; 0x145a <Raindrop_Simulation_1+0x22a>
    1458:	6f c0       	rjmp	.+222    	; 0x1538 <Raindrop_Simulation_1+0x308>
    145a:	28 f4       	brcc	.+10     	; 0x1466 <Raindrop_Simulation_1+0x236>
    145c:	81 30       	cpi	r24, 0x01	; 1
    145e:	61 f0       	breq	.+24     	; 0x1478 <Raindrop_Simulation_1+0x248>
    1460:	82 30       	cpi	r24, 0x02	; 2
    1462:	c9 f1       	breq	.+114    	; 0x14d6 <Raindrop_Simulation_1+0x2a6>
    1464:	2c c1       	rjmp	.+600    	; 0x16be <Raindrop_Simulation_1+0x48e>
    1466:	85 30       	cpi	r24, 0x05	; 5
    1468:	09 f4       	brne	.+2      	; 0x146c <Raindrop_Simulation_1+0x23c>
    146a:	c8 c0       	rjmp	.+400    	; 0x15fc <Raindrop_Simulation_1+0x3cc>
    146c:	08 f4       	brcc	.+2      	; 0x1470 <Raindrop_Simulation_1+0x240>
    146e:	95 c0       	rjmp	.+298    	; 0x159a <Raindrop_Simulation_1+0x36a>
    1470:	86 30       	cpi	r24, 0x06	; 6
    1472:	09 f4       	brne	.+2      	; 0x1476 <Raindrop_Simulation_1+0x246>
    1474:	f4 c0       	rjmp	.+488    	; 0x165e <Raindrop_Simulation_1+0x42e>
    1476:	23 c1       	rjmp	.+582    	; 0x16be <Raindrop_Simulation_1+0x48e>
		{
			case 1:
			{
				LED_0 = 0;
    1478:	10 92 59 02 	sts	0x0259, r1
    147c:	10 92 58 02 	sts	0x0258, r1
				LED_1 = 1;
    1480:	81 e0       	ldi	r24, 0x01	; 1
    1482:	90 e0       	ldi	r25, 0x00	; 0
    1484:	90 93 4b 02 	sts	0x024B, r25
    1488:	80 93 4a 02 	sts	0x024A, r24
				LED_2 = 2;
    148c:	82 e0       	ldi	r24, 0x02	; 2
    148e:	90 e0       	ldi	r25, 0x00	; 0
    1490:	90 93 87 02 	sts	0x0287, r25
    1494:	80 93 86 02 	sts	0x0286, r24
				LED_3 = 3;
    1498:	83 e0       	ldi	r24, 0x03	; 3
    149a:	90 e0       	ldi	r25, 0x00	; 0
    149c:	90 93 35 02 	sts	0x0235, r25
    14a0:	80 93 34 02 	sts	0x0234, r24
				LED_4 = 12;
    14a4:	8c e0       	ldi	r24, 0x0C	; 12
    14a6:	90 e0       	ldi	r25, 0x00	; 0
    14a8:	90 93 62 02 	sts	0x0262, r25
    14ac:	80 93 61 02 	sts	0x0261, r24
				LED_5 = 13;
    14b0:	8d e0       	ldi	r24, 0x0D	; 13
    14b2:	90 e0       	ldi	r25, 0x00	; 0
    14b4:	90 93 8b 02 	sts	0x028B, r25
    14b8:	80 93 8a 02 	sts	0x028A, r24
				LED_6 = 14;
    14bc:	8e e0       	ldi	r24, 0x0E	; 14
    14be:	90 e0       	ldi	r25, 0x00	; 0
    14c0:	90 93 49 02 	sts	0x0249, r25
    14c4:	80 93 48 02 	sts	0x0248, r24
				LED_7 = 15;						
    14c8:	8f e0       	ldi	r24, 0x0F	; 15
    14ca:	90 e0       	ldi	r25, 0x00	; 0
    14cc:	90 93 5b 02 	sts	0x025B, r25
    14d0:	80 93 5a 02 	sts	0x025A, r24
			}
			break;
    14d4:	f4 c0       	rjmp	.+488    	; 0x16be <Raindrop_Simulation_1+0x48e>
			
			case 2:
			{
				LED_0 = 24;
    14d6:	88 e1       	ldi	r24, 0x18	; 24
    14d8:	90 e0       	ldi	r25, 0x00	; 0
    14da:	90 93 59 02 	sts	0x0259, r25
    14de:	80 93 58 02 	sts	0x0258, r24
				LED_1 = 25;
    14e2:	89 e1       	ldi	r24, 0x19	; 25
    14e4:	90 e0       	ldi	r25, 0x00	; 0
    14e6:	90 93 4b 02 	sts	0x024B, r25
    14ea:	80 93 4a 02 	sts	0x024A, r24
				LED_2 = 26;
    14ee:	8a e1       	ldi	r24, 0x1A	; 26
    14f0:	90 e0       	ldi	r25, 0x00	; 0
    14f2:	90 93 87 02 	sts	0x0287, r25
    14f6:	80 93 86 02 	sts	0x0286, r24
				LED_3 = 27;
    14fa:	8b e1       	ldi	r24, 0x1B	; 27
    14fc:	90 e0       	ldi	r25, 0x00	; 0
    14fe:	90 93 35 02 	sts	0x0235, r25
    1502:	80 93 34 02 	sts	0x0234, r24
				LED_4 = 36;
    1506:	84 e2       	ldi	r24, 0x24	; 36
    1508:	90 e0       	ldi	r25, 0x00	; 0
    150a:	90 93 62 02 	sts	0x0262, r25
    150e:	80 93 61 02 	sts	0x0261, r24
				LED_5 = 37;
    1512:	85 e2       	ldi	r24, 0x25	; 37
    1514:	90 e0       	ldi	r25, 0x00	; 0
    1516:	90 93 8b 02 	sts	0x028B, r25
    151a:	80 93 8a 02 	sts	0x028A, r24
				LED_6 = 38;
    151e:	86 e2       	ldi	r24, 0x26	; 38
    1520:	90 e0       	ldi	r25, 0x00	; 0
    1522:	90 93 49 02 	sts	0x0249, r25
    1526:	80 93 48 02 	sts	0x0248, r24
				LED_7 = 39;				
    152a:	87 e2       	ldi	r24, 0x27	; 39
    152c:	90 e0       	ldi	r25, 0x00	; 0
    152e:	90 93 5b 02 	sts	0x025B, r25
    1532:	80 93 5a 02 	sts	0x025A, r24
			}
			break;
    1536:	c3 c0       	rjmp	.+390    	; 0x16be <Raindrop_Simulation_1+0x48e>

			case 3:
			{
				LED_0 = 48;
    1538:	80 e3       	ldi	r24, 0x30	; 48
    153a:	90 e0       	ldi	r25, 0x00	; 0
    153c:	90 93 59 02 	sts	0x0259, r25
    1540:	80 93 58 02 	sts	0x0258, r24
				LED_1 = 49;
    1544:	81 e3       	ldi	r24, 0x31	; 49
    1546:	90 e0       	ldi	r25, 0x00	; 0
    1548:	90 93 4b 02 	sts	0x024B, r25
    154c:	80 93 4a 02 	sts	0x024A, r24
				LED_2 = 50;
    1550:	82 e3       	ldi	r24, 0x32	; 50
    1552:	90 e0       	ldi	r25, 0x00	; 0
    1554:	90 93 87 02 	sts	0x0287, r25
    1558:	80 93 86 02 	sts	0x0286, r24
				LED_3 = 51;
    155c:	83 e3       	ldi	r24, 0x33	; 51
    155e:	90 e0       	ldi	r25, 0x00	; 0
    1560:	90 93 35 02 	sts	0x0235, r25
    1564:	80 93 34 02 	sts	0x0234, r24
				LED_4 = 60;
    1568:	8c e3       	ldi	r24, 0x3C	; 60
    156a:	90 e0       	ldi	r25, 0x00	; 0
    156c:	90 93 62 02 	sts	0x0262, r25
    1570:	80 93 61 02 	sts	0x0261, r24
				LED_5 = 61;
    1574:	8d e3       	ldi	r24, 0x3D	; 61
    1576:	90 e0       	ldi	r25, 0x00	; 0
    1578:	90 93 8b 02 	sts	0x028B, r25
    157c:	80 93 8a 02 	sts	0x028A, r24
				LED_6 = 62;
    1580:	8e e3       	ldi	r24, 0x3E	; 62
    1582:	90 e0       	ldi	r25, 0x00	; 0
    1584:	90 93 49 02 	sts	0x0249, r25
    1588:	80 93 48 02 	sts	0x0248, r24
				LED_7 = 63;
    158c:	8f e3       	ldi	r24, 0x3F	; 63
    158e:	90 e0       	ldi	r25, 0x00	; 0
    1590:	90 93 5b 02 	sts	0x025B, r25
    1594:	80 93 5a 02 	sts	0x025A, r24
			}
			break;			
    1598:	92 c0       	rjmp	.+292    	; 0x16be <Raindrop_Simulation_1+0x48e>

			case 4:
			{
				LED_0 = 72;
    159a:	88 e4       	ldi	r24, 0x48	; 72
    159c:	90 e0       	ldi	r25, 0x00	; 0
    159e:	90 93 59 02 	sts	0x0259, r25
    15a2:	80 93 58 02 	sts	0x0258, r24
				LED_1 = 73;
    15a6:	89 e4       	ldi	r24, 0x49	; 73
    15a8:	90 e0       	ldi	r25, 0x00	; 0
    15aa:	90 93 4b 02 	sts	0x024B, r25
    15ae:	80 93 4a 02 	sts	0x024A, r24
				LED_2 = 74;
    15b2:	8a e4       	ldi	r24, 0x4A	; 74
    15b4:	90 e0       	ldi	r25, 0x00	; 0
    15b6:	90 93 87 02 	sts	0x0287, r25
    15ba:	80 93 86 02 	sts	0x0286, r24
				LED_3 = 75;
    15be:	8b e4       	ldi	r24, 0x4B	; 75
    15c0:	90 e0       	ldi	r25, 0x00	; 0
    15c2:	90 93 35 02 	sts	0x0235, r25
    15c6:	80 93 34 02 	sts	0x0234, r24
				LED_4 = 84;
    15ca:	84 e5       	ldi	r24, 0x54	; 84
    15cc:	90 e0       	ldi	r25, 0x00	; 0
    15ce:	90 93 62 02 	sts	0x0262, r25
    15d2:	80 93 61 02 	sts	0x0261, r24
				LED_5 = 85;
    15d6:	85 e5       	ldi	r24, 0x55	; 85
    15d8:	90 e0       	ldi	r25, 0x00	; 0
    15da:	90 93 8b 02 	sts	0x028B, r25
    15de:	80 93 8a 02 	sts	0x028A, r24
				LED_6 = 86;
    15e2:	86 e5       	ldi	r24, 0x56	; 86
    15e4:	90 e0       	ldi	r25, 0x00	; 0
    15e6:	90 93 49 02 	sts	0x0249, r25
    15ea:	80 93 48 02 	sts	0x0248, r24
				LED_7 = 87;
    15ee:	87 e5       	ldi	r24, 0x57	; 87
    15f0:	90 e0       	ldi	r25, 0x00	; 0
    15f2:	90 93 5b 02 	sts	0x025B, r25
    15f6:	80 93 5a 02 	sts	0x025A, r24
			}
			break;			
    15fa:	61 c0       	rjmp	.+194    	; 0x16be <Raindrop_Simulation_1+0x48e>
		
			case 5:
			{
				LED_0 = 96;
    15fc:	80 e6       	ldi	r24, 0x60	; 96
    15fe:	90 e0       	ldi	r25, 0x00	; 0
    1600:	90 93 59 02 	sts	0x0259, r25
    1604:	80 93 58 02 	sts	0x0258, r24
				LED_1 = 97;
    1608:	81 e6       	ldi	r24, 0x61	; 97
    160a:	90 e0       	ldi	r25, 0x00	; 0
    160c:	90 93 4b 02 	sts	0x024B, r25
    1610:	80 93 4a 02 	sts	0x024A, r24
				LED_2 = 98;
    1614:	82 e6       	ldi	r24, 0x62	; 98
    1616:	90 e0       	ldi	r25, 0x00	; 0
    1618:	90 93 87 02 	sts	0x0287, r25
    161c:	80 93 86 02 	sts	0x0286, r24
				LED_3 = 99;
    1620:	83 e6       	ldi	r24, 0x63	; 99
    1622:	90 e0       	ldi	r25, 0x00	; 0
    1624:	90 93 35 02 	sts	0x0235, r25
    1628:	80 93 34 02 	sts	0x0234, r24
				LED_4 = 108;
    162c:	8c e6       	ldi	r24, 0x6C	; 108
    162e:	90 e0       	ldi	r25, 0x00	; 0
    1630:	90 93 62 02 	sts	0x0262, r25
    1634:	80 93 61 02 	sts	0x0261, r24
				LED_5 = 109;
    1638:	8d e6       	ldi	r24, 0x6D	; 109
    163a:	90 e0       	ldi	r25, 0x00	; 0
    163c:	90 93 8b 02 	sts	0x028B, r25
    1640:	80 93 8a 02 	sts	0x028A, r24
				LED_6 = 110;
    1644:	8e e6       	ldi	r24, 0x6E	; 110
    1646:	90 e0       	ldi	r25, 0x00	; 0
    1648:	90 93 49 02 	sts	0x0249, r25
    164c:	80 93 48 02 	sts	0x0248, r24
				LED_7 = 111;
    1650:	8f e6       	ldi	r24, 0x6F	; 111
    1652:	90 e0       	ldi	r25, 0x00	; 0
    1654:	90 93 5b 02 	sts	0x025B, r25
    1658:	80 93 5a 02 	sts	0x025A, r24
			}
			break;		
    165c:	30 c0       	rjmp	.+96     	; 0x16be <Raindrop_Simulation_1+0x48e>

			case 6:
			{
				LED_0 = 120;
    165e:	88 e7       	ldi	r24, 0x78	; 120
    1660:	90 e0       	ldi	r25, 0x00	; 0
    1662:	90 93 59 02 	sts	0x0259, r25
    1666:	80 93 58 02 	sts	0x0258, r24
				LED_1 = 121;
    166a:	89 e7       	ldi	r24, 0x79	; 121
    166c:	90 e0       	ldi	r25, 0x00	; 0
    166e:	90 93 4b 02 	sts	0x024B, r25
    1672:	80 93 4a 02 	sts	0x024A, r24
				LED_2 = 122;
    1676:	8a e7       	ldi	r24, 0x7A	; 122
    1678:	90 e0       	ldi	r25, 0x00	; 0
    167a:	90 93 87 02 	sts	0x0287, r25
    167e:	80 93 86 02 	sts	0x0286, r24
				LED_3 = 123;
    1682:	8b e7       	ldi	r24, 0x7B	; 123
    1684:	90 e0       	ldi	r25, 0x00	; 0
    1686:	90 93 35 02 	sts	0x0235, r25
    168a:	80 93 34 02 	sts	0x0234, r24
				LED_4 = 132;
    168e:	84 e8       	ldi	r24, 0x84	; 132
    1690:	90 e0       	ldi	r25, 0x00	; 0
    1692:	90 93 62 02 	sts	0x0262, r25
    1696:	80 93 61 02 	sts	0x0261, r24
				LED_5 = 133;
    169a:	85 e8       	ldi	r24, 0x85	; 133
    169c:	90 e0       	ldi	r25, 0x00	; 0
    169e:	90 93 8b 02 	sts	0x028B, r25
    16a2:	80 93 8a 02 	sts	0x028A, r24
				LED_6 = 134;
    16a6:	86 e8       	ldi	r24, 0x86	; 134
    16a8:	90 e0       	ldi	r25, 0x00	; 0
    16aa:	90 93 49 02 	sts	0x0249, r25
    16ae:	80 93 48 02 	sts	0x0248, r24
				LED_7 = 135;
    16b2:	87 e8       	ldi	r24, 0x87	; 135
    16b4:	90 e0       	ldi	r25, 0x00	; 0
    16b6:	90 93 5b 02 	sts	0x025B, r25
    16ba:	80 93 5a 02 	sts	0x025A, r24
		
	
	
	
	/* Zufälliger Wechsel zwischen den verschiedenen Baumteilen */		
	switch (LED_0)
    16be:	e0 91 58 02 	lds	r30, 0x0258
    16c2:	f0 91 59 02 	lds	r31, 0x0259
    16c6:	ec 33       	cpi	r30, 0x3C	; 60
    16c8:	f1 05       	cpc	r31, r1
    16ca:	29 f1       	breq	.+74     	; 0x1716 <Raindrop_Simulation_1+0x4e6>
    16cc:	34 f4       	brge	.+12     	; 0x16da <Raindrop_Simulation_1+0x4aa>
    16ce:	ec 30       	cpi	r30, 0x0C	; 12
    16d0:	f1 05       	cpc	r31, r1
    16d2:	69 f0       	breq	.+26     	; 0x16ee <Raindrop_Simulation_1+0x4be>
    16d4:	b4 97       	sbiw	r30, 0x24	; 36
    16d6:	a9 f0       	breq	.+42     	; 0x1702 <Raindrop_Simulation_1+0x4d2>
    16d8:	45 c0       	rjmp	.+138    	; 0x1764 <Raindrop_Simulation_1+0x534>
    16da:	ec 36       	cpi	r30, 0x6C	; 108
    16dc:	f1 05       	cpc	r31, r1
    16de:	79 f1       	breq	.+94     	; 0x173e <Raindrop_Simulation_1+0x50e>
    16e0:	e4 38       	cpi	r30, 0x84	; 132
    16e2:	f1 05       	cpc	r31, r1
    16e4:	b1 f1       	breq	.+108    	; 0x1752 <Raindrop_Simulation_1+0x522>
    16e6:	e4 35       	cpi	r30, 0x54	; 84
    16e8:	f1 05       	cpc	r31, r1
    16ea:	e1 f5       	brne	.+120    	; 0x1764 <Raindrop_Simulation_1+0x534>
    16ec:	1e c0       	rjmp	.+60     	; 0x172a <Raindrop_Simulation_1+0x4fa>
	{
		case 12:
		{
			Result_Random_Generator = (rand() % 6)+1;
    16ee:	0e 94 1e 36 	call	0x6c3c	; 0x6c3c <rand>
    16f2:	66 e0       	ldi	r22, 0x06	; 6
    16f4:	70 e0       	ldi	r23, 0x00	; 0
    16f6:	0e 94 a2 35 	call	0x6b44	; 0x6b44 <__divmodhi4>
    16fa:	8f 5f       	subi	r24, 0xFF	; 255
    16fc:	80 93 40 02 	sts	0x0240, r24
		}
		break;
    1700:	31 c0       	rjmp	.+98     	; 0x1764 <Raindrop_Simulation_1+0x534>
		
		case 36:
		{
			Result_Random_Generator = (rand() % 6)+1;			
    1702:	0e 94 1e 36 	call	0x6c3c	; 0x6c3c <rand>
    1706:	66 e0       	ldi	r22, 0x06	; 6
    1708:	70 e0       	ldi	r23, 0x00	; 0
    170a:	0e 94 a2 35 	call	0x6b44	; 0x6b44 <__divmodhi4>
    170e:	8f 5f       	subi	r24, 0xFF	; 255
    1710:	80 93 40 02 	sts	0x0240, r24
		}
		break;	
    1714:	27 c0       	rjmp	.+78     	; 0x1764 <Raindrop_Simulation_1+0x534>
		
		case 60:
		{
			Result_Random_Generator = (rand() % 6)+1;					
    1716:	0e 94 1e 36 	call	0x6c3c	; 0x6c3c <rand>
    171a:	66 e0       	ldi	r22, 0x06	; 6
    171c:	70 e0       	ldi	r23, 0x00	; 0
    171e:	0e 94 a2 35 	call	0x6b44	; 0x6b44 <__divmodhi4>
    1722:	8f 5f       	subi	r24, 0xFF	; 255
    1724:	80 93 40 02 	sts	0x0240, r24
		}
		break;
    1728:	1d c0       	rjmp	.+58     	; 0x1764 <Raindrop_Simulation_1+0x534>
		
		case 84:
		{
			Result_Random_Generator = (rand() % 6)+1;			
    172a:	0e 94 1e 36 	call	0x6c3c	; 0x6c3c <rand>
    172e:	66 e0       	ldi	r22, 0x06	; 6
    1730:	70 e0       	ldi	r23, 0x00	; 0
    1732:	0e 94 a2 35 	call	0x6b44	; 0x6b44 <__divmodhi4>
    1736:	8f 5f       	subi	r24, 0xFF	; 255
    1738:	80 93 40 02 	sts	0x0240, r24
		}
		break;
    173c:	13 c0       	rjmp	.+38     	; 0x1764 <Raindrop_Simulation_1+0x534>
		
		case 108:
		{
			Result_Random_Generator = (rand() % 6)+1;						
    173e:	0e 94 1e 36 	call	0x6c3c	; 0x6c3c <rand>
    1742:	66 e0       	ldi	r22, 0x06	; 6
    1744:	70 e0       	ldi	r23, 0x00	; 0
    1746:	0e 94 a2 35 	call	0x6b44	; 0x6b44 <__divmodhi4>
    174a:	8f 5f       	subi	r24, 0xFF	; 255
    174c:	80 93 40 02 	sts	0x0240, r24
		}
		break;	
    1750:	09 c0       	rjmp	.+18     	; 0x1764 <Raindrop_Simulation_1+0x534>
		
		case 132:
		{	
			Result_Random_Generator = (rand() % 6)+1;		
    1752:	0e 94 1e 36 	call	0x6c3c	; 0x6c3c <rand>
    1756:	66 e0       	ldi	r22, 0x06	; 6
    1758:	70 e0       	ldi	r23, 0x00	; 0
    175a:	0e 94 a2 35 	call	0x6b44	; 0x6b44 <__divmodhi4>
    175e:	8f 5f       	subi	r24, 0xFF	; 255
    1760:	80 93 40 02 	sts	0x0240, r24
		break;								
	}
		
		
	/************* PWM-Routine *************/
	switch (Result_Random_Generator)
    1764:	80 91 40 02 	lds	r24, 0x0240
    1768:	83 30       	cpi	r24, 0x03	; 3
    176a:	09 f4       	brne	.+2      	; 0x176e <Raindrop_Simulation_1+0x53e>
    176c:	34 c1       	rjmp	.+616    	; 0x19d6 <Raindrop_Simulation_1+0x7a6>
    176e:	30 f4       	brcc	.+12     	; 0x177c <Raindrop_Simulation_1+0x54c>
    1770:	81 30       	cpi	r24, 0x01	; 1
    1772:	69 f0       	breq	.+26     	; 0x178e <Raindrop_Simulation_1+0x55e>
    1774:	82 30       	cpi	r24, 0x02	; 2
    1776:	09 f4       	brne	.+2      	; 0x177a <Raindrop_Simulation_1+0x54a>
    1778:	9c c0       	rjmp	.+312    	; 0x18b2 <Raindrop_Simulation_1+0x682>
    177a:	8f c3       	rjmp	.+1822   	; 0x1e9a <Raindrop_Simulation_1+0xc6a>
    177c:	85 30       	cpi	r24, 0x05	; 5
    177e:	09 f4       	brne	.+2      	; 0x1782 <Raindrop_Simulation_1+0x552>
    1780:	5a c2       	rjmp	.+1204   	; 0x1c36 <Raindrop_Simulation_1+0xa06>
    1782:	08 f4       	brcc	.+2      	; 0x1786 <Raindrop_Simulation_1+0x556>
    1784:	be c1       	rjmp	.+892    	; 0x1b02 <Raindrop_Simulation_1+0x8d2>
    1786:	86 30       	cpi	r24, 0x06	; 6
    1788:	09 f4       	brne	.+2      	; 0x178c <Raindrop_Simulation_1+0x55c>
    178a:	ef c2       	rjmp	.+1502   	; 0x1d6a <Raindrop_Simulation_1+0xb3a>
    178c:	86 c3       	rjmp	.+1804   	; 0x1e9a <Raindrop_Simulation_1+0xc6a>
	{
		case 1:
		{
			if (LED_0 <= 11)							// Funktion dient dazu, dass die LED beim Erreichen der untersten LED hintereinander erlöschen
    178e:	80 91 58 02 	lds	r24, 0x0258
    1792:	90 91 59 02 	lds	r25, 0x0259
    1796:	0c 97       	sbiw	r24, 0x0c	; 12
    1798:	64 f4       	brge	.+24     	; 0x17b2 <Raindrop_Simulation_1+0x582>
			{
			
				if (Brightness_1 == Bright_1)			// Je höher der Wert von Brightness abgefragt wird, desto dunkeler erscheint die LED
    179a:	80 91 75 00 	lds	r24, 0x0075
    179e:	8b 11       	cpse	r24, r11
    17a0:	08 c0       	rjmp	.+16     	; 0x17b2 <Raindrop_Simulation_1+0x582>
				{
					com74hc595_setBit(LED_0);
    17a2:	80 91 58 02 	lds	r24, 0x0258
    17a6:	90 91 59 02 	lds	r25, 0x0259
    17aa:	0e 94 99 01 	call	0x332	; 0x332 <com74hc595_setBit>
					Brightness_1 = 0;
    17ae:	10 92 75 00 	sts	0x0075, r1
				}
			}
			
			if (LED_1 <= 11)
    17b2:	80 91 4a 02 	lds	r24, 0x024A
    17b6:	90 91 4b 02 	lds	r25, 0x024B
    17ba:	0c 97       	sbiw	r24, 0x0c	; 12
    17bc:	64 f4       	brge	.+24     	; 0x17d6 <Raindrop_Simulation_1+0x5a6>
			{	
				if (Brightness_2 == Bright_2)
    17be:	80 91 74 00 	lds	r24, 0x0074
    17c2:	8d 11       	cpse	r24, r13
    17c4:	08 c0       	rjmp	.+16     	; 0x17d6 <Raindrop_Simulation_1+0x5a6>
				{
					com74hc595_setBit(LED_1);
    17c6:	80 91 4a 02 	lds	r24, 0x024A
    17ca:	90 91 4b 02 	lds	r25, 0x024B
    17ce:	0e 94 99 01 	call	0x332	; 0x332 <com74hc595_setBit>
					Brightness_2 = 0;
    17d2:	10 92 74 00 	sts	0x0074, r1
				}
			}
			if (LED_2 <= 11)
    17d6:	80 91 86 02 	lds	r24, 0x0286
    17da:	90 91 87 02 	lds	r25, 0x0287
    17de:	0c 97       	sbiw	r24, 0x0c	; 12
    17e0:	60 f4       	brcc	.+24     	; 0x17fa <Raindrop_Simulation_1+0x5ca>
			{			
				if (Brightness_3 == Bright_3)
    17e2:	80 91 73 00 	lds	r24, 0x0073
    17e6:	8f 11       	cpse	r24, r15
    17e8:	08 c0       	rjmp	.+16     	; 0x17fa <Raindrop_Simulation_1+0x5ca>
				{
					com74hc595_setBit(LED_2);
    17ea:	80 91 86 02 	lds	r24, 0x0286
    17ee:	90 91 87 02 	lds	r25, 0x0287
    17f2:	0e 94 99 01 	call	0x332	; 0x332 <com74hc595_setBit>
					Brightness_3 = 0;
    17f6:	10 92 73 00 	sts	0x0073, r1
				}
			}
			
			if (LED_3 <= 11)
    17fa:	80 91 34 02 	lds	r24, 0x0234
    17fe:	90 91 35 02 	lds	r25, 0x0235
    1802:	0c 97       	sbiw	r24, 0x0c	; 12
    1804:	60 f4       	brcc	.+24     	; 0x181e <Raindrop_Simulation_1+0x5ee>
			{
				if (Brightness_4 == Bright_4)
    1806:	80 91 72 00 	lds	r24, 0x0072
    180a:	81 13       	cpse	r24, r17
    180c:	08 c0       	rjmp	.+16     	; 0x181e <Raindrop_Simulation_1+0x5ee>
				{
					com74hc595_setBit(LED_3);
    180e:	80 91 34 02 	lds	r24, 0x0234
    1812:	90 91 35 02 	lds	r25, 0x0235
    1816:	0e 94 99 01 	call	0x332	; 0x332 <com74hc595_setBit>
					Brightness_4 = 0;
    181a:	10 92 72 00 	sts	0x0072, r1
				}
			}	

			if (LED_4 <= 23)
    181e:	80 91 61 02 	lds	r24, 0x0261
    1822:	90 91 62 02 	lds	r25, 0x0262
    1826:	48 97       	sbiw	r24, 0x18	; 24
    1828:	60 f4       	brcc	.+24     	; 0x1842 <Raindrop_Simulation_1+0x612>
			{			
				if (Brightness_5 == Bright_5)
    182a:	80 91 2c 02 	lds	r24, 0x022C
    182e:	80 13       	cpse	r24, r16
    1830:	08 c0       	rjmp	.+16     	; 0x1842 <Raindrop_Simulation_1+0x612>
				{
					com74hc595_setBit(LED_4);
    1832:	80 91 61 02 	lds	r24, 0x0261
    1836:	90 91 62 02 	lds	r25, 0x0262
    183a:	0e 94 99 01 	call	0x332	; 0x332 <com74hc595_setBit>
					Brightness_5 = 0;
    183e:	10 92 2c 02 	sts	0x022C, r1
				}
			}

			if (LED_5 <= 23)
    1842:	80 91 8a 02 	lds	r24, 0x028A
    1846:	90 91 8b 02 	lds	r25, 0x028B
    184a:	48 97       	sbiw	r24, 0x18	; 24
    184c:	60 f4       	brcc	.+24     	; 0x1866 <Raindrop_Simulation_1+0x636>
			{						
				if (Brightness_6 == Bright_6)
    184e:	80 91 5c 02 	lds	r24, 0x025C
    1852:	8e 11       	cpse	r24, r14
    1854:	08 c0       	rjmp	.+16     	; 0x1866 <Raindrop_Simulation_1+0x636>
				{
					com74hc595_setBit(LED_5);
    1856:	80 91 8a 02 	lds	r24, 0x028A
    185a:	90 91 8b 02 	lds	r25, 0x028B
    185e:	0e 94 99 01 	call	0x332	; 0x332 <com74hc595_setBit>
					Brightness_6 = 0;
    1862:	10 92 5c 02 	sts	0x025C, r1
				}
			}
			
			if (LED_6 <= 23)
    1866:	80 91 48 02 	lds	r24, 0x0248
    186a:	90 91 49 02 	lds	r25, 0x0249
    186e:	48 97       	sbiw	r24, 0x18	; 24
    1870:	60 f4       	brcc	.+24     	; 0x188a <Raindrop_Simulation_1+0x65a>
			{						
				if (Brightness_7 == Bright_7)
    1872:	80 91 90 02 	lds	r24, 0x0290
    1876:	8c 11       	cpse	r24, r12
    1878:	08 c0       	rjmp	.+16     	; 0x188a <Raindrop_Simulation_1+0x65a>
				{
					com74hc595_setBit(LED_6);
    187a:	80 91 48 02 	lds	r24, 0x0248
    187e:	90 91 49 02 	lds	r25, 0x0249
    1882:	0e 94 99 01 	call	0x332	; 0x332 <com74hc595_setBit>
					Brightness_7 = 0;
    1886:	10 92 90 02 	sts	0x0290, r1
				}
			}	
				
			if (LED_7 <= 23)
    188a:	80 91 5a 02 	lds	r24, 0x025A
    188e:	90 91 5b 02 	lds	r25, 0x025B
    1892:	48 97       	sbiw	r24, 0x18	; 24
    1894:	08 f0       	brcs	.+2      	; 0x1898 <Raindrop_Simulation_1+0x668>
    1896:	01 c3       	rjmp	.+1538   	; 0x1e9a <Raindrop_Simulation_1+0xc6a>
			{						
				if (Brightness_8 == Bright_8)
    1898:	80 91 7a 02 	lds	r24, 0x027A
    189c:	8a 11       	cpse	r24, r10
    189e:	fd c2       	rjmp	.+1530   	; 0x1e9a <Raindrop_Simulation_1+0xc6a>
				{
					com74hc595_setBit(LED_7);
    18a0:	80 91 5a 02 	lds	r24, 0x025A
    18a4:	90 91 5b 02 	lds	r25, 0x025B
    18a8:	0e 94 99 01 	call	0x332	; 0x332 <com74hc595_setBit>
					Brightness_8= 0;
    18ac:	10 92 7a 02 	sts	0x027A, r1
    18b0:	f4 c2       	rjmp	.+1512   	; 0x1e9a <Raindrop_Simulation_1+0xc6a>
		break;
		
		
		case 2:
		{
			if (LED_0 <= 35)							// Funktion dient dazu, dass die LED beim Erreichen der untersten LED hintereinander erlöschen
    18b2:	80 91 58 02 	lds	r24, 0x0258
    18b6:	90 91 59 02 	lds	r25, 0x0259
    18ba:	84 97       	sbiw	r24, 0x24	; 36
    18bc:	64 f4       	brge	.+24     	; 0x18d6 <Raindrop_Simulation_1+0x6a6>
			{
				
				if (Brightness_1 == Bright_1)			// Je höher der Wert von Brightness abgefragt wird, desto dunkeler erscheint die LED
    18be:	80 91 75 00 	lds	r24, 0x0075
    18c2:	8b 11       	cpse	r24, r11
    18c4:	08 c0       	rjmp	.+16     	; 0x18d6 <Raindrop_Simulation_1+0x6a6>
				{
					com74hc595_setBit(LED_0);
    18c6:	80 91 58 02 	lds	r24, 0x0258
    18ca:	90 91 59 02 	lds	r25, 0x0259
    18ce:	0e 94 99 01 	call	0x332	; 0x332 <com74hc595_setBit>
					Brightness_1 = 0;
    18d2:	10 92 75 00 	sts	0x0075, r1
				}
			}
			
			if (LED_1 <= 35)
    18d6:	80 91 4a 02 	lds	r24, 0x024A
    18da:	90 91 4b 02 	lds	r25, 0x024B
    18de:	84 97       	sbiw	r24, 0x24	; 36
    18e0:	64 f4       	brge	.+24     	; 0x18fa <Raindrop_Simulation_1+0x6ca>
			{
				if (Brightness_2 == Bright_2)
    18e2:	80 91 74 00 	lds	r24, 0x0074
    18e6:	8d 11       	cpse	r24, r13
    18e8:	08 c0       	rjmp	.+16     	; 0x18fa <Raindrop_Simulation_1+0x6ca>
				{
					com74hc595_setBit(LED_1);
    18ea:	80 91 4a 02 	lds	r24, 0x024A
    18ee:	90 91 4b 02 	lds	r25, 0x024B
    18f2:	0e 94 99 01 	call	0x332	; 0x332 <com74hc595_setBit>
					Brightness_2 = 0;
    18f6:	10 92 74 00 	sts	0x0074, r1
				}
			}
			if (LED_2 <= 35)
    18fa:	80 91 86 02 	lds	r24, 0x0286
    18fe:	90 91 87 02 	lds	r25, 0x0287
    1902:	84 97       	sbiw	r24, 0x24	; 36
    1904:	60 f4       	brcc	.+24     	; 0x191e <Raindrop_Simulation_1+0x6ee>
			{
				if (Brightness_3 == Bright_3)
    1906:	80 91 73 00 	lds	r24, 0x0073
    190a:	8f 11       	cpse	r24, r15
    190c:	08 c0       	rjmp	.+16     	; 0x191e <Raindrop_Simulation_1+0x6ee>
				{
					com74hc595_setBit(LED_2);
    190e:	80 91 86 02 	lds	r24, 0x0286
    1912:	90 91 87 02 	lds	r25, 0x0287
    1916:	0e 94 99 01 	call	0x332	; 0x332 <com74hc595_setBit>
					Brightness_3 = 0;
    191a:	10 92 73 00 	sts	0x0073, r1
				}
			}
			
			if (LED_3 <= 35)
    191e:	80 91 34 02 	lds	r24, 0x0234
    1922:	90 91 35 02 	lds	r25, 0x0235
    1926:	84 97       	sbiw	r24, 0x24	; 36
    1928:	60 f4       	brcc	.+24     	; 0x1942 <Raindrop_Simulation_1+0x712>
			{
				if (Brightness_4 == Bright_4)
    192a:	80 91 72 00 	lds	r24, 0x0072
    192e:	81 13       	cpse	r24, r17
    1930:	08 c0       	rjmp	.+16     	; 0x1942 <Raindrop_Simulation_1+0x712>
				{
					com74hc595_setBit(LED_3);
    1932:	80 91 34 02 	lds	r24, 0x0234
    1936:	90 91 35 02 	lds	r25, 0x0235
    193a:	0e 94 99 01 	call	0x332	; 0x332 <com74hc595_setBit>
					Brightness_4 = 0;
    193e:	10 92 72 00 	sts	0x0072, r1
				}
			}

			if (LED_4 <= 47)
    1942:	80 91 61 02 	lds	r24, 0x0261
    1946:	90 91 62 02 	lds	r25, 0x0262
    194a:	c0 97       	sbiw	r24, 0x30	; 48
    194c:	60 f4       	brcc	.+24     	; 0x1966 <Raindrop_Simulation_1+0x736>
			{
				if (Brightness_5 == Bright_5)
    194e:	80 91 2c 02 	lds	r24, 0x022C
    1952:	80 13       	cpse	r24, r16
    1954:	08 c0       	rjmp	.+16     	; 0x1966 <Raindrop_Simulation_1+0x736>
				{
					com74hc595_setBit(LED_4);
    1956:	80 91 61 02 	lds	r24, 0x0261
    195a:	90 91 62 02 	lds	r25, 0x0262
    195e:	0e 94 99 01 	call	0x332	; 0x332 <com74hc595_setBit>
					Brightness_5 = 0;
    1962:	10 92 2c 02 	sts	0x022C, r1
				}
			}

			if (LED_5 <= 47)
    1966:	80 91 8a 02 	lds	r24, 0x028A
    196a:	90 91 8b 02 	lds	r25, 0x028B
    196e:	c0 97       	sbiw	r24, 0x30	; 48
    1970:	60 f4       	brcc	.+24     	; 0x198a <Raindrop_Simulation_1+0x75a>
			{
				if (Brightness_6 == Bright_6)
    1972:	80 91 5c 02 	lds	r24, 0x025C
    1976:	8e 11       	cpse	r24, r14
    1978:	08 c0       	rjmp	.+16     	; 0x198a <Raindrop_Simulation_1+0x75a>
				{
					com74hc595_setBit(LED_5);
    197a:	80 91 8a 02 	lds	r24, 0x028A
    197e:	90 91 8b 02 	lds	r25, 0x028B
    1982:	0e 94 99 01 	call	0x332	; 0x332 <com74hc595_setBit>
					Brightness_6 = 0;
    1986:	10 92 5c 02 	sts	0x025C, r1
				}
			}
			
			if (LED_6 <= 47)
    198a:	80 91 48 02 	lds	r24, 0x0248
    198e:	90 91 49 02 	lds	r25, 0x0249
    1992:	c0 97       	sbiw	r24, 0x30	; 48
    1994:	60 f4       	brcc	.+24     	; 0x19ae <Raindrop_Simulation_1+0x77e>
			{
				if (Brightness_7 == Bright_7)
    1996:	80 91 90 02 	lds	r24, 0x0290
    199a:	8c 11       	cpse	r24, r12
    199c:	08 c0       	rjmp	.+16     	; 0x19ae <Raindrop_Simulation_1+0x77e>
				{
					com74hc595_setBit(LED_6);
    199e:	80 91 48 02 	lds	r24, 0x0248
    19a2:	90 91 49 02 	lds	r25, 0x0249
    19a6:	0e 94 99 01 	call	0x332	; 0x332 <com74hc595_setBit>
					Brightness_7 = 0;
    19aa:	10 92 90 02 	sts	0x0290, r1
				}
			}
			
			if (LED_7 <= 47)
    19ae:	80 91 5a 02 	lds	r24, 0x025A
    19b2:	90 91 5b 02 	lds	r25, 0x025B
    19b6:	c0 97       	sbiw	r24, 0x30	; 48
    19b8:	08 f0       	brcs	.+2      	; 0x19bc <Raindrop_Simulation_1+0x78c>
    19ba:	6f c2       	rjmp	.+1246   	; 0x1e9a <Raindrop_Simulation_1+0xc6a>
			{
				if (Brightness_8 == Bright_8)
    19bc:	80 91 7a 02 	lds	r24, 0x027A
    19c0:	8a 11       	cpse	r24, r10
    19c2:	6b c2       	rjmp	.+1238   	; 0x1e9a <Raindrop_Simulation_1+0xc6a>
				{
					com74hc595_setBit(LED_7);
    19c4:	80 91 5a 02 	lds	r24, 0x025A
    19c8:	90 91 5b 02 	lds	r25, 0x025B
    19cc:	0e 94 99 01 	call	0x332	; 0x332 <com74hc595_setBit>
					Brightness_8= 0;
    19d0:	10 92 7a 02 	sts	0x027A, r1
    19d4:	62 c2       	rjmp	.+1220   	; 0x1e9a <Raindrop_Simulation_1+0xc6a>
		break;	
		
		
		case 3:
		{
			if (LED_0 <= 59)							// Funktion dient dazu, dass die LED beim Erreichen der untersten LED hintereinander erlöschen
    19d6:	80 91 58 02 	lds	r24, 0x0258
    19da:	90 91 59 02 	lds	r25, 0x0259
    19de:	cc 97       	sbiw	r24, 0x3c	; 60
    19e0:	64 f4       	brge	.+24     	; 0x19fa <Raindrop_Simulation_1+0x7ca>
			{
				
				if (Brightness_1 == Bright_1)			// Je höher der Wert von Brightness abgefragt wird, desto dunkeler erscheint die LED
    19e2:	80 91 75 00 	lds	r24, 0x0075
    19e6:	8b 11       	cpse	r24, r11
    19e8:	08 c0       	rjmp	.+16     	; 0x19fa <Raindrop_Simulation_1+0x7ca>
				{
					com74hc595_setBit(LED_0);
    19ea:	80 91 58 02 	lds	r24, 0x0258
    19ee:	90 91 59 02 	lds	r25, 0x0259
    19f2:	0e 94 99 01 	call	0x332	; 0x332 <com74hc595_setBit>
					Brightness_1 = 0;
    19f6:	10 92 75 00 	sts	0x0075, r1
				}
			}
			
			if (LED_1 <= 59)
    19fa:	80 91 4a 02 	lds	r24, 0x024A
    19fe:	90 91 4b 02 	lds	r25, 0x024B
    1a02:	cc 97       	sbiw	r24, 0x3c	; 60
    1a04:	64 f4       	brge	.+24     	; 0x1a1e <Raindrop_Simulation_1+0x7ee>
			{
				if (Brightness_2 == Bright_2)
    1a06:	80 91 74 00 	lds	r24, 0x0074
    1a0a:	8d 11       	cpse	r24, r13
    1a0c:	08 c0       	rjmp	.+16     	; 0x1a1e <Raindrop_Simulation_1+0x7ee>
				{
					com74hc595_setBit(LED_1);
    1a0e:	80 91 4a 02 	lds	r24, 0x024A
    1a12:	90 91 4b 02 	lds	r25, 0x024B
    1a16:	0e 94 99 01 	call	0x332	; 0x332 <com74hc595_setBit>
					Brightness_2 = 0;
    1a1a:	10 92 74 00 	sts	0x0074, r1
				}
			}
			if (LED_2 <= 59)
    1a1e:	80 91 86 02 	lds	r24, 0x0286
    1a22:	90 91 87 02 	lds	r25, 0x0287
    1a26:	cc 97       	sbiw	r24, 0x3c	; 60
    1a28:	60 f4       	brcc	.+24     	; 0x1a42 <Raindrop_Simulation_1+0x812>
			{
				if (Brightness_3 == Bright_3)
    1a2a:	80 91 73 00 	lds	r24, 0x0073
    1a2e:	8f 11       	cpse	r24, r15
    1a30:	08 c0       	rjmp	.+16     	; 0x1a42 <Raindrop_Simulation_1+0x812>
				{
					com74hc595_setBit(LED_2);
    1a32:	80 91 86 02 	lds	r24, 0x0286
    1a36:	90 91 87 02 	lds	r25, 0x0287
    1a3a:	0e 94 99 01 	call	0x332	; 0x332 <com74hc595_setBit>
					Brightness_3 = 0;
    1a3e:	10 92 73 00 	sts	0x0073, r1
				}
			}
			
			if (LED_3 <= 59)
    1a42:	80 91 34 02 	lds	r24, 0x0234
    1a46:	90 91 35 02 	lds	r25, 0x0235
    1a4a:	cc 97       	sbiw	r24, 0x3c	; 60
    1a4c:	60 f4       	brcc	.+24     	; 0x1a66 <Raindrop_Simulation_1+0x836>
			{
				if (Brightness_4 == Bright_4)
    1a4e:	80 91 72 00 	lds	r24, 0x0072
    1a52:	81 13       	cpse	r24, r17
    1a54:	08 c0       	rjmp	.+16     	; 0x1a66 <Raindrop_Simulation_1+0x836>
				{
					com74hc595_setBit(LED_3);
    1a56:	80 91 34 02 	lds	r24, 0x0234
    1a5a:	90 91 35 02 	lds	r25, 0x0235
    1a5e:	0e 94 99 01 	call	0x332	; 0x332 <com74hc595_setBit>
					Brightness_4 = 0;
    1a62:	10 92 72 00 	sts	0x0072, r1
				}
			}

			if (LED_4 <= 71)
    1a66:	80 91 61 02 	lds	r24, 0x0261
    1a6a:	90 91 62 02 	lds	r25, 0x0262
    1a6e:	88 34       	cpi	r24, 0x48	; 72
    1a70:	91 05       	cpc	r25, r1
    1a72:	60 f4       	brcc	.+24     	; 0x1a8c <Raindrop_Simulation_1+0x85c>
			{
				if (Brightness_5 == Bright_5)
    1a74:	80 91 2c 02 	lds	r24, 0x022C
    1a78:	80 13       	cpse	r24, r16
    1a7a:	08 c0       	rjmp	.+16     	; 0x1a8c <Raindrop_Simulation_1+0x85c>
				{
					com74hc595_setBit(LED_4);
    1a7c:	80 91 61 02 	lds	r24, 0x0261
    1a80:	90 91 62 02 	lds	r25, 0x0262
    1a84:	0e 94 99 01 	call	0x332	; 0x332 <com74hc595_setBit>
					Brightness_5 = 0;
    1a88:	10 92 2c 02 	sts	0x022C, r1
				}
			}

			if (LED_5 <= 71)
    1a8c:	80 91 8a 02 	lds	r24, 0x028A
    1a90:	90 91 8b 02 	lds	r25, 0x028B
    1a94:	88 34       	cpi	r24, 0x48	; 72
    1a96:	91 05       	cpc	r25, r1
    1a98:	60 f4       	brcc	.+24     	; 0x1ab2 <Raindrop_Simulation_1+0x882>
			{
				if (Brightness_6 == Bright_6)
    1a9a:	80 91 5c 02 	lds	r24, 0x025C
    1a9e:	8e 11       	cpse	r24, r14
    1aa0:	08 c0       	rjmp	.+16     	; 0x1ab2 <Raindrop_Simulation_1+0x882>
				{
					com74hc595_setBit(LED_5);
    1aa2:	80 91 8a 02 	lds	r24, 0x028A
    1aa6:	90 91 8b 02 	lds	r25, 0x028B
    1aaa:	0e 94 99 01 	call	0x332	; 0x332 <com74hc595_setBit>
					Brightness_6 = 0;
    1aae:	10 92 5c 02 	sts	0x025C, r1
				}
			}
			
			if (LED_6 <= 71)
    1ab2:	80 91 48 02 	lds	r24, 0x0248
    1ab6:	90 91 49 02 	lds	r25, 0x0249
    1aba:	88 34       	cpi	r24, 0x48	; 72
    1abc:	91 05       	cpc	r25, r1
    1abe:	60 f4       	brcc	.+24     	; 0x1ad8 <Raindrop_Simulation_1+0x8a8>
			{
				if (Brightness_7 == Bright_7)
    1ac0:	80 91 90 02 	lds	r24, 0x0290
    1ac4:	8c 11       	cpse	r24, r12
    1ac6:	08 c0       	rjmp	.+16     	; 0x1ad8 <Raindrop_Simulation_1+0x8a8>
				{
					com74hc595_setBit(LED_6);
    1ac8:	80 91 48 02 	lds	r24, 0x0248
    1acc:	90 91 49 02 	lds	r25, 0x0249
    1ad0:	0e 94 99 01 	call	0x332	; 0x332 <com74hc595_setBit>
					Brightness_7 = 0;
    1ad4:	10 92 90 02 	sts	0x0290, r1
				}
			}
			
			if (LED_7 <= 71)
    1ad8:	80 91 5a 02 	lds	r24, 0x025A
    1adc:	90 91 5b 02 	lds	r25, 0x025B
    1ae0:	88 34       	cpi	r24, 0x48	; 72
    1ae2:	91 05       	cpc	r25, r1
    1ae4:	08 f0       	brcs	.+2      	; 0x1ae8 <Raindrop_Simulation_1+0x8b8>
    1ae6:	d9 c1       	rjmp	.+946    	; 0x1e9a <Raindrop_Simulation_1+0xc6a>
			{
				if (Brightness_8 == Bright_8)
    1ae8:	80 91 7a 02 	lds	r24, 0x027A
    1aec:	8a 11       	cpse	r24, r10
    1aee:	d5 c1       	rjmp	.+938    	; 0x1e9a <Raindrop_Simulation_1+0xc6a>
				{
					com74hc595_setBit(LED_7);
    1af0:	80 91 5a 02 	lds	r24, 0x025A
    1af4:	90 91 5b 02 	lds	r25, 0x025B
    1af8:	0e 94 99 01 	call	0x332	; 0x332 <com74hc595_setBit>
					Brightness_8= 0;
    1afc:	10 92 7a 02 	sts	0x027A, r1
    1b00:	cc c1       	rjmp	.+920    	; 0x1e9a <Raindrop_Simulation_1+0xc6a>
		break;	
		
		
		case 4:
		{
			if (LED_0 <= 83)							// Funktion dient dazu, dass die LED beim Erreichen der untersten LED hintereinander erlöschen
    1b02:	80 91 58 02 	lds	r24, 0x0258
    1b06:	90 91 59 02 	lds	r25, 0x0259
    1b0a:	84 35       	cpi	r24, 0x54	; 84
    1b0c:	91 05       	cpc	r25, r1
    1b0e:	64 f4       	brge	.+24     	; 0x1b28 <Raindrop_Simulation_1+0x8f8>
			{
				
				if (Brightness_1 == Bright_1)			// Je höher der Wert von Brightness abgefragt wird, desto dunkeler erscheint die LED
    1b10:	80 91 75 00 	lds	r24, 0x0075
    1b14:	8b 11       	cpse	r24, r11
    1b16:	08 c0       	rjmp	.+16     	; 0x1b28 <Raindrop_Simulation_1+0x8f8>
				{
					com74hc595_setBit(LED_0);
    1b18:	80 91 58 02 	lds	r24, 0x0258
    1b1c:	90 91 59 02 	lds	r25, 0x0259
    1b20:	0e 94 99 01 	call	0x332	; 0x332 <com74hc595_setBit>
					Brightness_1 = 0;
    1b24:	10 92 75 00 	sts	0x0075, r1
				}
			}
			
			if (LED_1 <= 83)
    1b28:	80 91 4a 02 	lds	r24, 0x024A
    1b2c:	90 91 4b 02 	lds	r25, 0x024B
    1b30:	84 35       	cpi	r24, 0x54	; 84
    1b32:	91 05       	cpc	r25, r1
    1b34:	64 f4       	brge	.+24     	; 0x1b4e <Raindrop_Simulation_1+0x91e>
			{
				if (Brightness_2 == Bright_2)
    1b36:	80 91 74 00 	lds	r24, 0x0074
    1b3a:	8d 11       	cpse	r24, r13
    1b3c:	08 c0       	rjmp	.+16     	; 0x1b4e <Raindrop_Simulation_1+0x91e>
				{
					com74hc595_setBit(LED_1);
    1b3e:	80 91 4a 02 	lds	r24, 0x024A
    1b42:	90 91 4b 02 	lds	r25, 0x024B
    1b46:	0e 94 99 01 	call	0x332	; 0x332 <com74hc595_setBit>
					Brightness_2 = 0;
    1b4a:	10 92 74 00 	sts	0x0074, r1
				}
			}
			if (LED_2 <= 83)
    1b4e:	80 91 86 02 	lds	r24, 0x0286
    1b52:	90 91 87 02 	lds	r25, 0x0287
    1b56:	84 35       	cpi	r24, 0x54	; 84
    1b58:	91 05       	cpc	r25, r1
    1b5a:	60 f4       	brcc	.+24     	; 0x1b74 <Raindrop_Simulation_1+0x944>
			{
				if (Brightness_3 == Bright_3)
    1b5c:	80 91 73 00 	lds	r24, 0x0073
    1b60:	8f 11       	cpse	r24, r15
    1b62:	08 c0       	rjmp	.+16     	; 0x1b74 <Raindrop_Simulation_1+0x944>
				{
					com74hc595_setBit(LED_2);
    1b64:	80 91 86 02 	lds	r24, 0x0286
    1b68:	90 91 87 02 	lds	r25, 0x0287
    1b6c:	0e 94 99 01 	call	0x332	; 0x332 <com74hc595_setBit>
					Brightness_3 = 0;
    1b70:	10 92 73 00 	sts	0x0073, r1
				}
			}
			
			if (LED_3 <= 83)
    1b74:	80 91 34 02 	lds	r24, 0x0234
    1b78:	90 91 35 02 	lds	r25, 0x0235
    1b7c:	84 35       	cpi	r24, 0x54	; 84
    1b7e:	91 05       	cpc	r25, r1
    1b80:	60 f4       	brcc	.+24     	; 0x1b9a <Raindrop_Simulation_1+0x96a>
			{
				if (Brightness_4 == Bright_4)
    1b82:	80 91 72 00 	lds	r24, 0x0072
    1b86:	81 13       	cpse	r24, r17
    1b88:	08 c0       	rjmp	.+16     	; 0x1b9a <Raindrop_Simulation_1+0x96a>
				{
					com74hc595_setBit(LED_3);
    1b8a:	80 91 34 02 	lds	r24, 0x0234
    1b8e:	90 91 35 02 	lds	r25, 0x0235
    1b92:	0e 94 99 01 	call	0x332	; 0x332 <com74hc595_setBit>
					Brightness_4 = 0;
    1b96:	10 92 72 00 	sts	0x0072, r1
				}
			}

			if (LED_4 <= 95)
    1b9a:	80 91 61 02 	lds	r24, 0x0261
    1b9e:	90 91 62 02 	lds	r25, 0x0262
    1ba2:	80 36       	cpi	r24, 0x60	; 96
    1ba4:	91 05       	cpc	r25, r1
    1ba6:	60 f4       	brcc	.+24     	; 0x1bc0 <Raindrop_Simulation_1+0x990>
			{
				if (Brightness_5 == Bright_5)
    1ba8:	80 91 2c 02 	lds	r24, 0x022C
    1bac:	80 13       	cpse	r24, r16
    1bae:	08 c0       	rjmp	.+16     	; 0x1bc0 <Raindrop_Simulation_1+0x990>
				{
					com74hc595_setBit(LED_4);
    1bb0:	80 91 61 02 	lds	r24, 0x0261
    1bb4:	90 91 62 02 	lds	r25, 0x0262
    1bb8:	0e 94 99 01 	call	0x332	; 0x332 <com74hc595_setBit>
					Brightness_5 = 0;
    1bbc:	10 92 2c 02 	sts	0x022C, r1
				}
			}

			if (LED_5 <= 95)
    1bc0:	80 91 8a 02 	lds	r24, 0x028A
    1bc4:	90 91 8b 02 	lds	r25, 0x028B
    1bc8:	80 36       	cpi	r24, 0x60	; 96
    1bca:	91 05       	cpc	r25, r1
    1bcc:	60 f4       	brcc	.+24     	; 0x1be6 <Raindrop_Simulation_1+0x9b6>
			{
				if (Brightness_6 == Bright_6)
    1bce:	80 91 5c 02 	lds	r24, 0x025C
    1bd2:	8e 11       	cpse	r24, r14
    1bd4:	08 c0       	rjmp	.+16     	; 0x1be6 <Raindrop_Simulation_1+0x9b6>
				{
					com74hc595_setBit(LED_5);
    1bd6:	80 91 8a 02 	lds	r24, 0x028A
    1bda:	90 91 8b 02 	lds	r25, 0x028B
    1bde:	0e 94 99 01 	call	0x332	; 0x332 <com74hc595_setBit>
					Brightness_6 = 0;
    1be2:	10 92 5c 02 	sts	0x025C, r1
				}
			}
			
			if (LED_6 <= 95)
    1be6:	80 91 48 02 	lds	r24, 0x0248
    1bea:	90 91 49 02 	lds	r25, 0x0249
    1bee:	80 36       	cpi	r24, 0x60	; 96
    1bf0:	91 05       	cpc	r25, r1
    1bf2:	60 f4       	brcc	.+24     	; 0x1c0c <Raindrop_Simulation_1+0x9dc>
			{
				if (Brightness_7 == Bright_7)
    1bf4:	80 91 90 02 	lds	r24, 0x0290
    1bf8:	8c 11       	cpse	r24, r12
    1bfa:	08 c0       	rjmp	.+16     	; 0x1c0c <Raindrop_Simulation_1+0x9dc>
				{
					com74hc595_setBit(LED_6);
    1bfc:	80 91 48 02 	lds	r24, 0x0248
    1c00:	90 91 49 02 	lds	r25, 0x0249
    1c04:	0e 94 99 01 	call	0x332	; 0x332 <com74hc595_setBit>
					Brightness_7 = 0;
    1c08:	10 92 90 02 	sts	0x0290, r1
				}
			}
			
			if (LED_7 <= 95)
    1c0c:	80 91 5a 02 	lds	r24, 0x025A
    1c10:	90 91 5b 02 	lds	r25, 0x025B
    1c14:	80 36       	cpi	r24, 0x60	; 96
    1c16:	91 05       	cpc	r25, r1
    1c18:	08 f0       	brcs	.+2      	; 0x1c1c <Raindrop_Simulation_1+0x9ec>
    1c1a:	3f c1       	rjmp	.+638    	; 0x1e9a <Raindrop_Simulation_1+0xc6a>
			{
				if (Brightness_8 == Bright_8)
    1c1c:	80 91 7a 02 	lds	r24, 0x027A
    1c20:	8a 11       	cpse	r24, r10
    1c22:	3b c1       	rjmp	.+630    	; 0x1e9a <Raindrop_Simulation_1+0xc6a>
				{
					com74hc595_setBit(LED_7);
    1c24:	80 91 5a 02 	lds	r24, 0x025A
    1c28:	90 91 5b 02 	lds	r25, 0x025B
    1c2c:	0e 94 99 01 	call	0x332	; 0x332 <com74hc595_setBit>
					Brightness_8= 0;
    1c30:	10 92 7a 02 	sts	0x027A, r1
    1c34:	32 c1       	rjmp	.+612    	; 0x1e9a <Raindrop_Simulation_1+0xc6a>
		break;	
		
		
		case 5:
		{
			if (LED_0 <= 107)							// Funktion dient dazu, dass die LED beim Erreichen der untersten LED hintereinander erlöschen
    1c36:	80 91 58 02 	lds	r24, 0x0258
    1c3a:	90 91 59 02 	lds	r25, 0x0259
    1c3e:	8c 36       	cpi	r24, 0x6C	; 108
    1c40:	91 05       	cpc	r25, r1
    1c42:	64 f4       	brge	.+24     	; 0x1c5c <Raindrop_Simulation_1+0xa2c>
			{
				
				if (Brightness_1 == Bright_1)			// Je höher der Wert von Brightness abgefragt wird, desto dunkeler erscheint die LED
    1c44:	80 91 75 00 	lds	r24, 0x0075
    1c48:	8b 11       	cpse	r24, r11
    1c4a:	08 c0       	rjmp	.+16     	; 0x1c5c <Raindrop_Simulation_1+0xa2c>
				{
					com74hc595_setBit(LED_0);
    1c4c:	80 91 58 02 	lds	r24, 0x0258
    1c50:	90 91 59 02 	lds	r25, 0x0259
    1c54:	0e 94 99 01 	call	0x332	; 0x332 <com74hc595_setBit>
					Brightness_1 = 0;
    1c58:	10 92 75 00 	sts	0x0075, r1
				}
			}
			
			if (LED_1 <= 107)
    1c5c:	80 91 4a 02 	lds	r24, 0x024A
    1c60:	90 91 4b 02 	lds	r25, 0x024B
    1c64:	8c 36       	cpi	r24, 0x6C	; 108
    1c66:	91 05       	cpc	r25, r1
    1c68:	64 f4       	brge	.+24     	; 0x1c82 <Raindrop_Simulation_1+0xa52>
			{
				if (Brightness_2 == Bright_2)
    1c6a:	80 91 74 00 	lds	r24, 0x0074
    1c6e:	8d 11       	cpse	r24, r13
    1c70:	08 c0       	rjmp	.+16     	; 0x1c82 <Raindrop_Simulation_1+0xa52>
				{
					com74hc595_setBit(LED_1);
    1c72:	80 91 4a 02 	lds	r24, 0x024A
    1c76:	90 91 4b 02 	lds	r25, 0x024B
    1c7a:	0e 94 99 01 	call	0x332	; 0x332 <com74hc595_setBit>
					Brightness_2 = 0;
    1c7e:	10 92 74 00 	sts	0x0074, r1
				}
			}
			if (LED_2 <= 107)
    1c82:	80 91 86 02 	lds	r24, 0x0286
    1c86:	90 91 87 02 	lds	r25, 0x0287
    1c8a:	8c 36       	cpi	r24, 0x6C	; 108
    1c8c:	91 05       	cpc	r25, r1
    1c8e:	60 f4       	brcc	.+24     	; 0x1ca8 <Raindrop_Simulation_1+0xa78>
			{
				if (Brightness_3 == Bright_3)
    1c90:	80 91 73 00 	lds	r24, 0x0073
    1c94:	8f 11       	cpse	r24, r15
    1c96:	08 c0       	rjmp	.+16     	; 0x1ca8 <Raindrop_Simulation_1+0xa78>
				{
					com74hc595_setBit(LED_2);
    1c98:	80 91 86 02 	lds	r24, 0x0286
    1c9c:	90 91 87 02 	lds	r25, 0x0287
    1ca0:	0e 94 99 01 	call	0x332	; 0x332 <com74hc595_setBit>
					Brightness_3 = 0;
    1ca4:	10 92 73 00 	sts	0x0073, r1
				}
			}
			
			if (LED_3 <= 107)
    1ca8:	80 91 34 02 	lds	r24, 0x0234
    1cac:	90 91 35 02 	lds	r25, 0x0235
    1cb0:	8c 36       	cpi	r24, 0x6C	; 108
    1cb2:	91 05       	cpc	r25, r1
    1cb4:	60 f4       	brcc	.+24     	; 0x1cce <Raindrop_Simulation_1+0xa9e>
			{
				if (Brightness_4 == Bright_4)
    1cb6:	80 91 72 00 	lds	r24, 0x0072
    1cba:	81 13       	cpse	r24, r17
    1cbc:	08 c0       	rjmp	.+16     	; 0x1cce <Raindrop_Simulation_1+0xa9e>
				{
					com74hc595_setBit(LED_3);
    1cbe:	80 91 34 02 	lds	r24, 0x0234
    1cc2:	90 91 35 02 	lds	r25, 0x0235
    1cc6:	0e 94 99 01 	call	0x332	; 0x332 <com74hc595_setBit>
					Brightness_4 = 0;
    1cca:	10 92 72 00 	sts	0x0072, r1
				}
			}

			if (LED_4 <= 119)
    1cce:	80 91 61 02 	lds	r24, 0x0261
    1cd2:	90 91 62 02 	lds	r25, 0x0262
    1cd6:	88 37       	cpi	r24, 0x78	; 120
    1cd8:	91 05       	cpc	r25, r1
    1cda:	60 f4       	brcc	.+24     	; 0x1cf4 <Raindrop_Simulation_1+0xac4>
			{
				if (Brightness_5 == Bright_5)
    1cdc:	80 91 2c 02 	lds	r24, 0x022C
    1ce0:	80 13       	cpse	r24, r16
    1ce2:	08 c0       	rjmp	.+16     	; 0x1cf4 <Raindrop_Simulation_1+0xac4>
				{
					com74hc595_setBit(LED_4);
    1ce4:	80 91 61 02 	lds	r24, 0x0261
    1ce8:	90 91 62 02 	lds	r25, 0x0262
    1cec:	0e 94 99 01 	call	0x332	; 0x332 <com74hc595_setBit>
					Brightness_5 = 0;
    1cf0:	10 92 2c 02 	sts	0x022C, r1
				}
			}

			if (LED_5 <= 119)
    1cf4:	80 91 8a 02 	lds	r24, 0x028A
    1cf8:	90 91 8b 02 	lds	r25, 0x028B
    1cfc:	88 37       	cpi	r24, 0x78	; 120
    1cfe:	91 05       	cpc	r25, r1
    1d00:	60 f4       	brcc	.+24     	; 0x1d1a <Raindrop_Simulation_1+0xaea>
			{
				if (Brightness_6 == Bright_6)
    1d02:	80 91 5c 02 	lds	r24, 0x025C
    1d06:	8e 11       	cpse	r24, r14
    1d08:	08 c0       	rjmp	.+16     	; 0x1d1a <Raindrop_Simulation_1+0xaea>
				{
					com74hc595_setBit(LED_5);
    1d0a:	80 91 8a 02 	lds	r24, 0x028A
    1d0e:	90 91 8b 02 	lds	r25, 0x028B
    1d12:	0e 94 99 01 	call	0x332	; 0x332 <com74hc595_setBit>
					Brightness_6 = 0;
    1d16:	10 92 5c 02 	sts	0x025C, r1
				}
			}
			
			if (LED_6 <= 119)
    1d1a:	80 91 48 02 	lds	r24, 0x0248
    1d1e:	90 91 49 02 	lds	r25, 0x0249
    1d22:	88 37       	cpi	r24, 0x78	; 120
    1d24:	91 05       	cpc	r25, r1
    1d26:	60 f4       	brcc	.+24     	; 0x1d40 <Raindrop_Simulation_1+0xb10>
			{
				if (Brightness_7 == Bright_7)
    1d28:	80 91 90 02 	lds	r24, 0x0290
    1d2c:	8c 11       	cpse	r24, r12
    1d2e:	08 c0       	rjmp	.+16     	; 0x1d40 <Raindrop_Simulation_1+0xb10>
				{
					com74hc595_setBit(LED_6);
    1d30:	80 91 48 02 	lds	r24, 0x0248
    1d34:	90 91 49 02 	lds	r25, 0x0249
    1d38:	0e 94 99 01 	call	0x332	; 0x332 <com74hc595_setBit>
					Brightness_7 = 0;
    1d3c:	10 92 90 02 	sts	0x0290, r1
				}
			}
			
			if (LED_7 <= 119)
    1d40:	80 91 5a 02 	lds	r24, 0x025A
    1d44:	90 91 5b 02 	lds	r25, 0x025B
    1d48:	88 37       	cpi	r24, 0x78	; 120
    1d4a:	91 05       	cpc	r25, r1
    1d4c:	08 f0       	brcs	.+2      	; 0x1d50 <Raindrop_Simulation_1+0xb20>
    1d4e:	a5 c0       	rjmp	.+330    	; 0x1e9a <Raindrop_Simulation_1+0xc6a>
			{
				if (Brightness_8 == Bright_8)
    1d50:	80 91 7a 02 	lds	r24, 0x027A
    1d54:	8a 11       	cpse	r24, r10
    1d56:	a1 c0       	rjmp	.+322    	; 0x1e9a <Raindrop_Simulation_1+0xc6a>
				{
					com74hc595_setBit(LED_7);
    1d58:	80 91 5a 02 	lds	r24, 0x025A
    1d5c:	90 91 5b 02 	lds	r25, 0x025B
    1d60:	0e 94 99 01 	call	0x332	; 0x332 <com74hc595_setBit>
					Brightness_8= 0;
    1d64:	10 92 7a 02 	sts	0x027A, r1
    1d68:	98 c0       	rjmp	.+304    	; 0x1e9a <Raindrop_Simulation_1+0xc6a>
		break;					
		
		
		case 6:
		{
			if (LED_0 <= 131)							// Funktion dient dazu, dass die LED beim Erreichen der untersten LED hintereinander erlöschen
    1d6a:	80 91 58 02 	lds	r24, 0x0258
    1d6e:	90 91 59 02 	lds	r25, 0x0259
    1d72:	84 38       	cpi	r24, 0x84	; 132
    1d74:	91 05       	cpc	r25, r1
    1d76:	64 f4       	brge	.+24     	; 0x1d90 <Raindrop_Simulation_1+0xb60>
			{
				
				if (Brightness_1 == Bright_1)			// Je höher der Wert von Brightness abgefragt wird, desto dunkeler erscheint die LED
    1d78:	80 91 75 00 	lds	r24, 0x0075
    1d7c:	8b 11       	cpse	r24, r11
    1d7e:	08 c0       	rjmp	.+16     	; 0x1d90 <Raindrop_Simulation_1+0xb60>
				{
					com74hc595_setBit(LED_0);
    1d80:	80 91 58 02 	lds	r24, 0x0258
    1d84:	90 91 59 02 	lds	r25, 0x0259
    1d88:	0e 94 99 01 	call	0x332	; 0x332 <com74hc595_setBit>
					Brightness_1 = 0;
    1d8c:	10 92 75 00 	sts	0x0075, r1
				}
			}
			
			if (LED_1 <= 131)
    1d90:	80 91 4a 02 	lds	r24, 0x024A
    1d94:	90 91 4b 02 	lds	r25, 0x024B
    1d98:	84 38       	cpi	r24, 0x84	; 132
    1d9a:	91 05       	cpc	r25, r1
    1d9c:	64 f4       	brge	.+24     	; 0x1db6 <Raindrop_Simulation_1+0xb86>
			{
				if (Brightness_2 == Bright_2)
    1d9e:	80 91 74 00 	lds	r24, 0x0074
    1da2:	8d 11       	cpse	r24, r13
    1da4:	08 c0       	rjmp	.+16     	; 0x1db6 <Raindrop_Simulation_1+0xb86>
				{
					com74hc595_setBit(LED_1);
    1da6:	80 91 4a 02 	lds	r24, 0x024A
    1daa:	90 91 4b 02 	lds	r25, 0x024B
    1dae:	0e 94 99 01 	call	0x332	; 0x332 <com74hc595_setBit>
					Brightness_2 = 0;
    1db2:	10 92 74 00 	sts	0x0074, r1
				}
			}
			if (LED_2 <= 131)
    1db6:	80 91 86 02 	lds	r24, 0x0286
    1dba:	90 91 87 02 	lds	r25, 0x0287
    1dbe:	84 38       	cpi	r24, 0x84	; 132
    1dc0:	91 05       	cpc	r25, r1
    1dc2:	60 f4       	brcc	.+24     	; 0x1ddc <Raindrop_Simulation_1+0xbac>
			{
				if (Brightness_3 == Bright_3)
    1dc4:	80 91 73 00 	lds	r24, 0x0073
    1dc8:	8f 11       	cpse	r24, r15
    1dca:	08 c0       	rjmp	.+16     	; 0x1ddc <Raindrop_Simulation_1+0xbac>
				{
					com74hc595_setBit(LED_2);
    1dcc:	80 91 86 02 	lds	r24, 0x0286
    1dd0:	90 91 87 02 	lds	r25, 0x0287
    1dd4:	0e 94 99 01 	call	0x332	; 0x332 <com74hc595_setBit>
					Brightness_3 = 0;
    1dd8:	10 92 73 00 	sts	0x0073, r1
				}
			}
			
			if (LED_3 <= 131)
    1ddc:	80 91 34 02 	lds	r24, 0x0234
    1de0:	90 91 35 02 	lds	r25, 0x0235
    1de4:	84 38       	cpi	r24, 0x84	; 132
    1de6:	91 05       	cpc	r25, r1
    1de8:	60 f4       	brcc	.+24     	; 0x1e02 <Raindrop_Simulation_1+0xbd2>
			{
				if (Brightness_4 == Bright_4)
    1dea:	80 91 72 00 	lds	r24, 0x0072
    1dee:	81 13       	cpse	r24, r17
    1df0:	08 c0       	rjmp	.+16     	; 0x1e02 <Raindrop_Simulation_1+0xbd2>
				{
					com74hc595_setBit(LED_3);
    1df2:	80 91 34 02 	lds	r24, 0x0234
    1df6:	90 91 35 02 	lds	r25, 0x0235
    1dfa:	0e 94 99 01 	call	0x332	; 0x332 <com74hc595_setBit>
					Brightness_4 = 0;
    1dfe:	10 92 72 00 	sts	0x0072, r1
				}
			}

			if (LED_4 <= 143)
    1e02:	80 91 61 02 	lds	r24, 0x0261
    1e06:	90 91 62 02 	lds	r25, 0x0262
    1e0a:	80 39       	cpi	r24, 0x90	; 144
    1e0c:	91 05       	cpc	r25, r1
    1e0e:	60 f4       	brcc	.+24     	; 0x1e28 <Raindrop_Simulation_1+0xbf8>
			{
				if (Brightness_5 == Bright_5)
    1e10:	80 91 2c 02 	lds	r24, 0x022C
    1e14:	80 13       	cpse	r24, r16
    1e16:	08 c0       	rjmp	.+16     	; 0x1e28 <Raindrop_Simulation_1+0xbf8>
				{
					com74hc595_setBit(LED_4);
    1e18:	80 91 61 02 	lds	r24, 0x0261
    1e1c:	90 91 62 02 	lds	r25, 0x0262
    1e20:	0e 94 99 01 	call	0x332	; 0x332 <com74hc595_setBit>
					Brightness_5 = 0;
    1e24:	10 92 2c 02 	sts	0x022C, r1
				}
			}

			if (LED_5 <= 143)
    1e28:	80 91 8a 02 	lds	r24, 0x028A
    1e2c:	90 91 8b 02 	lds	r25, 0x028B
    1e30:	80 39       	cpi	r24, 0x90	; 144
    1e32:	91 05       	cpc	r25, r1
    1e34:	60 f4       	brcc	.+24     	; 0x1e4e <Raindrop_Simulation_1+0xc1e>
			{
				if (Brightness_6 == Bright_6)
    1e36:	80 91 5c 02 	lds	r24, 0x025C
    1e3a:	8e 11       	cpse	r24, r14
    1e3c:	08 c0       	rjmp	.+16     	; 0x1e4e <Raindrop_Simulation_1+0xc1e>
				{
					com74hc595_setBit(LED_5);
    1e3e:	80 91 8a 02 	lds	r24, 0x028A
    1e42:	90 91 8b 02 	lds	r25, 0x028B
    1e46:	0e 94 99 01 	call	0x332	; 0x332 <com74hc595_setBit>
					Brightness_6 = 0;
    1e4a:	10 92 5c 02 	sts	0x025C, r1
				}
			}
			
			if (LED_6 <= 143)
    1e4e:	80 91 48 02 	lds	r24, 0x0248
    1e52:	90 91 49 02 	lds	r25, 0x0249
    1e56:	80 39       	cpi	r24, 0x90	; 144
    1e58:	91 05       	cpc	r25, r1
    1e5a:	60 f4       	brcc	.+24     	; 0x1e74 <Raindrop_Simulation_1+0xc44>
			{
				if (Brightness_7 == Bright_7)
    1e5c:	80 91 90 02 	lds	r24, 0x0290
    1e60:	8c 11       	cpse	r24, r12
    1e62:	08 c0       	rjmp	.+16     	; 0x1e74 <Raindrop_Simulation_1+0xc44>
				{
					com74hc595_setBit(LED_6);
    1e64:	80 91 48 02 	lds	r24, 0x0248
    1e68:	90 91 49 02 	lds	r25, 0x0249
    1e6c:	0e 94 99 01 	call	0x332	; 0x332 <com74hc595_setBit>
					Brightness_7 = 0;
    1e70:	10 92 90 02 	sts	0x0290, r1
				}
			}
			
			if (LED_7 <= 143)
    1e74:	80 91 5a 02 	lds	r24, 0x025A
    1e78:	90 91 5b 02 	lds	r25, 0x025B
    1e7c:	80 39       	cpi	r24, 0x90	; 144
    1e7e:	91 05       	cpc	r25, r1
    1e80:	60 f4       	brcc	.+24     	; 0x1e9a <Raindrop_Simulation_1+0xc6a>
			{
				if (Brightness_8 == Bright_8)
    1e82:	80 91 7a 02 	lds	r24, 0x027A
    1e86:	8a 11       	cpse	r24, r10
    1e88:	08 c0       	rjmp	.+16     	; 0x1e9a <Raindrop_Simulation_1+0xc6a>
				{
					com74hc595_setBit(LED_7);
    1e8a:	80 91 5a 02 	lds	r24, 0x025A
    1e8e:	90 91 5b 02 	lds	r25, 0x025B
    1e92:	0e 94 99 01 	call	0x332	; 0x332 <com74hc595_setBit>
					Brightness_8= 0;
    1e96:	10 92 7a 02 	sts	0x027A, r1
		}
		break;		
	}

		/* If-Funktionen werden benötigt, weil die letzten LEDs auf dem letzten Baum sonst nicht sauber erlischen */
		if (LED_0 == 144)
    1e9a:	80 91 58 02 	lds	r24, 0x0258
    1e9e:	90 91 59 02 	lds	r25, 0x0259
    1ea2:	80 39       	cpi	r24, 0x90	; 144
    1ea4:	91 05       	cpc	r25, r1
    1ea6:	31 f4       	brne	.+12     	; 0x1eb4 <Raindrop_Simulation_1+0xc84>
		{
			LED_0 = 1000;
    1ea8:	88 ee       	ldi	r24, 0xE8	; 232
    1eaa:	93 e0       	ldi	r25, 0x03	; 3
    1eac:	90 93 59 02 	sts	0x0259, r25
    1eb0:	80 93 58 02 	sts	0x0258, r24
		}
		if (LED_1 == 144)
    1eb4:	80 91 4a 02 	lds	r24, 0x024A
    1eb8:	90 91 4b 02 	lds	r25, 0x024B
    1ebc:	80 39       	cpi	r24, 0x90	; 144
    1ebe:	91 05       	cpc	r25, r1
    1ec0:	31 f4       	brne	.+12     	; 0x1ece <Raindrop_Simulation_1+0xc9e>
		{
			LED_1 = 1000;
    1ec2:	88 ee       	ldi	r24, 0xE8	; 232
    1ec4:	93 e0       	ldi	r25, 0x03	; 3
    1ec6:	90 93 4b 02 	sts	0x024B, r25
    1eca:	80 93 4a 02 	sts	0x024A, r24
		}
		if (LED_2 == 144)
    1ece:	80 91 86 02 	lds	r24, 0x0286
    1ed2:	90 91 87 02 	lds	r25, 0x0287
    1ed6:	80 39       	cpi	r24, 0x90	; 144
    1ed8:	91 05       	cpc	r25, r1
    1eda:	31 f4       	brne	.+12     	; 0x1ee8 <Raindrop_Simulation_1+0xcb8>
		{
			LED_2 = 1000;
    1edc:	88 ee       	ldi	r24, 0xE8	; 232
    1ede:	93 e0       	ldi	r25, 0x03	; 3
    1ee0:	90 93 87 02 	sts	0x0287, r25
    1ee4:	80 93 86 02 	sts	0x0286, r24
		}
		if (LED_3 == 144)
    1ee8:	80 91 34 02 	lds	r24, 0x0234
    1eec:	90 91 35 02 	lds	r25, 0x0235
    1ef0:	80 39       	cpi	r24, 0x90	; 144
    1ef2:	91 05       	cpc	r25, r1
    1ef4:	31 f4       	brne	.+12     	; 0x1f02 <Raindrop_Simulation_1+0xcd2>
		{
			LED_3 = 1000;
    1ef6:	88 ee       	ldi	r24, 0xE8	; 232
    1ef8:	93 e0       	ldi	r25, 0x03	; 3
    1efa:	90 93 35 02 	sts	0x0235, r25
    1efe:	80 93 34 02 	sts	0x0234, r24
		}		
		if (LED_4 == 144)
    1f02:	80 91 61 02 	lds	r24, 0x0261
    1f06:	90 91 62 02 	lds	r25, 0x0262
    1f0a:	80 39       	cpi	r24, 0x90	; 144
    1f0c:	91 05       	cpc	r25, r1
    1f0e:	31 f4       	brne	.+12     	; 0x1f1c <Raindrop_Simulation_1+0xcec>
		{
			LED_4 = 1000;
    1f10:	88 ee       	ldi	r24, 0xE8	; 232
    1f12:	93 e0       	ldi	r25, 0x03	; 3
    1f14:	90 93 62 02 	sts	0x0262, r25
    1f18:	80 93 61 02 	sts	0x0261, r24
		}
		if (LED_5 == 144)
    1f1c:	80 91 8a 02 	lds	r24, 0x028A
    1f20:	90 91 8b 02 	lds	r25, 0x028B
    1f24:	80 39       	cpi	r24, 0x90	; 144
    1f26:	91 05       	cpc	r25, r1
    1f28:	31 f4       	brne	.+12     	; 0x1f36 <Raindrop_Simulation_1+0xd06>
		{
			LED_5 = 1000;
    1f2a:	88 ee       	ldi	r24, 0xE8	; 232
    1f2c:	93 e0       	ldi	r25, 0x03	; 3
    1f2e:	90 93 8b 02 	sts	0x028B, r25
    1f32:	80 93 8a 02 	sts	0x028A, r24
		}
		if (LED_6 == 144)
    1f36:	80 91 48 02 	lds	r24, 0x0248
    1f3a:	90 91 49 02 	lds	r25, 0x0249
    1f3e:	80 39       	cpi	r24, 0x90	; 144
    1f40:	91 05       	cpc	r25, r1
    1f42:	31 f4       	brne	.+12     	; 0x1f50 <Raindrop_Simulation_1+0xd20>
		{
			LED_6 = 1000;
    1f44:	88 ee       	ldi	r24, 0xE8	; 232
    1f46:	93 e0       	ldi	r25, 0x03	; 3
    1f48:	90 93 49 02 	sts	0x0249, r25
    1f4c:	80 93 48 02 	sts	0x0248, r24
		}
		if (LED_7 == 144)
    1f50:	80 91 5a 02 	lds	r24, 0x025A
    1f54:	90 91 5b 02 	lds	r25, 0x025B
    1f58:	80 39       	cpi	r24, 0x90	; 144
    1f5a:	91 05       	cpc	r25, r1
    1f5c:	31 f4       	brne	.+12     	; 0x1f6a <Raindrop_Simulation_1+0xd3a>
		{
			LED_7 = 1000;
    1f5e:	88 ee       	ldi	r24, 0xE8	; 232
    1f60:	93 e0       	ldi	r25, 0x03	; 3
    1f62:	90 93 5b 02 	sts	0x025B, r25
    1f66:	80 93 5a 02 	sts	0x025A, r24
		}																	

							
		com74hc595_out();
    1f6a:	0e 94 e9 01 	call	0x3d2	; 0x3d2 <com74hc595_out>
		com74hc595_unsetBit(LED_0);
    1f6e:	80 91 58 02 	lds	r24, 0x0258
    1f72:	90 91 59 02 	lds	r25, 0x0259
    1f76:	0e 94 ae 01 	call	0x35c	; 0x35c <com74hc595_unsetBit>
		com74hc595_unsetBit(LED_1);
    1f7a:	80 91 4a 02 	lds	r24, 0x024A
    1f7e:	90 91 4b 02 	lds	r25, 0x024B
    1f82:	0e 94 ae 01 	call	0x35c	; 0x35c <com74hc595_unsetBit>
		com74hc595_unsetBit(LED_2);	
    1f86:	80 91 86 02 	lds	r24, 0x0286
    1f8a:	90 91 87 02 	lds	r25, 0x0287
    1f8e:	0e 94 ae 01 	call	0x35c	; 0x35c <com74hc595_unsetBit>
		com74hc595_unsetBit(LED_3);
    1f92:	80 91 34 02 	lds	r24, 0x0234
    1f96:	90 91 35 02 	lds	r25, 0x0235
    1f9a:	0e 94 ae 01 	call	0x35c	; 0x35c <com74hc595_unsetBit>
		com74hc595_unsetBit(LED_4);
    1f9e:	80 91 61 02 	lds	r24, 0x0261
    1fa2:	90 91 62 02 	lds	r25, 0x0262
    1fa6:	0e 94 ae 01 	call	0x35c	; 0x35c <com74hc595_unsetBit>
		com74hc595_unsetBit(LED_5);	
    1faa:	80 91 8a 02 	lds	r24, 0x028A
    1fae:	90 91 8b 02 	lds	r25, 0x028B
    1fb2:	0e 94 ae 01 	call	0x35c	; 0x35c <com74hc595_unsetBit>
		com74hc595_unsetBit(LED_6);	
    1fb6:	80 91 48 02 	lds	r24, 0x0248
    1fba:	90 91 49 02 	lds	r25, 0x0249
    1fbe:	0e 94 ae 01 	call	0x35c	; 0x35c <com74hc595_unsetBit>
		com74hc595_unsetBit(LED_7);	
    1fc2:	80 91 5a 02 	lds	r24, 0x025A
    1fc6:	90 91 5b 02 	lds	r25, 0x025B
    1fca:	0e 94 ae 01 	call	0x35c	; 0x35c <com74hc595_unsetBit>

		/* Counter zur Verzgerung des Schiebens der Brightnesssstufe zu den LED's */
		Counter ++;
    1fce:	80 91 56 02 	lds	r24, 0x0256
    1fd2:	90 91 57 02 	lds	r25, 0x0257
    1fd6:	01 96       	adiw	r24, 0x01	; 1
    1fd8:	90 93 57 02 	sts	0x0257, r25
    1fdc:	80 93 56 02 	sts	0x0256, r24
		
		
		/* Counter_1 dient der Zufälligen Geschwindigkeit der Tropfensimulation */
		Counter_1 ++;
    1fe0:	80 91 71 02 	lds	r24, 0x0271
    1fe4:	90 91 72 02 	lds	r25, 0x0272
    1fe8:	01 96       	adiw	r24, 0x01	; 1
    1fea:	90 93 72 02 	sts	0x0272, r25
    1fee:	80 93 71 02 	sts	0x0271, r24
	
		/* change_Counter_1 dient der zufälligen Änderung der Geschwindigkeit für die Tropfensimulation nach einer zufälligen Zeit */
		if (Counter_1 == change_Counter_1)
    1ff2:	20 91 71 02 	lds	r18, 0x0271
    1ff6:	30 91 72 02 	lds	r19, 0x0272
    1ffa:	80 91 66 00 	lds	r24, 0x0066
    1ffe:	90 91 67 00 	lds	r25, 0x0067
    2002:	28 17       	cp	r18, r24
    2004:	39 07       	cpc	r19, r25
    2006:	e1 f4       	brne	.+56     	; 0x2040 <Raindrop_Simulation_1+0xe10>
		{
			change_Counter_1 = (rand() % 4000)+500;
    2008:	0e 94 1e 36 	call	0x6c3c	; 0x6c3c <rand>
    200c:	60 ea       	ldi	r22, 0xA0	; 160
    200e:	7f e0       	ldi	r23, 0x0F	; 15
    2010:	0e 94 a2 35 	call	0x6b44	; 0x6b44 <__divmodhi4>
    2014:	8c 50       	subi	r24, 0x0C	; 12
    2016:	9e 4f       	sbci	r25, 0xFE	; 254
    2018:	90 93 67 00 	sts	0x0067, r25
    201c:	80 93 66 00 	sts	0x0066, r24
			Counter_1 = 0;
    2020:	10 92 72 02 	sts	0x0272, r1
    2024:	10 92 71 02 	sts	0x0271, r1
			speed = (rand() % 700)+200;
    2028:	0e 94 1e 36 	call	0x6c3c	; 0x6c3c <rand>
    202c:	6c eb       	ldi	r22, 0xBC	; 188
    202e:	72 e0       	ldi	r23, 0x02	; 2
    2030:	0e 94 a2 35 	call	0x6b44	; 0x6b44 <__divmodhi4>
    2034:	88 53       	subi	r24, 0x38	; 56
    2036:	9f 4f       	sbci	r25, 0xFF	; 255
    2038:	90 93 6b 00 	sts	0x006B, r25
    203c:	80 93 6a 00 	sts	0x006A, r24
		}
					
		/* Schiebevorgang der Brightnesssstufen von einer LED zur nächsten*/
		if (Counter >= speed)
    2040:	20 91 56 02 	lds	r18, 0x0256
    2044:	30 91 57 02 	lds	r19, 0x0257
    2048:	80 91 6a 00 	lds	r24, 0x006A
    204c:	90 91 6b 00 	lds	r25, 0x006B
    2050:	28 17       	cp	r18, r24
    2052:	39 07       	cpc	r19, r25
    2054:	08 f4       	brcc	.+2      	; 0x2058 <Raindrop_Simulation_1+0xe28>
    2056:	4c c0       	rjmp	.+152    	; 0x20f0 <Raindrop_Simulation_1+0xec0>
		{
			Counter = 0;
    2058:	10 92 57 02 	sts	0x0257, r1
    205c:	10 92 56 02 	sts	0x0256, r1
			LED_0 ++;
    2060:	80 91 58 02 	lds	r24, 0x0258
    2064:	90 91 59 02 	lds	r25, 0x0259
    2068:	01 96       	adiw	r24, 0x01	; 1
    206a:	90 93 59 02 	sts	0x0259, r25
    206e:	80 93 58 02 	sts	0x0258, r24
			LED_1 ++;
    2072:	80 91 4a 02 	lds	r24, 0x024A
    2076:	90 91 4b 02 	lds	r25, 0x024B
    207a:	01 96       	adiw	r24, 0x01	; 1
    207c:	90 93 4b 02 	sts	0x024B, r25
    2080:	80 93 4a 02 	sts	0x024A, r24
			LED_2 ++;
    2084:	80 91 86 02 	lds	r24, 0x0286
    2088:	90 91 87 02 	lds	r25, 0x0287
    208c:	01 96       	adiw	r24, 0x01	; 1
    208e:	90 93 87 02 	sts	0x0287, r25
    2092:	80 93 86 02 	sts	0x0286, r24
			LED_3 ++;
    2096:	80 91 34 02 	lds	r24, 0x0234
    209a:	90 91 35 02 	lds	r25, 0x0235
    209e:	01 96       	adiw	r24, 0x01	; 1
    20a0:	90 93 35 02 	sts	0x0235, r25
    20a4:	80 93 34 02 	sts	0x0234, r24
			LED_4 ++;
    20a8:	80 91 61 02 	lds	r24, 0x0261
    20ac:	90 91 62 02 	lds	r25, 0x0262
    20b0:	01 96       	adiw	r24, 0x01	; 1
    20b2:	90 93 62 02 	sts	0x0262, r25
    20b6:	80 93 61 02 	sts	0x0261, r24
			LED_5 ++;
    20ba:	80 91 8a 02 	lds	r24, 0x028A
    20be:	90 91 8b 02 	lds	r25, 0x028B
    20c2:	01 96       	adiw	r24, 0x01	; 1
    20c4:	90 93 8b 02 	sts	0x028B, r25
    20c8:	80 93 8a 02 	sts	0x028A, r24
			LED_6 ++;
    20cc:	80 91 48 02 	lds	r24, 0x0248
    20d0:	90 91 49 02 	lds	r25, 0x0249
    20d4:	01 96       	adiw	r24, 0x01	; 1
    20d6:	90 93 49 02 	sts	0x0249, r25
    20da:	80 93 48 02 	sts	0x0248, r24
			LED_7 ++;
    20de:	80 91 5a 02 	lds	r24, 0x025A
    20e2:	90 91 5b 02 	lds	r25, 0x025B
    20e6:	01 96       	adiw	r24, 0x01	; 1
    20e8:	90 93 5b 02 	sts	0x025B, r25
    20ec:	80 93 5a 02 	sts	0x025A, r24
		}
}
    20f0:	df 91       	pop	r29
    20f2:	cf 91       	pop	r28
    20f4:	1f 91       	pop	r17
    20f6:	0f 91       	pop	r16
    20f8:	ff 90       	pop	r15
    20fa:	ef 90       	pop	r14
    20fc:	df 90       	pop	r13
    20fe:	cf 90       	pop	r12
    2100:	bf 90       	pop	r11
    2102:	af 90       	pop	r10
    2104:	08 95       	ret

00002106 <Raindrop_Simulation_2>:

/* simulated raindrops Version "2" */
void Raindrop_Simulation_2(uint8_t Bright_1, uint8_t Bright_2, uint8_t Bright_3, uint8_t Bright_4, uint8_t Bright_5, uint8_t Bright_6, uint8_t Bright_7, uint8_t Bright_8)
{
    2106:	af 92       	push	r10
    2108:	cf 92       	push	r12
    210a:	ef 92       	push	r14
    210c:	ff 92       	push	r15
    210e:	0f 93       	push	r16
    2110:	1f 93       	push	r17
    2112:	cf 93       	push	r28
    2114:	df 93       	push	r29
    2116:	f8 2e       	mov	r15, r24
    2118:	16 2f       	mov	r17, r22
    211a:	d4 2f       	mov	r29, r20
    211c:	c2 2f       	mov	r28, r18
	
	Brightness_9 ++;
    211e:	80 91 37 02 	lds	r24, 0x0237
    2122:	8f 5f       	subi	r24, 0xFF	; 255
    2124:	80 93 37 02 	sts	0x0237, r24
	Brightness_10 ++;
    2128:	80 91 60 02 	lds	r24, 0x0260
    212c:	8f 5f       	subi	r24, 0xFF	; 255
    212e:	80 93 60 02 	sts	0x0260, r24
	Brightness_11 ++;
    2132:	80 91 33 02 	lds	r24, 0x0233
    2136:	8f 5f       	subi	r24, 0xFF	; 255
    2138:	80 93 33 02 	sts	0x0233, r24
	Brightness_12 ++;
    213c:	80 91 3f 02 	lds	r24, 0x023F
    2140:	8f 5f       	subi	r24, 0xFF	; 255
    2142:	80 93 3f 02 	sts	0x023F, r24
	Brightness_13 ++;
    2146:	80 91 4c 02 	lds	r24, 0x024C
    214a:	8f 5f       	subi	r24, 0xFF	; 255
    214c:	80 93 4c 02 	sts	0x024C, r24
	Brightness_14 ++;
    2150:	80 91 4d 02 	lds	r24, 0x024D
    2154:	8f 5f       	subi	r24, 0xFF	; 255
    2156:	80 93 4d 02 	sts	0x024D, r24
	Brightness_15 ++;
    215a:	80 91 41 02 	lds	r24, 0x0241
    215e:	8f 5f       	subi	r24, 0xFF	; 255
    2160:	80 93 41 02 	sts	0x0241, r24
	Brightness_16 ++;
    2164:	80 91 32 02 	lds	r24, 0x0232
    2168:	8f 5f       	subi	r24, 0xFF	; 255
    216a:	80 93 32 02 	sts	0x0232, r24
	
	/* Einmalige Einstellung der LEDs nach dem Wechsel des Baumteils */
	
	if (Result_Random_Generator_2 != Result_Random_Generator_2_Old)
    216e:	90 91 2d 02 	lds	r25, 0x022D
    2172:	80 91 81 02 	lds	r24, 0x0281
    2176:	98 17       	cp	r25, r24
    2178:	09 f4       	brne	.+2      	; 0x217c <Raindrop_Simulation_2+0x76>
    217a:	3b c1       	rjmp	.+630    	; 0x23f2 <Raindrop_Simulation_2+0x2ec>
	{
		Result_Random_Generator_2_Old = Result_Random_Generator_2;
    217c:	80 91 2d 02 	lds	r24, 0x022D
    2180:	80 93 81 02 	sts	0x0281, r24
		
		switch (Result_Random_Generator_2)
    2184:	80 91 2d 02 	lds	r24, 0x022D
    2188:	83 30       	cpi	r24, 0x03	; 3
    218a:	09 f4       	brne	.+2      	; 0x218e <Raindrop_Simulation_2+0x88>
    218c:	6f c0       	rjmp	.+222    	; 0x226c <Raindrop_Simulation_2+0x166>
    218e:	28 f4       	brcc	.+10     	; 0x219a <Raindrop_Simulation_2+0x94>
    2190:	81 30       	cpi	r24, 0x01	; 1
    2192:	61 f0       	breq	.+24     	; 0x21ac <Raindrop_Simulation_2+0xa6>
    2194:	82 30       	cpi	r24, 0x02	; 2
    2196:	c9 f1       	breq	.+114    	; 0x220a <Raindrop_Simulation_2+0x104>
    2198:	2c c1       	rjmp	.+600    	; 0x23f2 <Raindrop_Simulation_2+0x2ec>
    219a:	85 30       	cpi	r24, 0x05	; 5
    219c:	09 f4       	brne	.+2      	; 0x21a0 <Raindrop_Simulation_2+0x9a>
    219e:	c8 c0       	rjmp	.+400    	; 0x2330 <Raindrop_Simulation_2+0x22a>
    21a0:	08 f4       	brcc	.+2      	; 0x21a4 <Raindrop_Simulation_2+0x9e>
    21a2:	95 c0       	rjmp	.+298    	; 0x22ce <Raindrop_Simulation_2+0x1c8>
    21a4:	86 30       	cpi	r24, 0x06	; 6
    21a6:	09 f4       	brne	.+2      	; 0x21aa <Raindrop_Simulation_2+0xa4>
    21a8:	f4 c0       	rjmp	.+488    	; 0x2392 <Raindrop_Simulation_2+0x28c>
    21aa:	23 c1       	rjmp	.+582    	; 0x23f2 <Raindrop_Simulation_2+0x2ec>
		{
			case 1:
			{
				LED_8 = 0;
    21ac:	10 92 2b 02 	sts	0x022B, r1
    21b0:	10 92 2a 02 	sts	0x022A, r1
				LED_9 = 1;
    21b4:	81 e0       	ldi	r24, 0x01	; 1
    21b6:	90 e0       	ldi	r25, 0x00	; 0
    21b8:	90 93 55 02 	sts	0x0255, r25
    21bc:	80 93 54 02 	sts	0x0254, r24
				LED_10 = 2;
    21c0:	82 e0       	ldi	r24, 0x02	; 2
    21c2:	90 e0       	ldi	r25, 0x00	; 0
    21c4:	90 93 51 02 	sts	0x0251, r25
    21c8:	80 93 50 02 	sts	0x0250, r24
				LED_11 = 3;
    21cc:	83 e0       	ldi	r24, 0x03	; 3
    21ce:	90 e0       	ldi	r25, 0x00	; 0
    21d0:	90 93 47 02 	sts	0x0247, r25
    21d4:	80 93 46 02 	sts	0x0246, r24
				LED_12 = 12;
    21d8:	8c e0       	ldi	r24, 0x0C	; 12
    21da:	90 e0       	ldi	r25, 0x00	; 0
    21dc:	90 93 6e 02 	sts	0x026E, r25
    21e0:	80 93 6d 02 	sts	0x026D, r24
				LED_13 = 13;
    21e4:	8d e0       	ldi	r24, 0x0D	; 13
    21e6:	90 e0       	ldi	r25, 0x00	; 0
    21e8:	90 93 2f 02 	sts	0x022F, r25
    21ec:	80 93 2e 02 	sts	0x022E, r24
				LED_14 = 14;
    21f0:	8e e0       	ldi	r24, 0x0E	; 14
    21f2:	90 e0       	ldi	r25, 0x00	; 0
    21f4:	90 93 6c 02 	sts	0x026C, r25
    21f8:	80 93 6b 02 	sts	0x026B, r24
				LED_15 = 15;
    21fc:	8f e0       	ldi	r24, 0x0F	; 15
    21fe:	90 e0       	ldi	r25, 0x00	; 0
    2200:	90 93 68 02 	sts	0x0268, r25
    2204:	80 93 67 02 	sts	0x0267, r24
			}
			break;
    2208:	f4 c0       	rjmp	.+488    	; 0x23f2 <Raindrop_Simulation_2+0x2ec>
			
			case 2:
			{
				LED_8 = 24;
    220a:	88 e1       	ldi	r24, 0x18	; 24
    220c:	90 e0       	ldi	r25, 0x00	; 0
    220e:	90 93 2b 02 	sts	0x022B, r25
    2212:	80 93 2a 02 	sts	0x022A, r24
				LED_9 = 25;
    2216:	89 e1       	ldi	r24, 0x19	; 25
    2218:	90 e0       	ldi	r25, 0x00	; 0
    221a:	90 93 55 02 	sts	0x0255, r25
    221e:	80 93 54 02 	sts	0x0254, r24
				LED_10 = 26;
    2222:	8a e1       	ldi	r24, 0x1A	; 26
    2224:	90 e0       	ldi	r25, 0x00	; 0
    2226:	90 93 51 02 	sts	0x0251, r25
    222a:	80 93 50 02 	sts	0x0250, r24
				LED_11 = 27;
    222e:	8b e1       	ldi	r24, 0x1B	; 27
    2230:	90 e0       	ldi	r25, 0x00	; 0
    2232:	90 93 47 02 	sts	0x0247, r25
    2236:	80 93 46 02 	sts	0x0246, r24
				LED_12 = 36;
    223a:	84 e2       	ldi	r24, 0x24	; 36
    223c:	90 e0       	ldi	r25, 0x00	; 0
    223e:	90 93 6e 02 	sts	0x026E, r25
    2242:	80 93 6d 02 	sts	0x026D, r24
				LED_13 = 37;
    2246:	85 e2       	ldi	r24, 0x25	; 37
    2248:	90 e0       	ldi	r25, 0x00	; 0
    224a:	90 93 2f 02 	sts	0x022F, r25
    224e:	80 93 2e 02 	sts	0x022E, r24
				LED_14 = 38;
    2252:	86 e2       	ldi	r24, 0x26	; 38
    2254:	90 e0       	ldi	r25, 0x00	; 0
    2256:	90 93 6c 02 	sts	0x026C, r25
    225a:	80 93 6b 02 	sts	0x026B, r24
				LED_15 = 39;
    225e:	87 e2       	ldi	r24, 0x27	; 39
    2260:	90 e0       	ldi	r25, 0x00	; 0
    2262:	90 93 68 02 	sts	0x0268, r25
    2266:	80 93 67 02 	sts	0x0267, r24
			}
			break;
    226a:	c3 c0       	rjmp	.+390    	; 0x23f2 <Raindrop_Simulation_2+0x2ec>

			case 3:
			{
				LED_8 = 48;
    226c:	80 e3       	ldi	r24, 0x30	; 48
    226e:	90 e0       	ldi	r25, 0x00	; 0
    2270:	90 93 2b 02 	sts	0x022B, r25
    2274:	80 93 2a 02 	sts	0x022A, r24
				LED_9 = 49;
    2278:	81 e3       	ldi	r24, 0x31	; 49
    227a:	90 e0       	ldi	r25, 0x00	; 0
    227c:	90 93 55 02 	sts	0x0255, r25
    2280:	80 93 54 02 	sts	0x0254, r24
				LED_10 = 50;
    2284:	82 e3       	ldi	r24, 0x32	; 50
    2286:	90 e0       	ldi	r25, 0x00	; 0
    2288:	90 93 51 02 	sts	0x0251, r25
    228c:	80 93 50 02 	sts	0x0250, r24
				LED_11 = 51;
    2290:	83 e3       	ldi	r24, 0x33	; 51
    2292:	90 e0       	ldi	r25, 0x00	; 0
    2294:	90 93 47 02 	sts	0x0247, r25
    2298:	80 93 46 02 	sts	0x0246, r24
				LED_12 = 60;
    229c:	8c e3       	ldi	r24, 0x3C	; 60
    229e:	90 e0       	ldi	r25, 0x00	; 0
    22a0:	90 93 6e 02 	sts	0x026E, r25
    22a4:	80 93 6d 02 	sts	0x026D, r24
				LED_13 = 61;
    22a8:	8d e3       	ldi	r24, 0x3D	; 61
    22aa:	90 e0       	ldi	r25, 0x00	; 0
    22ac:	90 93 2f 02 	sts	0x022F, r25
    22b0:	80 93 2e 02 	sts	0x022E, r24
				LED_14 = 62;
    22b4:	8e e3       	ldi	r24, 0x3E	; 62
    22b6:	90 e0       	ldi	r25, 0x00	; 0
    22b8:	90 93 6c 02 	sts	0x026C, r25
    22bc:	80 93 6b 02 	sts	0x026B, r24
				LED_15 = 63;
    22c0:	8f e3       	ldi	r24, 0x3F	; 63
    22c2:	90 e0       	ldi	r25, 0x00	; 0
    22c4:	90 93 68 02 	sts	0x0268, r25
    22c8:	80 93 67 02 	sts	0x0267, r24
			}
			break;
    22cc:	92 c0       	rjmp	.+292    	; 0x23f2 <Raindrop_Simulation_2+0x2ec>

			case 4:
			{
				LED_8 = 72;
    22ce:	88 e4       	ldi	r24, 0x48	; 72
    22d0:	90 e0       	ldi	r25, 0x00	; 0
    22d2:	90 93 2b 02 	sts	0x022B, r25
    22d6:	80 93 2a 02 	sts	0x022A, r24
				LED_9 = 73;
    22da:	89 e4       	ldi	r24, 0x49	; 73
    22dc:	90 e0       	ldi	r25, 0x00	; 0
    22de:	90 93 55 02 	sts	0x0255, r25
    22e2:	80 93 54 02 	sts	0x0254, r24
				LED_10 = 74;
    22e6:	8a e4       	ldi	r24, 0x4A	; 74
    22e8:	90 e0       	ldi	r25, 0x00	; 0
    22ea:	90 93 51 02 	sts	0x0251, r25
    22ee:	80 93 50 02 	sts	0x0250, r24
				LED_11 = 75;
    22f2:	8b e4       	ldi	r24, 0x4B	; 75
    22f4:	90 e0       	ldi	r25, 0x00	; 0
    22f6:	90 93 47 02 	sts	0x0247, r25
    22fa:	80 93 46 02 	sts	0x0246, r24
				LED_12 = 84;
    22fe:	84 e5       	ldi	r24, 0x54	; 84
    2300:	90 e0       	ldi	r25, 0x00	; 0
    2302:	90 93 6e 02 	sts	0x026E, r25
    2306:	80 93 6d 02 	sts	0x026D, r24
				LED_13 = 85;
    230a:	85 e5       	ldi	r24, 0x55	; 85
    230c:	90 e0       	ldi	r25, 0x00	; 0
    230e:	90 93 2f 02 	sts	0x022F, r25
    2312:	80 93 2e 02 	sts	0x022E, r24
				LED_14 = 86;
    2316:	86 e5       	ldi	r24, 0x56	; 86
    2318:	90 e0       	ldi	r25, 0x00	; 0
    231a:	90 93 6c 02 	sts	0x026C, r25
    231e:	80 93 6b 02 	sts	0x026B, r24
				LED_15 = 87;
    2322:	87 e5       	ldi	r24, 0x57	; 87
    2324:	90 e0       	ldi	r25, 0x00	; 0
    2326:	90 93 68 02 	sts	0x0268, r25
    232a:	80 93 67 02 	sts	0x0267, r24
			}
			break;
    232e:	61 c0       	rjmp	.+194    	; 0x23f2 <Raindrop_Simulation_2+0x2ec>
			
			case 5:
			{
				LED_8 = 96;
    2330:	80 e6       	ldi	r24, 0x60	; 96
    2332:	90 e0       	ldi	r25, 0x00	; 0
    2334:	90 93 2b 02 	sts	0x022B, r25
    2338:	80 93 2a 02 	sts	0x022A, r24
				LED_9 = 97;
    233c:	81 e6       	ldi	r24, 0x61	; 97
    233e:	90 e0       	ldi	r25, 0x00	; 0
    2340:	90 93 55 02 	sts	0x0255, r25
    2344:	80 93 54 02 	sts	0x0254, r24
				LED_10 = 98;
    2348:	82 e6       	ldi	r24, 0x62	; 98
    234a:	90 e0       	ldi	r25, 0x00	; 0
    234c:	90 93 51 02 	sts	0x0251, r25
    2350:	80 93 50 02 	sts	0x0250, r24
				LED_11 = 99;
    2354:	83 e6       	ldi	r24, 0x63	; 99
    2356:	90 e0       	ldi	r25, 0x00	; 0
    2358:	90 93 47 02 	sts	0x0247, r25
    235c:	80 93 46 02 	sts	0x0246, r24
				LED_12 = 108;
    2360:	8c e6       	ldi	r24, 0x6C	; 108
    2362:	90 e0       	ldi	r25, 0x00	; 0
    2364:	90 93 6e 02 	sts	0x026E, r25
    2368:	80 93 6d 02 	sts	0x026D, r24
				LED_13 = 109;
    236c:	8d e6       	ldi	r24, 0x6D	; 109
    236e:	90 e0       	ldi	r25, 0x00	; 0
    2370:	90 93 2f 02 	sts	0x022F, r25
    2374:	80 93 2e 02 	sts	0x022E, r24
				LED_14 = 110;
    2378:	8e e6       	ldi	r24, 0x6E	; 110
    237a:	90 e0       	ldi	r25, 0x00	; 0
    237c:	90 93 6c 02 	sts	0x026C, r25
    2380:	80 93 6b 02 	sts	0x026B, r24
				LED_15 = 111;
    2384:	8f e6       	ldi	r24, 0x6F	; 111
    2386:	90 e0       	ldi	r25, 0x00	; 0
    2388:	90 93 68 02 	sts	0x0268, r25
    238c:	80 93 67 02 	sts	0x0267, r24
			}
			break;
    2390:	30 c0       	rjmp	.+96     	; 0x23f2 <Raindrop_Simulation_2+0x2ec>

			case 6:
			{
				LED_8 = 120;
    2392:	88 e7       	ldi	r24, 0x78	; 120
    2394:	90 e0       	ldi	r25, 0x00	; 0
    2396:	90 93 2b 02 	sts	0x022B, r25
    239a:	80 93 2a 02 	sts	0x022A, r24
				LED_9 = 121;
    239e:	89 e7       	ldi	r24, 0x79	; 121
    23a0:	90 e0       	ldi	r25, 0x00	; 0
    23a2:	90 93 55 02 	sts	0x0255, r25
    23a6:	80 93 54 02 	sts	0x0254, r24
				LED_10 = 122;
    23aa:	8a e7       	ldi	r24, 0x7A	; 122
    23ac:	90 e0       	ldi	r25, 0x00	; 0
    23ae:	90 93 51 02 	sts	0x0251, r25
    23b2:	80 93 50 02 	sts	0x0250, r24
				LED_11 = 123;
    23b6:	8b e7       	ldi	r24, 0x7B	; 123
    23b8:	90 e0       	ldi	r25, 0x00	; 0
    23ba:	90 93 47 02 	sts	0x0247, r25
    23be:	80 93 46 02 	sts	0x0246, r24
				LED_12 = 132;
    23c2:	84 e8       	ldi	r24, 0x84	; 132
    23c4:	90 e0       	ldi	r25, 0x00	; 0
    23c6:	90 93 6e 02 	sts	0x026E, r25
    23ca:	80 93 6d 02 	sts	0x026D, r24
				LED_13 = 133;
    23ce:	85 e8       	ldi	r24, 0x85	; 133
    23d0:	90 e0       	ldi	r25, 0x00	; 0
    23d2:	90 93 2f 02 	sts	0x022F, r25
    23d6:	80 93 2e 02 	sts	0x022E, r24
				LED_14 = 134;
    23da:	86 e8       	ldi	r24, 0x86	; 134
    23dc:	90 e0       	ldi	r25, 0x00	; 0
    23de:	90 93 6c 02 	sts	0x026C, r25
    23e2:	80 93 6b 02 	sts	0x026B, r24
				LED_15 = 135;
    23e6:	87 e8       	ldi	r24, 0x87	; 135
    23e8:	90 e0       	ldi	r25, 0x00	; 0
    23ea:	90 93 68 02 	sts	0x0268, r25
    23ee:	80 93 67 02 	sts	0x0267, r24
	
	
	
	/* Zufälliger Wechsel zwischen den verschiedenen Baumteilen */
	
	switch (LED_8)
    23f2:	e0 91 2a 02 	lds	r30, 0x022A
    23f6:	f0 91 2b 02 	lds	r31, 0x022B
    23fa:	ec 33       	cpi	r30, 0x3C	; 60
    23fc:	f1 05       	cpc	r31, r1
    23fe:	29 f1       	breq	.+74     	; 0x244a <Raindrop_Simulation_2+0x344>
    2400:	30 f4       	brcc	.+12     	; 0x240e <Raindrop_Simulation_2+0x308>
    2402:	ec 30       	cpi	r30, 0x0C	; 12
    2404:	f1 05       	cpc	r31, r1
    2406:	69 f0       	breq	.+26     	; 0x2422 <Raindrop_Simulation_2+0x31c>
    2408:	b4 97       	sbiw	r30, 0x24	; 36
    240a:	a9 f0       	breq	.+42     	; 0x2436 <Raindrop_Simulation_2+0x330>
    240c:	45 c0       	rjmp	.+138    	; 0x2498 <Raindrop_Simulation_2+0x392>
    240e:	ec 36       	cpi	r30, 0x6C	; 108
    2410:	f1 05       	cpc	r31, r1
    2412:	79 f1       	breq	.+94     	; 0x2472 <Raindrop_Simulation_2+0x36c>
    2414:	e4 38       	cpi	r30, 0x84	; 132
    2416:	f1 05       	cpc	r31, r1
    2418:	b1 f1       	breq	.+108    	; 0x2486 <Raindrop_Simulation_2+0x380>
    241a:	e4 35       	cpi	r30, 0x54	; 84
    241c:	f1 05       	cpc	r31, r1
    241e:	e1 f5       	brne	.+120    	; 0x2498 <Raindrop_Simulation_2+0x392>
    2420:	1e c0       	rjmp	.+60     	; 0x245e <Raindrop_Simulation_2+0x358>
	{
		case 12:
		{
			Result_Random_Generator_2 = (rand() % 6)+1;
    2422:	0e 94 1e 36 	call	0x6c3c	; 0x6c3c <rand>
    2426:	66 e0       	ldi	r22, 0x06	; 6
    2428:	70 e0       	ldi	r23, 0x00	; 0
    242a:	0e 94 a2 35 	call	0x6b44	; 0x6b44 <__divmodhi4>
    242e:	8f 5f       	subi	r24, 0xFF	; 255
    2430:	80 93 2d 02 	sts	0x022D, r24
		}
		break;
    2434:	31 c0       	rjmp	.+98     	; 0x2498 <Raindrop_Simulation_2+0x392>
		
		case 36:
		{
			Result_Random_Generator_2 = (rand() % 6)+1;
    2436:	0e 94 1e 36 	call	0x6c3c	; 0x6c3c <rand>
    243a:	66 e0       	ldi	r22, 0x06	; 6
    243c:	70 e0       	ldi	r23, 0x00	; 0
    243e:	0e 94 a2 35 	call	0x6b44	; 0x6b44 <__divmodhi4>
    2442:	8f 5f       	subi	r24, 0xFF	; 255
    2444:	80 93 2d 02 	sts	0x022D, r24
		}
		break;
    2448:	27 c0       	rjmp	.+78     	; 0x2498 <Raindrop_Simulation_2+0x392>
		
		case 60:
		{
			Result_Random_Generator_2 = (rand() % 6)+1;
    244a:	0e 94 1e 36 	call	0x6c3c	; 0x6c3c <rand>
    244e:	66 e0       	ldi	r22, 0x06	; 6
    2450:	70 e0       	ldi	r23, 0x00	; 0
    2452:	0e 94 a2 35 	call	0x6b44	; 0x6b44 <__divmodhi4>
    2456:	8f 5f       	subi	r24, 0xFF	; 255
    2458:	80 93 2d 02 	sts	0x022D, r24
		}
		break;
    245c:	1d c0       	rjmp	.+58     	; 0x2498 <Raindrop_Simulation_2+0x392>
		
		case 84:
		{
			Result_Random_Generator_2 = (rand() % 6)+1;
    245e:	0e 94 1e 36 	call	0x6c3c	; 0x6c3c <rand>
    2462:	66 e0       	ldi	r22, 0x06	; 6
    2464:	70 e0       	ldi	r23, 0x00	; 0
    2466:	0e 94 a2 35 	call	0x6b44	; 0x6b44 <__divmodhi4>
    246a:	8f 5f       	subi	r24, 0xFF	; 255
    246c:	80 93 2d 02 	sts	0x022D, r24
		}
		break;
    2470:	13 c0       	rjmp	.+38     	; 0x2498 <Raindrop_Simulation_2+0x392>
		
		case 108:
		{
			Result_Random_Generator_2 = (rand() % 6)+1;
    2472:	0e 94 1e 36 	call	0x6c3c	; 0x6c3c <rand>
    2476:	66 e0       	ldi	r22, 0x06	; 6
    2478:	70 e0       	ldi	r23, 0x00	; 0
    247a:	0e 94 a2 35 	call	0x6b44	; 0x6b44 <__divmodhi4>
    247e:	8f 5f       	subi	r24, 0xFF	; 255
    2480:	80 93 2d 02 	sts	0x022D, r24
		}
		break;
    2484:	09 c0       	rjmp	.+18     	; 0x2498 <Raindrop_Simulation_2+0x392>
		
		case 132:
		{
			Result_Random_Generator_2 = (rand() % 6)+1;
    2486:	0e 94 1e 36 	call	0x6c3c	; 0x6c3c <rand>
    248a:	66 e0       	ldi	r22, 0x06	; 6
    248c:	70 e0       	ldi	r23, 0x00	; 0
    248e:	0e 94 a2 35 	call	0x6b44	; 0x6b44 <__divmodhi4>
    2492:	8f 5f       	subi	r24, 0xFF	; 255
    2494:	80 93 2d 02 	sts	0x022D, r24
		break;
	}
	
	
	/************* PWM-Routine *************/
	switch (Result_Random_Generator_2)
    2498:	80 91 2d 02 	lds	r24, 0x022D
    249c:	83 30       	cpi	r24, 0x03	; 3
    249e:	09 f4       	brne	.+2      	; 0x24a2 <Raindrop_Simulation_2+0x39c>
    24a0:	34 c1       	rjmp	.+616    	; 0x270a <Raindrop_Simulation_2+0x604>
    24a2:	30 f4       	brcc	.+12     	; 0x24b0 <Raindrop_Simulation_2+0x3aa>
    24a4:	81 30       	cpi	r24, 0x01	; 1
    24a6:	69 f0       	breq	.+26     	; 0x24c2 <Raindrop_Simulation_2+0x3bc>
    24a8:	82 30       	cpi	r24, 0x02	; 2
    24aa:	09 f4       	brne	.+2      	; 0x24ae <Raindrop_Simulation_2+0x3a8>
    24ac:	9c c0       	rjmp	.+312    	; 0x25e6 <Raindrop_Simulation_2+0x4e0>
    24ae:	8f c3       	rjmp	.+1822   	; 0x2bce <Raindrop_Simulation_2+0xac8>
    24b0:	85 30       	cpi	r24, 0x05	; 5
    24b2:	09 f4       	brne	.+2      	; 0x24b6 <Raindrop_Simulation_2+0x3b0>
    24b4:	5a c2       	rjmp	.+1204   	; 0x296a <Raindrop_Simulation_2+0x864>
    24b6:	08 f4       	brcc	.+2      	; 0x24ba <Raindrop_Simulation_2+0x3b4>
    24b8:	be c1       	rjmp	.+892    	; 0x2836 <Raindrop_Simulation_2+0x730>
    24ba:	86 30       	cpi	r24, 0x06	; 6
    24bc:	09 f4       	brne	.+2      	; 0x24c0 <Raindrop_Simulation_2+0x3ba>
    24be:	ef c2       	rjmp	.+1502   	; 0x2a9e <Raindrop_Simulation_2+0x998>
    24c0:	86 c3       	rjmp	.+1804   	; 0x2bce <Raindrop_Simulation_2+0xac8>
	{
		case 1:
		{
			if (LED_8 <= 11)							// Funktion dient dazu, dass die LED beim Erreichen der untersten LED hintereinander erlöschen
    24c2:	80 91 2a 02 	lds	r24, 0x022A
    24c6:	90 91 2b 02 	lds	r25, 0x022B
    24ca:	0c 97       	sbiw	r24, 0x0c	; 12
    24cc:	60 f4       	brcc	.+24     	; 0x24e6 <Raindrop_Simulation_2+0x3e0>
			{
				
				if (Brightness_9 == Bright_1)			// Je höher der Wert von Brightness abgefragt wird, desto dunkeler erscheint die LED
    24ce:	80 91 37 02 	lds	r24, 0x0237
    24d2:	8f 11       	cpse	r24, r15
    24d4:	08 c0       	rjmp	.+16     	; 0x24e6 <Raindrop_Simulation_2+0x3e0>
				{
					com74hc595_setBit(LED_8);
    24d6:	80 91 2a 02 	lds	r24, 0x022A
    24da:	90 91 2b 02 	lds	r25, 0x022B
    24de:	0e 94 99 01 	call	0x332	; 0x332 <com74hc595_setBit>
					Brightness_9 = 0;
    24e2:	10 92 37 02 	sts	0x0237, r1
				}
			}
			
			if (LED_9 <= 11)
    24e6:	80 91 54 02 	lds	r24, 0x0254
    24ea:	90 91 55 02 	lds	r25, 0x0255
    24ee:	0c 97       	sbiw	r24, 0x0c	; 12
    24f0:	60 f4       	brcc	.+24     	; 0x250a <Raindrop_Simulation_2+0x404>
			{
				if (Brightness_10 == Bright_2)
    24f2:	80 91 60 02 	lds	r24, 0x0260
    24f6:	81 13       	cpse	r24, r17
    24f8:	08 c0       	rjmp	.+16     	; 0x250a <Raindrop_Simulation_2+0x404>
				{
					com74hc595_setBit(LED_9);
    24fa:	80 91 54 02 	lds	r24, 0x0254
    24fe:	90 91 55 02 	lds	r25, 0x0255
    2502:	0e 94 99 01 	call	0x332	; 0x332 <com74hc595_setBit>
					Brightness_10 = 0;
    2506:	10 92 60 02 	sts	0x0260, r1
				}
			}
			if (LED_10 <= 11)
    250a:	80 91 50 02 	lds	r24, 0x0250
    250e:	90 91 51 02 	lds	r25, 0x0251
    2512:	0c 97       	sbiw	r24, 0x0c	; 12
    2514:	60 f4       	brcc	.+24     	; 0x252e <Raindrop_Simulation_2+0x428>
			{
				if (Brightness_11 == Bright_3)
    2516:	80 91 33 02 	lds	r24, 0x0233
    251a:	8d 13       	cpse	r24, r29
    251c:	08 c0       	rjmp	.+16     	; 0x252e <Raindrop_Simulation_2+0x428>
				{
					com74hc595_setBit(LED_10);
    251e:	80 91 50 02 	lds	r24, 0x0250
    2522:	90 91 51 02 	lds	r25, 0x0251
    2526:	0e 94 99 01 	call	0x332	; 0x332 <com74hc595_setBit>
					Brightness_11 = 0;
    252a:	10 92 33 02 	sts	0x0233, r1
				}
			}
			
			if (LED_11 <= 11)
    252e:	80 91 46 02 	lds	r24, 0x0246
    2532:	90 91 47 02 	lds	r25, 0x0247
    2536:	0c 97       	sbiw	r24, 0x0c	; 12
    2538:	60 f4       	brcc	.+24     	; 0x2552 <Raindrop_Simulation_2+0x44c>
			{
				if (Brightness_12 == Bright_4)
    253a:	80 91 3f 02 	lds	r24, 0x023F
    253e:	8c 13       	cpse	r24, r28
    2540:	08 c0       	rjmp	.+16     	; 0x2552 <Raindrop_Simulation_2+0x44c>
				{
					com74hc595_setBit(LED_11);
    2542:	80 91 46 02 	lds	r24, 0x0246
    2546:	90 91 47 02 	lds	r25, 0x0247
    254a:	0e 94 99 01 	call	0x332	; 0x332 <com74hc595_setBit>
					Brightness_12 = 0;
    254e:	10 92 3f 02 	sts	0x023F, r1
				}
			}

			if (LED_12 <= 23)
    2552:	80 91 6d 02 	lds	r24, 0x026D
    2556:	90 91 6e 02 	lds	r25, 0x026E
    255a:	48 97       	sbiw	r24, 0x18	; 24
    255c:	60 f4       	brcc	.+24     	; 0x2576 <Raindrop_Simulation_2+0x470>
			{
				if (Brightness_13 == Bright_5)
    255e:	80 91 4c 02 	lds	r24, 0x024C
    2562:	80 13       	cpse	r24, r16
    2564:	08 c0       	rjmp	.+16     	; 0x2576 <Raindrop_Simulation_2+0x470>
				{
					com74hc595_setBit(LED_12);
    2566:	80 91 6d 02 	lds	r24, 0x026D
    256a:	90 91 6e 02 	lds	r25, 0x026E
    256e:	0e 94 99 01 	call	0x332	; 0x332 <com74hc595_setBit>
					Brightness_13 = 0;
    2572:	10 92 4c 02 	sts	0x024C, r1
				}
			}

			if (LED_13 <= 23)
    2576:	80 91 2e 02 	lds	r24, 0x022E
    257a:	90 91 2f 02 	lds	r25, 0x022F
    257e:	48 97       	sbiw	r24, 0x18	; 24
    2580:	60 f4       	brcc	.+24     	; 0x259a <Raindrop_Simulation_2+0x494>
			{
				if (Brightness_14 == Bright_6)
    2582:	80 91 4d 02 	lds	r24, 0x024D
    2586:	8e 11       	cpse	r24, r14
    2588:	08 c0       	rjmp	.+16     	; 0x259a <Raindrop_Simulation_2+0x494>
				{
					com74hc595_setBit(LED_13);
    258a:	80 91 2e 02 	lds	r24, 0x022E
    258e:	90 91 2f 02 	lds	r25, 0x022F
    2592:	0e 94 99 01 	call	0x332	; 0x332 <com74hc595_setBit>
					Brightness_14 = 0;
    2596:	10 92 4d 02 	sts	0x024D, r1
				}
			}
			
			if (LED_14 <= 23)
    259a:	80 91 6b 02 	lds	r24, 0x026B
    259e:	90 91 6c 02 	lds	r25, 0x026C
    25a2:	48 97       	sbiw	r24, 0x18	; 24
    25a4:	60 f4       	brcc	.+24     	; 0x25be <Raindrop_Simulation_2+0x4b8>
			{
				if (Brightness_15 == Bright_7)
    25a6:	80 91 41 02 	lds	r24, 0x0241
    25aa:	8c 11       	cpse	r24, r12
    25ac:	08 c0       	rjmp	.+16     	; 0x25be <Raindrop_Simulation_2+0x4b8>
				{
					com74hc595_setBit(LED_14);
    25ae:	80 91 6b 02 	lds	r24, 0x026B
    25b2:	90 91 6c 02 	lds	r25, 0x026C
    25b6:	0e 94 99 01 	call	0x332	; 0x332 <com74hc595_setBit>
					Brightness_15 = 0;
    25ba:	10 92 41 02 	sts	0x0241, r1
				}
			}
			
			if (LED_15 <= 23)
    25be:	80 91 67 02 	lds	r24, 0x0267
    25c2:	90 91 68 02 	lds	r25, 0x0268
    25c6:	48 97       	sbiw	r24, 0x18	; 24
    25c8:	08 f0       	brcs	.+2      	; 0x25cc <Raindrop_Simulation_2+0x4c6>
    25ca:	01 c3       	rjmp	.+1538   	; 0x2bce <Raindrop_Simulation_2+0xac8>
			{
				if (Brightness_16 == Bright_8)
    25cc:	80 91 32 02 	lds	r24, 0x0232
    25d0:	8a 11       	cpse	r24, r10
    25d2:	fd c2       	rjmp	.+1530   	; 0x2bce <Raindrop_Simulation_2+0xac8>
				{
					com74hc595_setBit(LED_15);
    25d4:	80 91 67 02 	lds	r24, 0x0267
    25d8:	90 91 68 02 	lds	r25, 0x0268
    25dc:	0e 94 99 01 	call	0x332	; 0x332 <com74hc595_setBit>
					Brightness_16= 0;
    25e0:	10 92 32 02 	sts	0x0232, r1
    25e4:	f4 c2       	rjmp	.+1512   	; 0x2bce <Raindrop_Simulation_2+0xac8>
		break;
		
		
		case 2:
		{
			if (LED_8 <= 35)							// Funktion dient dazu, dass die LED beim Erreichen der untersten LED hintereinander erlöschen
    25e6:	80 91 2a 02 	lds	r24, 0x022A
    25ea:	90 91 2b 02 	lds	r25, 0x022B
    25ee:	84 97       	sbiw	r24, 0x24	; 36
    25f0:	60 f4       	brcc	.+24     	; 0x260a <Raindrop_Simulation_2+0x504>
			{
				
				if (Brightness_9 == Bright_1)			// Je höher der Wert von Brightness abgefragt wird, desto dunkeler erscheint die LED
    25f2:	80 91 37 02 	lds	r24, 0x0237
    25f6:	8f 11       	cpse	r24, r15
    25f8:	08 c0       	rjmp	.+16     	; 0x260a <Raindrop_Simulation_2+0x504>
				{
					com74hc595_setBit(LED_8);
    25fa:	80 91 2a 02 	lds	r24, 0x022A
    25fe:	90 91 2b 02 	lds	r25, 0x022B
    2602:	0e 94 99 01 	call	0x332	; 0x332 <com74hc595_setBit>
					Brightness_9 = 0;
    2606:	10 92 37 02 	sts	0x0237, r1
				}
			}
			
			if (LED_9 <= 35)
    260a:	80 91 54 02 	lds	r24, 0x0254
    260e:	90 91 55 02 	lds	r25, 0x0255
    2612:	84 97       	sbiw	r24, 0x24	; 36
    2614:	60 f4       	brcc	.+24     	; 0x262e <Raindrop_Simulation_2+0x528>
			{
				if (Brightness_10 == Bright_2)
    2616:	80 91 60 02 	lds	r24, 0x0260
    261a:	81 13       	cpse	r24, r17
    261c:	08 c0       	rjmp	.+16     	; 0x262e <Raindrop_Simulation_2+0x528>
				{
					com74hc595_setBit(LED_9);
    261e:	80 91 54 02 	lds	r24, 0x0254
    2622:	90 91 55 02 	lds	r25, 0x0255
    2626:	0e 94 99 01 	call	0x332	; 0x332 <com74hc595_setBit>
					Brightness_10 = 0;
    262a:	10 92 60 02 	sts	0x0260, r1
				}
			}
			if (LED_10 <= 35)
    262e:	80 91 50 02 	lds	r24, 0x0250
    2632:	90 91 51 02 	lds	r25, 0x0251
    2636:	84 97       	sbiw	r24, 0x24	; 36
    2638:	60 f4       	brcc	.+24     	; 0x2652 <Raindrop_Simulation_2+0x54c>
			{
				if (Brightness_11 == Bright_3)
    263a:	80 91 33 02 	lds	r24, 0x0233
    263e:	8d 13       	cpse	r24, r29
    2640:	08 c0       	rjmp	.+16     	; 0x2652 <Raindrop_Simulation_2+0x54c>
				{
					com74hc595_setBit(LED_10);
    2642:	80 91 50 02 	lds	r24, 0x0250
    2646:	90 91 51 02 	lds	r25, 0x0251
    264a:	0e 94 99 01 	call	0x332	; 0x332 <com74hc595_setBit>
					Brightness_11 = 0;
    264e:	10 92 33 02 	sts	0x0233, r1
				}
			}
			
			if (LED_11 <= 35)
    2652:	80 91 46 02 	lds	r24, 0x0246
    2656:	90 91 47 02 	lds	r25, 0x0247
    265a:	84 97       	sbiw	r24, 0x24	; 36
    265c:	60 f4       	brcc	.+24     	; 0x2676 <Raindrop_Simulation_2+0x570>
			{
				if (Brightness_12 == Bright_4)
    265e:	80 91 3f 02 	lds	r24, 0x023F
    2662:	8c 13       	cpse	r24, r28
    2664:	08 c0       	rjmp	.+16     	; 0x2676 <Raindrop_Simulation_2+0x570>
				{
					com74hc595_setBit(LED_11);
    2666:	80 91 46 02 	lds	r24, 0x0246
    266a:	90 91 47 02 	lds	r25, 0x0247
    266e:	0e 94 99 01 	call	0x332	; 0x332 <com74hc595_setBit>
					Brightness_12 = 0;
    2672:	10 92 3f 02 	sts	0x023F, r1
				}
			}

			if (LED_12 <= 47)
    2676:	80 91 6d 02 	lds	r24, 0x026D
    267a:	90 91 6e 02 	lds	r25, 0x026E
    267e:	c0 97       	sbiw	r24, 0x30	; 48
    2680:	60 f4       	brcc	.+24     	; 0x269a <Raindrop_Simulation_2+0x594>
			{
				if (Brightness_13 == Bright_5)
    2682:	80 91 4c 02 	lds	r24, 0x024C
    2686:	80 13       	cpse	r24, r16
    2688:	08 c0       	rjmp	.+16     	; 0x269a <Raindrop_Simulation_2+0x594>
				{
					com74hc595_setBit(LED_12);
    268a:	80 91 6d 02 	lds	r24, 0x026D
    268e:	90 91 6e 02 	lds	r25, 0x026E
    2692:	0e 94 99 01 	call	0x332	; 0x332 <com74hc595_setBit>
					Brightness_13 = 0;
    2696:	10 92 4c 02 	sts	0x024C, r1
				}
			}

			if (LED_13 <= 47)
    269a:	80 91 2e 02 	lds	r24, 0x022E
    269e:	90 91 2f 02 	lds	r25, 0x022F
    26a2:	c0 97       	sbiw	r24, 0x30	; 48
    26a4:	60 f4       	brcc	.+24     	; 0x26be <Raindrop_Simulation_2+0x5b8>
			{
				if (Brightness_14 == Bright_6)
    26a6:	80 91 4d 02 	lds	r24, 0x024D
    26aa:	8e 11       	cpse	r24, r14
    26ac:	08 c0       	rjmp	.+16     	; 0x26be <Raindrop_Simulation_2+0x5b8>
				{
					com74hc595_setBit(LED_13);
    26ae:	80 91 2e 02 	lds	r24, 0x022E
    26b2:	90 91 2f 02 	lds	r25, 0x022F
    26b6:	0e 94 99 01 	call	0x332	; 0x332 <com74hc595_setBit>
					Brightness_14 = 0;
    26ba:	10 92 4d 02 	sts	0x024D, r1
				}
			}
			
			if (LED_14 <= 47)
    26be:	80 91 6b 02 	lds	r24, 0x026B
    26c2:	90 91 6c 02 	lds	r25, 0x026C
    26c6:	c0 97       	sbiw	r24, 0x30	; 48
    26c8:	60 f4       	brcc	.+24     	; 0x26e2 <Raindrop_Simulation_2+0x5dc>
			{
				if (Brightness_15 == Bright_7)
    26ca:	80 91 41 02 	lds	r24, 0x0241
    26ce:	8c 11       	cpse	r24, r12
    26d0:	08 c0       	rjmp	.+16     	; 0x26e2 <Raindrop_Simulation_2+0x5dc>
				{
					com74hc595_setBit(LED_14);
    26d2:	80 91 6b 02 	lds	r24, 0x026B
    26d6:	90 91 6c 02 	lds	r25, 0x026C
    26da:	0e 94 99 01 	call	0x332	; 0x332 <com74hc595_setBit>
					Brightness_15 = 0;
    26de:	10 92 41 02 	sts	0x0241, r1
				}
			}
			
			if (LED_15 <= 47)
    26e2:	80 91 67 02 	lds	r24, 0x0267
    26e6:	90 91 68 02 	lds	r25, 0x0268
    26ea:	c0 97       	sbiw	r24, 0x30	; 48
    26ec:	08 f0       	brcs	.+2      	; 0x26f0 <Raindrop_Simulation_2+0x5ea>
    26ee:	6f c2       	rjmp	.+1246   	; 0x2bce <Raindrop_Simulation_2+0xac8>
			{
				if (Brightness_16 == Bright_8)
    26f0:	80 91 32 02 	lds	r24, 0x0232
    26f4:	8a 11       	cpse	r24, r10
    26f6:	6b c2       	rjmp	.+1238   	; 0x2bce <Raindrop_Simulation_2+0xac8>
				{
					com74hc595_setBit(LED_15);
    26f8:	80 91 67 02 	lds	r24, 0x0267
    26fc:	90 91 68 02 	lds	r25, 0x0268
    2700:	0e 94 99 01 	call	0x332	; 0x332 <com74hc595_setBit>
					Brightness_16 = 0;
    2704:	10 92 32 02 	sts	0x0232, r1
    2708:	62 c2       	rjmp	.+1220   	; 0x2bce <Raindrop_Simulation_2+0xac8>
		break;
		
		
		case 3:
		{
			if (LED_8 <= 59)							// Funktion dient dazu, dass die LED beim Erreichen der untersten LED hintereinander erlöschen
    270a:	80 91 2a 02 	lds	r24, 0x022A
    270e:	90 91 2b 02 	lds	r25, 0x022B
    2712:	cc 97       	sbiw	r24, 0x3c	; 60
    2714:	60 f4       	brcc	.+24     	; 0x272e <Raindrop_Simulation_2+0x628>
			{
				
				if (Brightness_9 == Bright_1)			// Je höher der Wert von Brightness abgefragt wird, desto dunkeler erscheint die LED
    2716:	80 91 37 02 	lds	r24, 0x0237
    271a:	8f 11       	cpse	r24, r15
    271c:	08 c0       	rjmp	.+16     	; 0x272e <Raindrop_Simulation_2+0x628>
				{
					com74hc595_setBit(LED_8);
    271e:	80 91 2a 02 	lds	r24, 0x022A
    2722:	90 91 2b 02 	lds	r25, 0x022B
    2726:	0e 94 99 01 	call	0x332	; 0x332 <com74hc595_setBit>
					Brightness_9 = 0;
    272a:	10 92 37 02 	sts	0x0237, r1
				}
			}
			
			if (LED_9 <= 59)
    272e:	80 91 54 02 	lds	r24, 0x0254
    2732:	90 91 55 02 	lds	r25, 0x0255
    2736:	cc 97       	sbiw	r24, 0x3c	; 60
    2738:	60 f4       	brcc	.+24     	; 0x2752 <Raindrop_Simulation_2+0x64c>
			{
				if (Brightness_10 == Bright_2)
    273a:	80 91 60 02 	lds	r24, 0x0260
    273e:	81 13       	cpse	r24, r17
    2740:	08 c0       	rjmp	.+16     	; 0x2752 <Raindrop_Simulation_2+0x64c>
				{
					com74hc595_setBit(LED_9);
    2742:	80 91 54 02 	lds	r24, 0x0254
    2746:	90 91 55 02 	lds	r25, 0x0255
    274a:	0e 94 99 01 	call	0x332	; 0x332 <com74hc595_setBit>
					Brightness_10 = 0;
    274e:	10 92 60 02 	sts	0x0260, r1
				}
			}
			if (LED_10 <= 59)
    2752:	80 91 50 02 	lds	r24, 0x0250
    2756:	90 91 51 02 	lds	r25, 0x0251
    275a:	cc 97       	sbiw	r24, 0x3c	; 60
    275c:	60 f4       	brcc	.+24     	; 0x2776 <Raindrop_Simulation_2+0x670>
			{
				if (Brightness_11 == Bright_3)
    275e:	80 91 33 02 	lds	r24, 0x0233
    2762:	8d 13       	cpse	r24, r29
    2764:	08 c0       	rjmp	.+16     	; 0x2776 <Raindrop_Simulation_2+0x670>
				{
					com74hc595_setBit(LED_10);
    2766:	80 91 50 02 	lds	r24, 0x0250
    276a:	90 91 51 02 	lds	r25, 0x0251
    276e:	0e 94 99 01 	call	0x332	; 0x332 <com74hc595_setBit>
					Brightness_11 = 0;
    2772:	10 92 33 02 	sts	0x0233, r1
				}
			}
			
			if (LED_11 <= 59)
    2776:	80 91 46 02 	lds	r24, 0x0246
    277a:	90 91 47 02 	lds	r25, 0x0247
    277e:	cc 97       	sbiw	r24, 0x3c	; 60
    2780:	60 f4       	brcc	.+24     	; 0x279a <Raindrop_Simulation_2+0x694>
			{
				if (Brightness_12 == Bright_4)
    2782:	80 91 3f 02 	lds	r24, 0x023F
    2786:	8c 13       	cpse	r24, r28
    2788:	08 c0       	rjmp	.+16     	; 0x279a <Raindrop_Simulation_2+0x694>
				{
					com74hc595_setBit(LED_11);
    278a:	80 91 46 02 	lds	r24, 0x0246
    278e:	90 91 47 02 	lds	r25, 0x0247
    2792:	0e 94 99 01 	call	0x332	; 0x332 <com74hc595_setBit>
					Brightness_12 = 0;
    2796:	10 92 3f 02 	sts	0x023F, r1
				}
			}

			if (LED_12 <= 71)
    279a:	80 91 6d 02 	lds	r24, 0x026D
    279e:	90 91 6e 02 	lds	r25, 0x026E
    27a2:	88 34       	cpi	r24, 0x48	; 72
    27a4:	91 05       	cpc	r25, r1
    27a6:	60 f4       	brcc	.+24     	; 0x27c0 <Raindrop_Simulation_2+0x6ba>
			{
				if (Brightness_13 == Bright_5)
    27a8:	80 91 4c 02 	lds	r24, 0x024C
    27ac:	80 13       	cpse	r24, r16
    27ae:	08 c0       	rjmp	.+16     	; 0x27c0 <Raindrop_Simulation_2+0x6ba>
				{
					com74hc595_setBit(LED_12);
    27b0:	80 91 6d 02 	lds	r24, 0x026D
    27b4:	90 91 6e 02 	lds	r25, 0x026E
    27b8:	0e 94 99 01 	call	0x332	; 0x332 <com74hc595_setBit>
					Brightness_13 = 0;
    27bc:	10 92 4c 02 	sts	0x024C, r1
				}
			}

			if (LED_13 <= 71)
    27c0:	80 91 2e 02 	lds	r24, 0x022E
    27c4:	90 91 2f 02 	lds	r25, 0x022F
    27c8:	88 34       	cpi	r24, 0x48	; 72
    27ca:	91 05       	cpc	r25, r1
    27cc:	60 f4       	brcc	.+24     	; 0x27e6 <Raindrop_Simulation_2+0x6e0>
			{
				if (Brightness_14 == Bright_6)
    27ce:	80 91 4d 02 	lds	r24, 0x024D
    27d2:	8e 11       	cpse	r24, r14
    27d4:	08 c0       	rjmp	.+16     	; 0x27e6 <Raindrop_Simulation_2+0x6e0>
				{
					com74hc595_setBit(LED_13);
    27d6:	80 91 2e 02 	lds	r24, 0x022E
    27da:	90 91 2f 02 	lds	r25, 0x022F
    27de:	0e 94 99 01 	call	0x332	; 0x332 <com74hc595_setBit>
					Brightness_14 = 0;
    27e2:	10 92 4d 02 	sts	0x024D, r1
				}
			}
			
			if (LED_14 <= 71)
    27e6:	80 91 6b 02 	lds	r24, 0x026B
    27ea:	90 91 6c 02 	lds	r25, 0x026C
    27ee:	88 34       	cpi	r24, 0x48	; 72
    27f0:	91 05       	cpc	r25, r1
    27f2:	60 f4       	brcc	.+24     	; 0x280c <Raindrop_Simulation_2+0x706>
			{
				if (Brightness_15 == Bright_7)
    27f4:	80 91 41 02 	lds	r24, 0x0241
    27f8:	8c 11       	cpse	r24, r12
    27fa:	08 c0       	rjmp	.+16     	; 0x280c <Raindrop_Simulation_2+0x706>
				{
					com74hc595_setBit(LED_14);
    27fc:	80 91 6b 02 	lds	r24, 0x026B
    2800:	90 91 6c 02 	lds	r25, 0x026C
    2804:	0e 94 99 01 	call	0x332	; 0x332 <com74hc595_setBit>
					Brightness_15 = 0;
    2808:	10 92 41 02 	sts	0x0241, r1
				}
			}
			
			if (LED_15 <= 71)
    280c:	80 91 67 02 	lds	r24, 0x0267
    2810:	90 91 68 02 	lds	r25, 0x0268
    2814:	88 34       	cpi	r24, 0x48	; 72
    2816:	91 05       	cpc	r25, r1
    2818:	08 f0       	brcs	.+2      	; 0x281c <Raindrop_Simulation_2+0x716>
    281a:	d9 c1       	rjmp	.+946    	; 0x2bce <Raindrop_Simulation_2+0xac8>
			{
				if (Brightness_16 == Bright_8)
    281c:	80 91 32 02 	lds	r24, 0x0232
    2820:	8a 11       	cpse	r24, r10
    2822:	d5 c1       	rjmp	.+938    	; 0x2bce <Raindrop_Simulation_2+0xac8>
				{
					com74hc595_setBit(LED_15);
    2824:	80 91 67 02 	lds	r24, 0x0267
    2828:	90 91 68 02 	lds	r25, 0x0268
    282c:	0e 94 99 01 	call	0x332	; 0x332 <com74hc595_setBit>
					Brightness_16 = 0;
    2830:	10 92 32 02 	sts	0x0232, r1
    2834:	cc c1       	rjmp	.+920    	; 0x2bce <Raindrop_Simulation_2+0xac8>
		break;
		
		
		case 4:
		{
			if (LED_8 <= 83)							// Funktion dient dazu, dass die LED beim Erreichen der untersten LED hintereinander erlöschen
    2836:	80 91 2a 02 	lds	r24, 0x022A
    283a:	90 91 2b 02 	lds	r25, 0x022B
    283e:	84 35       	cpi	r24, 0x54	; 84
    2840:	91 05       	cpc	r25, r1
    2842:	60 f4       	brcc	.+24     	; 0x285c <Raindrop_Simulation_2+0x756>
			{
				
				if (Brightness_9 == Bright_1)			// Je höher der Wert von Brightness abgefragt wird, desto dunkeler erscheint die LED
    2844:	80 91 37 02 	lds	r24, 0x0237
    2848:	8f 11       	cpse	r24, r15
    284a:	08 c0       	rjmp	.+16     	; 0x285c <Raindrop_Simulation_2+0x756>
				{
					com74hc595_setBit(LED_8);
    284c:	80 91 2a 02 	lds	r24, 0x022A
    2850:	90 91 2b 02 	lds	r25, 0x022B
    2854:	0e 94 99 01 	call	0x332	; 0x332 <com74hc595_setBit>
					Brightness_9 = 0;
    2858:	10 92 37 02 	sts	0x0237, r1
				}
			}
			
			if (LED_9 <= 83)
    285c:	80 91 54 02 	lds	r24, 0x0254
    2860:	90 91 55 02 	lds	r25, 0x0255
    2864:	84 35       	cpi	r24, 0x54	; 84
    2866:	91 05       	cpc	r25, r1
    2868:	60 f4       	brcc	.+24     	; 0x2882 <Raindrop_Simulation_2+0x77c>
			{
				if (Brightness_10 == Bright_2)
    286a:	80 91 60 02 	lds	r24, 0x0260
    286e:	81 13       	cpse	r24, r17
    2870:	08 c0       	rjmp	.+16     	; 0x2882 <Raindrop_Simulation_2+0x77c>
				{
					com74hc595_setBit(LED_9);
    2872:	80 91 54 02 	lds	r24, 0x0254
    2876:	90 91 55 02 	lds	r25, 0x0255
    287a:	0e 94 99 01 	call	0x332	; 0x332 <com74hc595_setBit>
					Brightness_10 = 0;
    287e:	10 92 60 02 	sts	0x0260, r1
				}
			}
			if (LED_10 <= 83)
    2882:	80 91 50 02 	lds	r24, 0x0250
    2886:	90 91 51 02 	lds	r25, 0x0251
    288a:	84 35       	cpi	r24, 0x54	; 84
    288c:	91 05       	cpc	r25, r1
    288e:	60 f4       	brcc	.+24     	; 0x28a8 <Raindrop_Simulation_2+0x7a2>
			{
				if (Brightness_11 == Bright_3)
    2890:	80 91 33 02 	lds	r24, 0x0233
    2894:	8d 13       	cpse	r24, r29
    2896:	08 c0       	rjmp	.+16     	; 0x28a8 <Raindrop_Simulation_2+0x7a2>
				{
					com74hc595_setBit(LED_10);
    2898:	80 91 50 02 	lds	r24, 0x0250
    289c:	90 91 51 02 	lds	r25, 0x0251
    28a0:	0e 94 99 01 	call	0x332	; 0x332 <com74hc595_setBit>
					Brightness_11 = 0;
    28a4:	10 92 33 02 	sts	0x0233, r1
				}
			}
			
			if (LED_11 <= 83)
    28a8:	80 91 46 02 	lds	r24, 0x0246
    28ac:	90 91 47 02 	lds	r25, 0x0247
    28b0:	84 35       	cpi	r24, 0x54	; 84
    28b2:	91 05       	cpc	r25, r1
    28b4:	60 f4       	brcc	.+24     	; 0x28ce <Raindrop_Simulation_2+0x7c8>
			{
				if (Brightness_12 == Bright_4)
    28b6:	80 91 3f 02 	lds	r24, 0x023F
    28ba:	8c 13       	cpse	r24, r28
    28bc:	08 c0       	rjmp	.+16     	; 0x28ce <Raindrop_Simulation_2+0x7c8>
				{
					com74hc595_setBit(LED_11);
    28be:	80 91 46 02 	lds	r24, 0x0246
    28c2:	90 91 47 02 	lds	r25, 0x0247
    28c6:	0e 94 99 01 	call	0x332	; 0x332 <com74hc595_setBit>
					Brightness_12 = 0;
    28ca:	10 92 3f 02 	sts	0x023F, r1
				}
			}

			if (LED_12 <= 95)
    28ce:	80 91 6d 02 	lds	r24, 0x026D
    28d2:	90 91 6e 02 	lds	r25, 0x026E
    28d6:	80 36       	cpi	r24, 0x60	; 96
    28d8:	91 05       	cpc	r25, r1
    28da:	60 f4       	brcc	.+24     	; 0x28f4 <Raindrop_Simulation_2+0x7ee>
			{
				if (Brightness_13 == Bright_5)
    28dc:	80 91 4c 02 	lds	r24, 0x024C
    28e0:	80 13       	cpse	r24, r16
    28e2:	08 c0       	rjmp	.+16     	; 0x28f4 <Raindrop_Simulation_2+0x7ee>
				{
					com74hc595_setBit(LED_12);
    28e4:	80 91 6d 02 	lds	r24, 0x026D
    28e8:	90 91 6e 02 	lds	r25, 0x026E
    28ec:	0e 94 99 01 	call	0x332	; 0x332 <com74hc595_setBit>
					Brightness_13 = 0;
    28f0:	10 92 4c 02 	sts	0x024C, r1
				}
			}

			if (LED_13 <= 95)
    28f4:	80 91 2e 02 	lds	r24, 0x022E
    28f8:	90 91 2f 02 	lds	r25, 0x022F
    28fc:	80 36       	cpi	r24, 0x60	; 96
    28fe:	91 05       	cpc	r25, r1
    2900:	60 f4       	brcc	.+24     	; 0x291a <Raindrop_Simulation_2+0x814>
			{
				if (Brightness_14 == Bright_6)
    2902:	80 91 4d 02 	lds	r24, 0x024D
    2906:	8e 11       	cpse	r24, r14
    2908:	08 c0       	rjmp	.+16     	; 0x291a <Raindrop_Simulation_2+0x814>
				{
					com74hc595_setBit(LED_13);
    290a:	80 91 2e 02 	lds	r24, 0x022E
    290e:	90 91 2f 02 	lds	r25, 0x022F
    2912:	0e 94 99 01 	call	0x332	; 0x332 <com74hc595_setBit>
					Brightness_14 = 0;
    2916:	10 92 4d 02 	sts	0x024D, r1
				}
			}
			
			if (LED_14 <= 95)
    291a:	80 91 6b 02 	lds	r24, 0x026B
    291e:	90 91 6c 02 	lds	r25, 0x026C
    2922:	80 36       	cpi	r24, 0x60	; 96
    2924:	91 05       	cpc	r25, r1
    2926:	60 f4       	brcc	.+24     	; 0x2940 <Raindrop_Simulation_2+0x83a>
			{
				if (Brightness_15 == Bright_7)
    2928:	80 91 41 02 	lds	r24, 0x0241
    292c:	8c 11       	cpse	r24, r12
    292e:	08 c0       	rjmp	.+16     	; 0x2940 <Raindrop_Simulation_2+0x83a>
				{
					com74hc595_setBit(LED_14);
    2930:	80 91 6b 02 	lds	r24, 0x026B
    2934:	90 91 6c 02 	lds	r25, 0x026C
    2938:	0e 94 99 01 	call	0x332	; 0x332 <com74hc595_setBit>
					Brightness_15 = 0;
    293c:	10 92 41 02 	sts	0x0241, r1
				}
			}
			
			if (LED_15 <= 95)
    2940:	80 91 67 02 	lds	r24, 0x0267
    2944:	90 91 68 02 	lds	r25, 0x0268
    2948:	80 36       	cpi	r24, 0x60	; 96
    294a:	91 05       	cpc	r25, r1
    294c:	08 f0       	brcs	.+2      	; 0x2950 <Raindrop_Simulation_2+0x84a>
    294e:	3f c1       	rjmp	.+638    	; 0x2bce <Raindrop_Simulation_2+0xac8>
			{
				if (Brightness_16 == Bright_8)
    2950:	80 91 32 02 	lds	r24, 0x0232
    2954:	8a 11       	cpse	r24, r10
    2956:	3b c1       	rjmp	.+630    	; 0x2bce <Raindrop_Simulation_2+0xac8>
				{
					com74hc595_setBit(LED_15);
    2958:	80 91 67 02 	lds	r24, 0x0267
    295c:	90 91 68 02 	lds	r25, 0x0268
    2960:	0e 94 99 01 	call	0x332	; 0x332 <com74hc595_setBit>
					Brightness_16 = 0;
    2964:	10 92 32 02 	sts	0x0232, r1
    2968:	32 c1       	rjmp	.+612    	; 0x2bce <Raindrop_Simulation_2+0xac8>
		break;
		
		
		case 5:
		{
			if (LED_8 <= 107)							// Funktion dient dazu, dass die LED beim Erreichen der untersten LED hintereinander erlöschen
    296a:	20 91 2a 02 	lds	r18, 0x022A
    296e:	30 91 2b 02 	lds	r19, 0x022B
    2972:	2c 36       	cpi	r18, 0x6C	; 108
    2974:	31 05       	cpc	r19, r1
    2976:	60 f4       	brcc	.+24     	; 0x2990 <Raindrop_Simulation_2+0x88a>
			{
				
				if (Brightness_9 == Bright_1)			// Je höher der Wert von Brightness abgefragt wird, desto dunkeler erscheint die LED
    2978:	80 91 37 02 	lds	r24, 0x0237
    297c:	8f 11       	cpse	r24, r15
    297e:	08 c0       	rjmp	.+16     	; 0x2990 <Raindrop_Simulation_2+0x88a>
				{
					com74hc595_setBit(LED_8);
    2980:	80 91 2a 02 	lds	r24, 0x022A
    2984:	90 91 2b 02 	lds	r25, 0x022B
    2988:	0e 94 99 01 	call	0x332	; 0x332 <com74hc595_setBit>
					Brightness_9 = 0;
    298c:	10 92 37 02 	sts	0x0237, r1
				}
			}
			
			if (LED_9 <= 107)
    2990:	80 91 54 02 	lds	r24, 0x0254
    2994:	90 91 55 02 	lds	r25, 0x0255
    2998:	8c 36       	cpi	r24, 0x6C	; 108
    299a:	91 05       	cpc	r25, r1
    299c:	60 f4       	brcc	.+24     	; 0x29b6 <Raindrop_Simulation_2+0x8b0>
			{
				if (Brightness_10 == Bright_2)
    299e:	80 91 60 02 	lds	r24, 0x0260
    29a2:	81 13       	cpse	r24, r17
    29a4:	08 c0       	rjmp	.+16     	; 0x29b6 <Raindrop_Simulation_2+0x8b0>
				{
					com74hc595_setBit(LED_9);
    29a6:	80 91 54 02 	lds	r24, 0x0254
    29aa:	90 91 55 02 	lds	r25, 0x0255
    29ae:	0e 94 99 01 	call	0x332	; 0x332 <com74hc595_setBit>
					Brightness_10 = 0;
    29b2:	10 92 60 02 	sts	0x0260, r1
				}
			}
			if (LED_10 <= 107)
    29b6:	80 91 50 02 	lds	r24, 0x0250
    29ba:	90 91 51 02 	lds	r25, 0x0251
    29be:	8c 36       	cpi	r24, 0x6C	; 108
    29c0:	91 05       	cpc	r25, r1
    29c2:	60 f4       	brcc	.+24     	; 0x29dc <Raindrop_Simulation_2+0x8d6>
			{
				if (Brightness_11 == Bright_3)
    29c4:	80 91 33 02 	lds	r24, 0x0233
    29c8:	8d 13       	cpse	r24, r29
    29ca:	08 c0       	rjmp	.+16     	; 0x29dc <Raindrop_Simulation_2+0x8d6>
				{
					com74hc595_setBit(LED_10);
    29cc:	80 91 50 02 	lds	r24, 0x0250
    29d0:	90 91 51 02 	lds	r25, 0x0251
    29d4:	0e 94 99 01 	call	0x332	; 0x332 <com74hc595_setBit>
					Brightness_11 = 0;
    29d8:	10 92 33 02 	sts	0x0233, r1
				}
			}
			
			if (LED_11 <= 107)
    29dc:	80 91 46 02 	lds	r24, 0x0246
    29e0:	90 91 47 02 	lds	r25, 0x0247
    29e4:	8c 36       	cpi	r24, 0x6C	; 108
    29e6:	91 05       	cpc	r25, r1
    29e8:	60 f4       	brcc	.+24     	; 0x2a02 <Raindrop_Simulation_2+0x8fc>
			{
				if (Brightness_12 == Bright_4)
    29ea:	80 91 3f 02 	lds	r24, 0x023F
    29ee:	8c 13       	cpse	r24, r28
    29f0:	08 c0       	rjmp	.+16     	; 0x2a02 <Raindrop_Simulation_2+0x8fc>
				{
					com74hc595_setBit(LED_11);
    29f2:	80 91 46 02 	lds	r24, 0x0246
    29f6:	90 91 47 02 	lds	r25, 0x0247
    29fa:	0e 94 99 01 	call	0x332	; 0x332 <com74hc595_setBit>
					Brightness_12 = 0;
    29fe:	10 92 3f 02 	sts	0x023F, r1
				}
			}

			if (LED_12 <= 119)
    2a02:	80 91 6d 02 	lds	r24, 0x026D
    2a06:	90 91 6e 02 	lds	r25, 0x026E
    2a0a:	88 37       	cpi	r24, 0x78	; 120
    2a0c:	91 05       	cpc	r25, r1
    2a0e:	60 f4       	brcc	.+24     	; 0x2a28 <Raindrop_Simulation_2+0x922>
			{
				if (Brightness_13 == Bright_5)
    2a10:	80 91 4c 02 	lds	r24, 0x024C
    2a14:	80 13       	cpse	r24, r16
    2a16:	08 c0       	rjmp	.+16     	; 0x2a28 <Raindrop_Simulation_2+0x922>
				{
					com74hc595_setBit(LED_12);
    2a18:	80 91 6d 02 	lds	r24, 0x026D
    2a1c:	90 91 6e 02 	lds	r25, 0x026E
    2a20:	0e 94 99 01 	call	0x332	; 0x332 <com74hc595_setBit>
					Brightness_13 = 0;
    2a24:	10 92 4c 02 	sts	0x024C, r1
				}
			}

			if (LED_13 <= 119)
    2a28:	80 91 2e 02 	lds	r24, 0x022E
    2a2c:	90 91 2f 02 	lds	r25, 0x022F
    2a30:	88 37       	cpi	r24, 0x78	; 120
    2a32:	91 05       	cpc	r25, r1
    2a34:	60 f4       	brcc	.+24     	; 0x2a4e <Raindrop_Simulation_2+0x948>
			{
				if (Brightness_14 == Bright_6)
    2a36:	80 91 4d 02 	lds	r24, 0x024D
    2a3a:	8e 11       	cpse	r24, r14
    2a3c:	08 c0       	rjmp	.+16     	; 0x2a4e <Raindrop_Simulation_2+0x948>
				{
					com74hc595_setBit(LED_13);
    2a3e:	80 91 2e 02 	lds	r24, 0x022E
    2a42:	90 91 2f 02 	lds	r25, 0x022F
    2a46:	0e 94 99 01 	call	0x332	; 0x332 <com74hc595_setBit>
					Brightness_14 = 0;
    2a4a:	10 92 4d 02 	sts	0x024D, r1
				}
			}
			
			if (LED_14 <= 119)
    2a4e:	80 91 6b 02 	lds	r24, 0x026B
    2a52:	90 91 6c 02 	lds	r25, 0x026C
    2a56:	88 37       	cpi	r24, 0x78	; 120
    2a58:	91 05       	cpc	r25, r1
    2a5a:	60 f4       	brcc	.+24     	; 0x2a74 <Raindrop_Simulation_2+0x96e>
			{
				if (Brightness_15 == Bright_7)
    2a5c:	80 91 41 02 	lds	r24, 0x0241
    2a60:	8c 11       	cpse	r24, r12
    2a62:	08 c0       	rjmp	.+16     	; 0x2a74 <Raindrop_Simulation_2+0x96e>
				{
					com74hc595_setBit(LED_14);
    2a64:	80 91 6b 02 	lds	r24, 0x026B
    2a68:	90 91 6c 02 	lds	r25, 0x026C
    2a6c:	0e 94 99 01 	call	0x332	; 0x332 <com74hc595_setBit>
					Brightness_15 = 0;
    2a70:	10 92 41 02 	sts	0x0241, r1
				}
			}
			
			if (LED_15 <= 119)
    2a74:	80 91 67 02 	lds	r24, 0x0267
    2a78:	90 91 68 02 	lds	r25, 0x0268
    2a7c:	88 37       	cpi	r24, 0x78	; 120
    2a7e:	91 05       	cpc	r25, r1
    2a80:	08 f0       	brcs	.+2      	; 0x2a84 <Raindrop_Simulation_2+0x97e>
    2a82:	a5 c0       	rjmp	.+330    	; 0x2bce <Raindrop_Simulation_2+0xac8>
			{
				if (Brightness_16 == Bright_8)
    2a84:	80 91 32 02 	lds	r24, 0x0232
    2a88:	8a 11       	cpse	r24, r10
    2a8a:	a1 c0       	rjmp	.+322    	; 0x2bce <Raindrop_Simulation_2+0xac8>
				{
					com74hc595_setBit(LED_15);
    2a8c:	80 91 67 02 	lds	r24, 0x0267
    2a90:	90 91 68 02 	lds	r25, 0x0268
    2a94:	0e 94 99 01 	call	0x332	; 0x332 <com74hc595_setBit>
					Brightness_16 = 0;
    2a98:	10 92 32 02 	sts	0x0232, r1
    2a9c:	98 c0       	rjmp	.+304    	; 0x2bce <Raindrop_Simulation_2+0xac8>
		break;
		
		
		case 6:
		{
			if (LED_8 <= 131)							// Funktion dient dazu, dass die LED beim Erreichen der untersten LED hintereinander erlöschen
    2a9e:	20 91 2a 02 	lds	r18, 0x022A
    2aa2:	30 91 2b 02 	lds	r19, 0x022B
    2aa6:	24 38       	cpi	r18, 0x84	; 132
    2aa8:	31 05       	cpc	r19, r1
    2aaa:	60 f4       	brcc	.+24     	; 0x2ac4 <Raindrop_Simulation_2+0x9be>
			{
				
				if (Brightness_9 == Bright_1)			// Je höher der Wert von Brightness abgefragt wird, desto dunkeler erscheint die LED
    2aac:	80 91 37 02 	lds	r24, 0x0237
    2ab0:	8f 11       	cpse	r24, r15
    2ab2:	08 c0       	rjmp	.+16     	; 0x2ac4 <Raindrop_Simulation_2+0x9be>
				{
					com74hc595_setBit(LED_8);
    2ab4:	80 91 2a 02 	lds	r24, 0x022A
    2ab8:	90 91 2b 02 	lds	r25, 0x022B
    2abc:	0e 94 99 01 	call	0x332	; 0x332 <com74hc595_setBit>
					Brightness_9 = 0;
    2ac0:	10 92 37 02 	sts	0x0237, r1
				}
			}
			
			if (LED_9 <= 131)
    2ac4:	80 91 54 02 	lds	r24, 0x0254
    2ac8:	90 91 55 02 	lds	r25, 0x0255
    2acc:	84 38       	cpi	r24, 0x84	; 132
    2ace:	91 05       	cpc	r25, r1
    2ad0:	60 f4       	brcc	.+24     	; 0x2aea <Raindrop_Simulation_2+0x9e4>
			{
				if (Brightness_10 == Bright_2)
    2ad2:	80 91 60 02 	lds	r24, 0x0260
    2ad6:	81 13       	cpse	r24, r17
    2ad8:	08 c0       	rjmp	.+16     	; 0x2aea <Raindrop_Simulation_2+0x9e4>
				{
					com74hc595_setBit(LED_9);
    2ada:	80 91 54 02 	lds	r24, 0x0254
    2ade:	90 91 55 02 	lds	r25, 0x0255
    2ae2:	0e 94 99 01 	call	0x332	; 0x332 <com74hc595_setBit>
					Brightness_10 = 0;
    2ae6:	10 92 60 02 	sts	0x0260, r1
				}
			}
			if (LED_10 <= 131)
    2aea:	80 91 50 02 	lds	r24, 0x0250
    2aee:	90 91 51 02 	lds	r25, 0x0251
    2af2:	84 38       	cpi	r24, 0x84	; 132
    2af4:	91 05       	cpc	r25, r1
    2af6:	60 f4       	brcc	.+24     	; 0x2b10 <Raindrop_Simulation_2+0xa0a>
			{
				if (Brightness_11 == Bright_3)
    2af8:	80 91 33 02 	lds	r24, 0x0233
    2afc:	8d 13       	cpse	r24, r29
    2afe:	08 c0       	rjmp	.+16     	; 0x2b10 <Raindrop_Simulation_2+0xa0a>
				{
					com74hc595_setBit(LED_10);
    2b00:	80 91 50 02 	lds	r24, 0x0250
    2b04:	90 91 51 02 	lds	r25, 0x0251
    2b08:	0e 94 99 01 	call	0x332	; 0x332 <com74hc595_setBit>
					Brightness_11 = 0;
    2b0c:	10 92 33 02 	sts	0x0233, r1
				}
			}
			
			if (LED_11 <= 131)
    2b10:	80 91 46 02 	lds	r24, 0x0246
    2b14:	90 91 47 02 	lds	r25, 0x0247
    2b18:	84 38       	cpi	r24, 0x84	; 132
    2b1a:	91 05       	cpc	r25, r1
    2b1c:	60 f4       	brcc	.+24     	; 0x2b36 <Raindrop_Simulation_2+0xa30>
			{
				if (Brightness_12 == Bright_4)
    2b1e:	80 91 3f 02 	lds	r24, 0x023F
    2b22:	8c 13       	cpse	r24, r28
    2b24:	08 c0       	rjmp	.+16     	; 0x2b36 <Raindrop_Simulation_2+0xa30>
				{
					com74hc595_setBit(LED_11);
    2b26:	80 91 46 02 	lds	r24, 0x0246
    2b2a:	90 91 47 02 	lds	r25, 0x0247
    2b2e:	0e 94 99 01 	call	0x332	; 0x332 <com74hc595_setBit>
					Brightness_12 = 0;
    2b32:	10 92 3f 02 	sts	0x023F, r1
				}
			}

			if (LED_12 <= 143)
    2b36:	80 91 6d 02 	lds	r24, 0x026D
    2b3a:	90 91 6e 02 	lds	r25, 0x026E
    2b3e:	80 39       	cpi	r24, 0x90	; 144
    2b40:	91 05       	cpc	r25, r1
    2b42:	60 f4       	brcc	.+24     	; 0x2b5c <Raindrop_Simulation_2+0xa56>
			{
				if (Brightness_13 == Bright_5)
    2b44:	80 91 4c 02 	lds	r24, 0x024C
    2b48:	80 13       	cpse	r24, r16
    2b4a:	08 c0       	rjmp	.+16     	; 0x2b5c <Raindrop_Simulation_2+0xa56>
				{
					com74hc595_setBit(LED_12);
    2b4c:	80 91 6d 02 	lds	r24, 0x026D
    2b50:	90 91 6e 02 	lds	r25, 0x026E
    2b54:	0e 94 99 01 	call	0x332	; 0x332 <com74hc595_setBit>
					Brightness_13 = 0;
    2b58:	10 92 4c 02 	sts	0x024C, r1
				}
			}

			if (LED_13 <= 143)
    2b5c:	80 91 2e 02 	lds	r24, 0x022E
    2b60:	90 91 2f 02 	lds	r25, 0x022F
    2b64:	80 39       	cpi	r24, 0x90	; 144
    2b66:	91 05       	cpc	r25, r1
    2b68:	60 f4       	brcc	.+24     	; 0x2b82 <Raindrop_Simulation_2+0xa7c>
			{
				if (Brightness_14 == Bright_6)
    2b6a:	80 91 4d 02 	lds	r24, 0x024D
    2b6e:	8e 11       	cpse	r24, r14
    2b70:	08 c0       	rjmp	.+16     	; 0x2b82 <Raindrop_Simulation_2+0xa7c>
				{
					com74hc595_setBit(LED_13);
    2b72:	80 91 2e 02 	lds	r24, 0x022E
    2b76:	90 91 2f 02 	lds	r25, 0x022F
    2b7a:	0e 94 99 01 	call	0x332	; 0x332 <com74hc595_setBit>
					Brightness_14 = 0;
    2b7e:	10 92 4d 02 	sts	0x024D, r1
				}
			}
			
			if (LED_14 <= 143)
    2b82:	80 91 6b 02 	lds	r24, 0x026B
    2b86:	90 91 6c 02 	lds	r25, 0x026C
    2b8a:	80 39       	cpi	r24, 0x90	; 144
    2b8c:	91 05       	cpc	r25, r1
    2b8e:	60 f4       	brcc	.+24     	; 0x2ba8 <Raindrop_Simulation_2+0xaa2>
			{
				if (Brightness_15 == Bright_7)
    2b90:	80 91 41 02 	lds	r24, 0x0241
    2b94:	8c 11       	cpse	r24, r12
    2b96:	08 c0       	rjmp	.+16     	; 0x2ba8 <Raindrop_Simulation_2+0xaa2>
				{
					com74hc595_setBit(LED_14);
    2b98:	80 91 6b 02 	lds	r24, 0x026B
    2b9c:	90 91 6c 02 	lds	r25, 0x026C
    2ba0:	0e 94 99 01 	call	0x332	; 0x332 <com74hc595_setBit>
					Brightness_15 = 0;
    2ba4:	10 92 41 02 	sts	0x0241, r1
				}
			}
			
			if (LED_15 <= 143)
    2ba8:	80 91 67 02 	lds	r24, 0x0267
    2bac:	90 91 68 02 	lds	r25, 0x0268
    2bb0:	80 39       	cpi	r24, 0x90	; 144
    2bb2:	91 05       	cpc	r25, r1
    2bb4:	60 f4       	brcc	.+24     	; 0x2bce <Raindrop_Simulation_2+0xac8>
			{
				if (Brightness_16 == Bright_8)
    2bb6:	80 91 32 02 	lds	r24, 0x0232
    2bba:	8a 11       	cpse	r24, r10
    2bbc:	08 c0       	rjmp	.+16     	; 0x2bce <Raindrop_Simulation_2+0xac8>
				{
					com74hc595_setBit(LED_15);
    2bbe:	80 91 67 02 	lds	r24, 0x0267
    2bc2:	90 91 68 02 	lds	r25, 0x0268
    2bc6:	0e 94 99 01 	call	0x332	; 0x332 <com74hc595_setBit>
					Brightness_16 = 0;
    2bca:	10 92 32 02 	sts	0x0232, r1
		break;
	}

	/* If-Funktionen werden benötigt, weil die letzten LEDs auf dem letzten Baum sonst nicht sauber erlischen */

	if (LED_8 == 144)
    2bce:	80 91 2a 02 	lds	r24, 0x022A
    2bd2:	90 91 2b 02 	lds	r25, 0x022B
    2bd6:	80 39       	cpi	r24, 0x90	; 144
    2bd8:	91 05       	cpc	r25, r1
    2bda:	31 f4       	brne	.+12     	; 0x2be8 <Raindrop_Simulation_2+0xae2>
	{
		LED_8 = 5000;
    2bdc:	88 e8       	ldi	r24, 0x88	; 136
    2bde:	93 e1       	ldi	r25, 0x13	; 19
    2be0:	90 93 2b 02 	sts	0x022B, r25
    2be4:	80 93 2a 02 	sts	0x022A, r24
	}
	if (LED_9 == 144)
    2be8:	80 91 54 02 	lds	r24, 0x0254
    2bec:	90 91 55 02 	lds	r25, 0x0255
    2bf0:	80 39       	cpi	r24, 0x90	; 144
    2bf2:	91 05       	cpc	r25, r1
    2bf4:	31 f4       	brne	.+12     	; 0x2c02 <Raindrop_Simulation_2+0xafc>
	{
		LED_9 = 5000;
    2bf6:	88 e8       	ldi	r24, 0x88	; 136
    2bf8:	93 e1       	ldi	r25, 0x13	; 19
    2bfa:	90 93 55 02 	sts	0x0255, r25
    2bfe:	80 93 54 02 	sts	0x0254, r24
	}
	if (LED_10 == 144)
    2c02:	80 91 50 02 	lds	r24, 0x0250
    2c06:	90 91 51 02 	lds	r25, 0x0251
    2c0a:	80 39       	cpi	r24, 0x90	; 144
    2c0c:	91 05       	cpc	r25, r1
    2c0e:	31 f4       	brne	.+12     	; 0x2c1c <Raindrop_Simulation_2+0xb16>
	{
		LED_10 = 5000;
    2c10:	88 e8       	ldi	r24, 0x88	; 136
    2c12:	93 e1       	ldi	r25, 0x13	; 19
    2c14:	90 93 51 02 	sts	0x0251, r25
    2c18:	80 93 50 02 	sts	0x0250, r24
	}
	if (LED_11 == 144)
    2c1c:	80 91 46 02 	lds	r24, 0x0246
    2c20:	90 91 47 02 	lds	r25, 0x0247
    2c24:	80 39       	cpi	r24, 0x90	; 144
    2c26:	91 05       	cpc	r25, r1
    2c28:	31 f4       	brne	.+12     	; 0x2c36 <Raindrop_Simulation_2+0xb30>
	{
		LED_11 = 5000;
    2c2a:	88 e8       	ldi	r24, 0x88	; 136
    2c2c:	93 e1       	ldi	r25, 0x13	; 19
    2c2e:	90 93 47 02 	sts	0x0247, r25
    2c32:	80 93 46 02 	sts	0x0246, r24
	}
	if (LED_12 == 144)
    2c36:	80 91 6d 02 	lds	r24, 0x026D
    2c3a:	90 91 6e 02 	lds	r25, 0x026E
    2c3e:	80 39       	cpi	r24, 0x90	; 144
    2c40:	91 05       	cpc	r25, r1
    2c42:	31 f4       	brne	.+12     	; 0x2c50 <Raindrop_Simulation_2+0xb4a>
	{
		LED_12 = 5000;
    2c44:	88 e8       	ldi	r24, 0x88	; 136
    2c46:	93 e1       	ldi	r25, 0x13	; 19
    2c48:	90 93 6e 02 	sts	0x026E, r25
    2c4c:	80 93 6d 02 	sts	0x026D, r24
	}
	if (LED_13 == 144)
    2c50:	80 91 2e 02 	lds	r24, 0x022E
    2c54:	90 91 2f 02 	lds	r25, 0x022F
    2c58:	80 39       	cpi	r24, 0x90	; 144
    2c5a:	91 05       	cpc	r25, r1
    2c5c:	31 f4       	brne	.+12     	; 0x2c6a <Raindrop_Simulation_2+0xb64>
	{
		LED_13 = 5000;
    2c5e:	88 e8       	ldi	r24, 0x88	; 136
    2c60:	93 e1       	ldi	r25, 0x13	; 19
    2c62:	90 93 2f 02 	sts	0x022F, r25
    2c66:	80 93 2e 02 	sts	0x022E, r24
	}			
	if (LED_14 == 144)
    2c6a:	80 91 6b 02 	lds	r24, 0x026B
    2c6e:	90 91 6c 02 	lds	r25, 0x026C
    2c72:	80 39       	cpi	r24, 0x90	; 144
    2c74:	91 05       	cpc	r25, r1
    2c76:	31 f4       	brne	.+12     	; 0x2c84 <Raindrop_Simulation_2+0xb7e>
	{
		LED_14 = 5000;
    2c78:	88 e8       	ldi	r24, 0x88	; 136
    2c7a:	93 e1       	ldi	r25, 0x13	; 19
    2c7c:	90 93 6c 02 	sts	0x026C, r25
    2c80:	80 93 6b 02 	sts	0x026B, r24
	}
	if (LED_15 == 144)
    2c84:	80 91 67 02 	lds	r24, 0x0267
    2c88:	90 91 68 02 	lds	r25, 0x0268
    2c8c:	80 39       	cpi	r24, 0x90	; 144
    2c8e:	91 05       	cpc	r25, r1
    2c90:	31 f4       	brne	.+12     	; 0x2c9e <Raindrop_Simulation_2+0xb98>
	{
		LED_15 = 5000;
    2c92:	88 e8       	ldi	r24, 0x88	; 136
    2c94:	93 e1       	ldi	r25, 0x13	; 19
    2c96:	90 93 68 02 	sts	0x0268, r25
    2c9a:	80 93 67 02 	sts	0x0267, r24
	}

	
	com74hc595_out();
    2c9e:	0e 94 e9 01 	call	0x3d2	; 0x3d2 <com74hc595_out>
	com74hc595_unsetBit(LED_8);
    2ca2:	80 91 2a 02 	lds	r24, 0x022A
    2ca6:	90 91 2b 02 	lds	r25, 0x022B
    2caa:	0e 94 ae 01 	call	0x35c	; 0x35c <com74hc595_unsetBit>
	com74hc595_unsetBit(LED_9);
    2cae:	80 91 54 02 	lds	r24, 0x0254
    2cb2:	90 91 55 02 	lds	r25, 0x0255
    2cb6:	0e 94 ae 01 	call	0x35c	; 0x35c <com74hc595_unsetBit>
	com74hc595_unsetBit(LED_10);
    2cba:	80 91 50 02 	lds	r24, 0x0250
    2cbe:	90 91 51 02 	lds	r25, 0x0251
    2cc2:	0e 94 ae 01 	call	0x35c	; 0x35c <com74hc595_unsetBit>
	com74hc595_unsetBit(LED_11);
    2cc6:	80 91 46 02 	lds	r24, 0x0246
    2cca:	90 91 47 02 	lds	r25, 0x0247
    2cce:	0e 94 ae 01 	call	0x35c	; 0x35c <com74hc595_unsetBit>
	com74hc595_unsetBit(LED_12);
    2cd2:	80 91 6d 02 	lds	r24, 0x026D
    2cd6:	90 91 6e 02 	lds	r25, 0x026E
    2cda:	0e 94 ae 01 	call	0x35c	; 0x35c <com74hc595_unsetBit>
	com74hc595_unsetBit(LED_13);
    2cde:	80 91 2e 02 	lds	r24, 0x022E
    2ce2:	90 91 2f 02 	lds	r25, 0x022F
    2ce6:	0e 94 ae 01 	call	0x35c	; 0x35c <com74hc595_unsetBit>
	com74hc595_unsetBit(LED_14);
    2cea:	80 91 6b 02 	lds	r24, 0x026B
    2cee:	90 91 6c 02 	lds	r25, 0x026C
    2cf2:	0e 94 ae 01 	call	0x35c	; 0x35c <com74hc595_unsetBit>
	com74hc595_unsetBit(LED_15);
    2cf6:	80 91 67 02 	lds	r24, 0x0267
    2cfa:	90 91 68 02 	lds	r25, 0x0268
    2cfe:	0e 94 ae 01 	call	0x35c	; 0x35c <com74hc595_unsetBit>

	/* Counter zur Verzgerung des Schiebens der Brightnesssstufe zu den LED's */
	Counter_2 ++;
    2d02:	80 91 84 02 	lds	r24, 0x0284
    2d06:	90 91 85 02 	lds	r25, 0x0285
    2d0a:	01 96       	adiw	r24, 0x01	; 1
    2d0c:	90 93 85 02 	sts	0x0285, r25
    2d10:	80 93 84 02 	sts	0x0284, r24
	
	
	/* Counter_1 dient der Zufälligen Geschwindigkeit der Tropfensimulation */
	
	Counter_3 ++;
    2d14:	80 91 82 02 	lds	r24, 0x0282
    2d18:	90 91 83 02 	lds	r25, 0x0283
    2d1c:	01 96       	adiw	r24, 0x01	; 1
    2d1e:	90 93 83 02 	sts	0x0283, r25
    2d22:	80 93 82 02 	sts	0x0282, r24
	
	/* change_Counter_1 dient der zufälligen Änderung der Geschwindigkeit für die Tropfensimulation nach einer zufälligen Zeit */
	
	if (Counter_3 == change_Counter_2)
    2d26:	20 91 82 02 	lds	r18, 0x0282
    2d2a:	30 91 83 02 	lds	r19, 0x0283
    2d2e:	80 91 64 00 	lds	r24, 0x0064
    2d32:	90 91 65 00 	lds	r25, 0x0065
    2d36:	28 17       	cp	r18, r24
    2d38:	39 07       	cpc	r19, r25
    2d3a:	e1 f4       	brne	.+56     	; 0x2d74 <Raindrop_Simulation_2+0xc6e>
	{
		change_Counter_2 = (rand() % 4000)+500;
    2d3c:	0e 94 1e 36 	call	0x6c3c	; 0x6c3c <rand>
    2d40:	60 ea       	ldi	r22, 0xA0	; 160
    2d42:	7f e0       	ldi	r23, 0x0F	; 15
    2d44:	0e 94 a2 35 	call	0x6b44	; 0x6b44 <__divmodhi4>
    2d48:	8c 50       	subi	r24, 0x0C	; 12
    2d4a:	9e 4f       	sbci	r25, 0xFE	; 254
    2d4c:	90 93 65 00 	sts	0x0065, r25
    2d50:	80 93 64 00 	sts	0x0064, r24
		Counter_3 = 0;
    2d54:	10 92 83 02 	sts	0x0283, r1
    2d58:	10 92 82 02 	sts	0x0282, r1
		speed_1 = (rand() % 700)+200;
    2d5c:	0e 94 1e 36 	call	0x6c3c	; 0x6c3c <rand>
    2d60:	6c eb       	ldi	r22, 0xBC	; 188
    2d62:	72 e0       	ldi	r23, 0x02	; 2
    2d64:	0e 94 a2 35 	call	0x6b44	; 0x6b44 <__divmodhi4>
    2d68:	88 53       	subi	r24, 0x38	; 56
    2d6a:	9f 4f       	sbci	r25, 0xFF	; 255
    2d6c:	90 93 69 00 	sts	0x0069, r25
    2d70:	80 93 68 00 	sts	0x0068, r24
	}
	
	/* Schiebevorgang der Brightnesssstufen von einer LED zur nächsten*/
	if (Counter_2 >= speed_1)
    2d74:	20 91 84 02 	lds	r18, 0x0284
    2d78:	30 91 85 02 	lds	r19, 0x0285
    2d7c:	80 91 68 00 	lds	r24, 0x0068
    2d80:	90 91 69 00 	lds	r25, 0x0069
    2d84:	28 17       	cp	r18, r24
    2d86:	39 07       	cpc	r19, r25
    2d88:	08 f4       	brcc	.+2      	; 0x2d8c <Raindrop_Simulation_2+0xc86>
    2d8a:	4c c0       	rjmp	.+152    	; 0x2e24 <Raindrop_Simulation_2+0xd1e>
	{
		Counter_2 = 0;
    2d8c:	10 92 85 02 	sts	0x0285, r1
    2d90:	10 92 84 02 	sts	0x0284, r1
		LED_8 ++;
    2d94:	80 91 2a 02 	lds	r24, 0x022A
    2d98:	90 91 2b 02 	lds	r25, 0x022B
    2d9c:	01 96       	adiw	r24, 0x01	; 1
    2d9e:	90 93 2b 02 	sts	0x022B, r25
    2da2:	80 93 2a 02 	sts	0x022A, r24
		LED_9 ++;
    2da6:	80 91 54 02 	lds	r24, 0x0254
    2daa:	90 91 55 02 	lds	r25, 0x0255
    2dae:	01 96       	adiw	r24, 0x01	; 1
    2db0:	90 93 55 02 	sts	0x0255, r25
    2db4:	80 93 54 02 	sts	0x0254, r24
		LED_10 ++;
    2db8:	80 91 50 02 	lds	r24, 0x0250
    2dbc:	90 91 51 02 	lds	r25, 0x0251
    2dc0:	01 96       	adiw	r24, 0x01	; 1
    2dc2:	90 93 51 02 	sts	0x0251, r25
    2dc6:	80 93 50 02 	sts	0x0250, r24
		LED_11 ++;
    2dca:	80 91 46 02 	lds	r24, 0x0246
    2dce:	90 91 47 02 	lds	r25, 0x0247
    2dd2:	01 96       	adiw	r24, 0x01	; 1
    2dd4:	90 93 47 02 	sts	0x0247, r25
    2dd8:	80 93 46 02 	sts	0x0246, r24
		LED_12 ++;
    2ddc:	80 91 6d 02 	lds	r24, 0x026D
    2de0:	90 91 6e 02 	lds	r25, 0x026E
    2de4:	01 96       	adiw	r24, 0x01	; 1
    2de6:	90 93 6e 02 	sts	0x026E, r25
    2dea:	80 93 6d 02 	sts	0x026D, r24
		LED_13 ++;
    2dee:	80 91 2e 02 	lds	r24, 0x022E
    2df2:	90 91 2f 02 	lds	r25, 0x022F
    2df6:	01 96       	adiw	r24, 0x01	; 1
    2df8:	90 93 2f 02 	sts	0x022F, r25
    2dfc:	80 93 2e 02 	sts	0x022E, r24
		LED_14 ++;
    2e00:	80 91 6b 02 	lds	r24, 0x026B
    2e04:	90 91 6c 02 	lds	r25, 0x026C
    2e08:	01 96       	adiw	r24, 0x01	; 1
    2e0a:	90 93 6c 02 	sts	0x026C, r25
    2e0e:	80 93 6b 02 	sts	0x026B, r24
		LED_15 ++;
    2e12:	80 91 67 02 	lds	r24, 0x0267
    2e16:	90 91 68 02 	lds	r25, 0x0268
    2e1a:	01 96       	adiw	r24, 0x01	; 1
    2e1c:	90 93 68 02 	sts	0x0268, r25
    2e20:	80 93 67 02 	sts	0x0267, r24
	}
}
    2e24:	df 91       	pop	r29
    2e26:	cf 91       	pop	r28
    2e28:	1f 91       	pop	r17
    2e2a:	0f 91       	pop	r16
    2e2c:	ff 90       	pop	r15
    2e2e:	ef 90       	pop	r14
    2e30:	cf 90       	pop	r12
    2e32:	af 90       	pop	r10
    2e34:	08 95       	ret

00002e36 <LED_Sparkle>:

/* simulated LED sparkle */
void LED_Sparkle(void)
{

	if (LED_Status != LED_Status_Old)
    2e36:	20 91 28 02 	lds	r18, 0x0228
    2e3a:	30 91 29 02 	lds	r19, 0x0229
    2e3e:	80 91 5e 02 	lds	r24, 0x025E
    2e42:	90 91 5f 02 	lds	r25, 0x025F
    2e46:	28 17       	cp	r18, r24
    2e48:	39 07       	cpc	r19, r25
    2e4a:	09 f4       	brne	.+2      	; 0x2e4e <LED_Sparkle+0x18>
    2e4c:	57 c0       	rjmp	.+174    	; 0x2efc <LED_Sparkle+0xc6>
	{
		LED_Status_Old = LED_Status;
    2e4e:	80 91 28 02 	lds	r24, 0x0228
    2e52:	90 91 29 02 	lds	r25, 0x0229
    2e56:	90 93 5f 02 	sts	0x025F, r25
    2e5a:	80 93 5e 02 	sts	0x025E, r24
		
		/* save the actual "LED Status" */
		eeprom_write_byte(&EEPROM_save_LED_Status, LED_Status);
    2e5e:	60 91 28 02 	lds	r22, 0x0228
    2e62:	70 91 29 02 	lds	r23, 0x0229
    2e66:	80 e0       	ldi	r24, 0x00	; 0
    2e68:	90 e0       	ldi	r25, 0x00	; 0
    2e6a:	0e 94 36 36 	call	0x6c6c	; 0x6c6c <__eewr_byte_m32>
		
		Brightness_1 = 8;
    2e6e:	88 e0       	ldi	r24, 0x08	; 8
    2e70:	80 93 75 00 	sts	0x0075, r24
		Brightness_2 = 1;
    2e74:	91 e0       	ldi	r25, 0x01	; 1
    2e76:	90 93 74 00 	sts	0x0074, r25
		Brightness_3 = 1;
    2e7a:	90 93 73 00 	sts	0x0073, r25
		Brightness_4 = 8;
    2e7e:	80 93 72 00 	sts	0x0072, r24
		Brightness_5 = 8;
    2e82:	80 93 2c 02 	sts	0x022C, r24
		Counter_For_Brightness_1 = 0;
    2e86:	10 92 3a 02 	sts	0x023A, r1
    2e8a:	10 92 39 02 	sts	0x0239, r1
		Counter_For_Brightness_2 = 0;
    2e8e:	10 92 53 02 	sts	0x0253, r1
    2e92:	10 92 52 02 	sts	0x0252, r1
		Counter_For_Brightness_3 = 0;
    2e96:	10 92 4f 02 	sts	0x024F, r1
    2e9a:	10 92 4e 02 	sts	0x024E, r1
		Counter_For_Brightness_4 = 0;
    2e9e:	10 92 80 02 	sts	0x0280, r1
    2ea2:	10 92 7f 02 	sts	0x027F, r1
		Counter_For_Brightness_5 = 0;	
    2ea6:	10 92 79 02 	sts	0x0279, r1
    2eaa:	10 92 78 02 	sts	0x0278, r1
		Counter = 0;
    2eae:	10 92 57 02 	sts	0x0257, r1
    2eb2:	10 92 56 02 	sts	0x0256, r1
		Counter_1 = 0;
    2eb6:	10 92 72 02 	sts	0x0272, r1
    2eba:	10 92 71 02 	sts	0x0271, r1
		Counter_2 = 0;
    2ebe:	10 92 85 02 	sts	0x0285, r1
    2ec2:	10 92 84 02 	sts	0x0284, r1
		Counter_3 = 0;
    2ec6:	10 92 83 02 	sts	0x0283, r1
    2eca:	10 92 82 02 	sts	0x0282, r1
		Counter_4 = 0;
    2ece:	10 92 3c 02 	sts	0x023C, r1
    2ed2:	10 92 3b 02 	sts	0x023B, r1
		all_LED_OFF();
    2ed6:	0e 94 5a 05 	call	0xab4	; 0xab4 <all_LED_OFF>
		Counter_For_Display = 0;
    2eda:	10 92 66 02 	sts	0x0266, r1
    2ede:	10 92 65 02 	sts	0x0265, r1
		counter_for_change_accu_symbol = 0;
    2ee2:	10 92 43 02 	sts	0x0243, r1
    2ee6:	10 92 42 02 	sts	0x0242, r1
		if (LED_Status != 12)
    2eea:	80 91 28 02 	lds	r24, 0x0228
    2eee:	90 91 29 02 	lds	r25, 0x0229
    2ef2:	0c 97       	sbiw	r24, 0x0c	; 12
    2ef4:	19 f0       	breq	.+6      	; 0x2efc <LED_Sparkle+0xc6>
		{
			Display_a_Character(3);
    2ef6:	83 e0       	ldi	r24, 0x03	; 3
    2ef8:	0e 94 f3 04 	call	0x9e6	; 0x9e6 <Display_a_Character>
		}			
	}
	
	Counter ++;
    2efc:	80 91 56 02 	lds	r24, 0x0256
    2f00:	90 91 57 02 	lds	r25, 0x0257
    2f04:	01 96       	adiw	r24, 0x01	; 1
    2f06:	90 93 57 02 	sts	0x0257, r25
    2f0a:	80 93 56 02 	sts	0x0256, r24
	Counter_1 ++;
    2f0e:	80 91 71 02 	lds	r24, 0x0271
    2f12:	90 91 72 02 	lds	r25, 0x0272
    2f16:	01 96       	adiw	r24, 0x01	; 1
    2f18:	90 93 72 02 	sts	0x0272, r25
    2f1c:	80 93 71 02 	sts	0x0271, r24
	Counter_2 ++;
    2f20:	80 91 84 02 	lds	r24, 0x0284
    2f24:	90 91 85 02 	lds	r25, 0x0285
    2f28:	01 96       	adiw	r24, 0x01	; 1
    2f2a:	90 93 85 02 	sts	0x0285, r25
    2f2e:	80 93 84 02 	sts	0x0284, r24
	Counter_3 ++;
    2f32:	80 91 82 02 	lds	r24, 0x0282
    2f36:	90 91 83 02 	lds	r25, 0x0283
    2f3a:	01 96       	adiw	r24, 0x01	; 1
    2f3c:	90 93 83 02 	sts	0x0283, r25
    2f40:	80 93 82 02 	sts	0x0282, r24
	Counter_4 ++;
    2f44:	80 91 3b 02 	lds	r24, 0x023B
    2f48:	90 91 3c 02 	lds	r25, 0x023C
    2f4c:	01 96       	adiw	r24, 0x01	; 1
    2f4e:	90 93 3c 02 	sts	0x023C, r25
    2f52:	80 93 3b 02 	sts	0x023B, r24
	
	Counter_For_Brightness_1 ++;
    2f56:	80 91 39 02 	lds	r24, 0x0239
    2f5a:	90 91 3a 02 	lds	r25, 0x023A
    2f5e:	01 96       	adiw	r24, 0x01	; 1
    2f60:	90 93 3a 02 	sts	0x023A, r25
    2f64:	80 93 39 02 	sts	0x0239, r24
	Counter_For_Brightness_2 ++;
    2f68:	80 91 52 02 	lds	r24, 0x0252
    2f6c:	90 91 53 02 	lds	r25, 0x0253
    2f70:	01 96       	adiw	r24, 0x01	; 1
    2f72:	90 93 53 02 	sts	0x0253, r25
    2f76:	80 93 52 02 	sts	0x0252, r24
	Counter_For_Brightness_3 ++;
    2f7a:	80 91 4e 02 	lds	r24, 0x024E
    2f7e:	90 91 4f 02 	lds	r25, 0x024F
    2f82:	01 96       	adiw	r24, 0x01	; 1
    2f84:	90 93 4f 02 	sts	0x024F, r25
    2f88:	80 93 4e 02 	sts	0x024E, r24
	Counter_For_Brightness_4 ++;
    2f8c:	80 91 7f 02 	lds	r24, 0x027F
    2f90:	90 91 80 02 	lds	r25, 0x0280
    2f94:	01 96       	adiw	r24, 0x01	; 1
    2f96:	90 93 80 02 	sts	0x0280, r25
    2f9a:	80 93 7f 02 	sts	0x027F, r24
	Counter_For_Brightness_5 ++;
    2f9e:	80 91 78 02 	lds	r24, 0x0278
    2fa2:	90 91 79 02 	lds	r25, 0x0279
    2fa6:	01 96       	adiw	r24, 0x01	; 1
    2fa8:	90 93 79 02 	sts	0x0279, r25
    2fac:	80 93 78 02 	sts	0x0278, r24

	
	if (Brightness_1 == 8)
    2fb0:	80 91 75 00 	lds	r24, 0x0075
    2fb4:	88 30       	cpi	r24, 0x08	; 8
    2fb6:	31 f4       	brne	.+12     	; 0x2fc4 <LED_Sparkle+0x18e>
	{
		Brightness_Flag_1 = 1;
    2fb8:	81 e0       	ldi	r24, 0x01	; 1
    2fba:	90 e0       	ldi	r25, 0x00	; 0
    2fbc:	90 93 64 02 	sts	0x0264, r25
    2fc0:	80 93 63 02 	sts	0x0263, r24
	}
	if (Brightness_1 == 1)
    2fc4:	80 91 75 00 	lds	r24, 0x0075
    2fc8:	81 30       	cpi	r24, 0x01	; 1
    2fca:	31 f4       	brne	.+12     	; 0x2fd8 <LED_Sparkle+0x1a2>
	{
		Brightness_Flag_1 = 2;
    2fcc:	82 e0       	ldi	r24, 0x02	; 2
    2fce:	90 e0       	ldi	r25, 0x00	; 0
    2fd0:	90 93 64 02 	sts	0x0264, r25
    2fd4:	80 93 63 02 	sts	0x0263, r24
	}
	
	
	
	/* Runter-Faden */
	if (Brightness_Flag_1 == 1)
    2fd8:	80 91 63 02 	lds	r24, 0x0263
    2fdc:	90 91 64 02 	lds	r25, 0x0264
    2fe0:	01 97       	sbiw	r24, 0x01	; 1
    2fe2:	81 f4       	brne	.+32     	; 0x3004 <LED_Sparkle+0x1ce>
	{
		if (Counter_For_Brightness_1 == 1100)
    2fe4:	80 91 39 02 	lds	r24, 0x0239
    2fe8:	90 91 3a 02 	lds	r25, 0x023A
    2fec:	8c 34       	cpi	r24, 0x4C	; 76
    2fee:	94 40       	sbci	r25, 0x04	; 4
    2ff0:	49 f4       	brne	.+18     	; 0x3004 <LED_Sparkle+0x1ce>
		{
			Counter_For_Brightness_1 = 0;
    2ff2:	10 92 3a 02 	sts	0x023A, r1
    2ff6:	10 92 39 02 	sts	0x0239, r1
			Brightness_1 --;
    2ffa:	80 91 75 00 	lds	r24, 0x0075
    2ffe:	81 50       	subi	r24, 0x01	; 1
    3000:	80 93 75 00 	sts	0x0075, r24
		}
	}
	
	
	/* Hoch-Faden */
	if (Brightness_Flag_1 == 2)
    3004:	80 91 63 02 	lds	r24, 0x0263
    3008:	90 91 64 02 	lds	r25, 0x0264
    300c:	02 97       	sbiw	r24, 0x02	; 2
    300e:	81 f4       	brne	.+32     	; 0x3030 <LED_Sparkle+0x1fa>
	{
		if (Counter_For_Brightness_1 == 1100)
    3010:	80 91 39 02 	lds	r24, 0x0239
    3014:	90 91 3a 02 	lds	r25, 0x023A
    3018:	8c 34       	cpi	r24, 0x4C	; 76
    301a:	94 40       	sbci	r25, 0x04	; 4
    301c:	49 f4       	brne	.+18     	; 0x3030 <LED_Sparkle+0x1fa>
		{
			Counter_For_Brightness_1 = 0;
    301e:	10 92 3a 02 	sts	0x023A, r1
    3022:	10 92 39 02 	sts	0x0239, r1
			Brightness_1 ++;
    3026:	80 91 75 00 	lds	r24, 0x0075
    302a:	8f 5f       	subi	r24, 0xFF	; 255
    302c:	80 93 75 00 	sts	0x0075, r24
		}
	}

	/* PWM-Routine */
	if (Counter >= 75)
    3030:	80 91 56 02 	lds	r24, 0x0256
    3034:	90 91 57 02 	lds	r25, 0x0257
    3038:	8b 34       	cpi	r24, 0x4B	; 75
    303a:	91 05       	cpc	r25, r1
    303c:	08 f4       	brcc	.+2      	; 0x3040 <LED_Sparkle+0x20a>
    303e:	61 c0       	rjmp	.+194    	; 0x3102 <LED_Sparkle+0x2cc>
	{
		Counter = 0;
    3040:	10 92 57 02 	sts	0x0257, r1
    3044:	10 92 56 02 	sts	0x0256, r1
		
		if (Brightness_1 > 0)
    3048:	80 91 75 00 	lds	r24, 0x0075
    304c:	88 23       	and	r24, r24
    304e:	09 f4       	brne	.+2      	; 0x3052 <LED_Sparkle+0x21c>
    3050:	ba c0       	rjmp	.+372    	; 0x31c6 <LED_Sparkle+0x390>
		{
			com74hc595_setBit(0);
    3052:	80 e0       	ldi	r24, 0x00	; 0
    3054:	0e 94 99 01 	call	0x332	; 0x332 <com74hc595_setBit>
			com74hc595_setBit(5);
    3058:	85 e0       	ldi	r24, 0x05	; 5
    305a:	0e 94 99 01 	call	0x332	; 0x332 <com74hc595_setBit>
			com74hc595_setBit(10);
    305e:	8a e0       	ldi	r24, 0x0A	; 10
    3060:	0e 94 99 01 	call	0x332	; 0x332 <com74hc595_setBit>
			com74hc595_setBit(15);
    3064:	8f e0       	ldi	r24, 0x0F	; 15
    3066:	0e 94 99 01 	call	0x332	; 0x332 <com74hc595_setBit>
			com74hc595_setBit(20);
    306a:	84 e1       	ldi	r24, 0x14	; 20
    306c:	0e 94 99 01 	call	0x332	; 0x332 <com74hc595_setBit>
			com74hc595_setBit(25);
    3070:	89 e1       	ldi	r24, 0x19	; 25
    3072:	0e 94 99 01 	call	0x332	; 0x332 <com74hc595_setBit>
			com74hc595_setBit(30);
    3076:	8e e1       	ldi	r24, 0x1E	; 30
    3078:	0e 94 99 01 	call	0x332	; 0x332 <com74hc595_setBit>
			com74hc595_setBit(35);
    307c:	83 e2       	ldi	r24, 0x23	; 35
    307e:	0e 94 99 01 	call	0x332	; 0x332 <com74hc595_setBit>
			com74hc595_setBit(40);
    3082:	88 e2       	ldi	r24, 0x28	; 40
    3084:	0e 94 99 01 	call	0x332	; 0x332 <com74hc595_setBit>
			com74hc595_setBit(45);
    3088:	8d e2       	ldi	r24, 0x2D	; 45
    308a:	0e 94 99 01 	call	0x332	; 0x332 <com74hc595_setBit>
			com74hc595_setBit(50);
    308e:	82 e3       	ldi	r24, 0x32	; 50
    3090:	0e 94 99 01 	call	0x332	; 0x332 <com74hc595_setBit>
			com74hc595_setBit(55);
    3094:	87 e3       	ldi	r24, 0x37	; 55
    3096:	0e 94 99 01 	call	0x332	; 0x332 <com74hc595_setBit>
			com74hc595_setBit(60);
    309a:	8c e3       	ldi	r24, 0x3C	; 60
    309c:	0e 94 99 01 	call	0x332	; 0x332 <com74hc595_setBit>
			com74hc595_setBit(65);
    30a0:	81 e4       	ldi	r24, 0x41	; 65
    30a2:	0e 94 99 01 	call	0x332	; 0x332 <com74hc595_setBit>
			com74hc595_setBit(70);
    30a6:	86 e4       	ldi	r24, 0x46	; 70
    30a8:	0e 94 99 01 	call	0x332	; 0x332 <com74hc595_setBit>
			com74hc595_setBit(75);
    30ac:	8b e4       	ldi	r24, 0x4B	; 75
    30ae:	0e 94 99 01 	call	0x332	; 0x332 <com74hc595_setBit>
			com74hc595_setBit(80);
    30b2:	80 e5       	ldi	r24, 0x50	; 80
    30b4:	0e 94 99 01 	call	0x332	; 0x332 <com74hc595_setBit>
			com74hc595_setBit(85);
    30b8:	85 e5       	ldi	r24, 0x55	; 85
    30ba:	0e 94 99 01 	call	0x332	; 0x332 <com74hc595_setBit>
			com74hc595_setBit(90);
    30be:	8a e5       	ldi	r24, 0x5A	; 90
    30c0:	0e 94 99 01 	call	0x332	; 0x332 <com74hc595_setBit>
			com74hc595_setBit(95);
    30c4:	8f e5       	ldi	r24, 0x5F	; 95
    30c6:	0e 94 99 01 	call	0x332	; 0x332 <com74hc595_setBit>
			com74hc595_setBit(100);
    30ca:	84 e6       	ldi	r24, 0x64	; 100
    30cc:	0e 94 99 01 	call	0x332	; 0x332 <com74hc595_setBit>
			com74hc595_setBit(105);
    30d0:	89 e6       	ldi	r24, 0x69	; 105
    30d2:	0e 94 99 01 	call	0x332	; 0x332 <com74hc595_setBit>
			com74hc595_setBit(110);
    30d6:	8e e6       	ldi	r24, 0x6E	; 110
    30d8:	0e 94 99 01 	call	0x332	; 0x332 <com74hc595_setBit>
			com74hc595_setBit(115);
    30dc:	83 e7       	ldi	r24, 0x73	; 115
    30de:	0e 94 99 01 	call	0x332	; 0x332 <com74hc595_setBit>
			com74hc595_setBit(120);
    30e2:	88 e7       	ldi	r24, 0x78	; 120
    30e4:	0e 94 99 01 	call	0x332	; 0x332 <com74hc595_setBit>
			com74hc595_setBit(125);
    30e8:	8d e7       	ldi	r24, 0x7D	; 125
    30ea:	0e 94 99 01 	call	0x332	; 0x332 <com74hc595_setBit>
			com74hc595_setBit(130);
    30ee:	82 e8       	ldi	r24, 0x82	; 130
    30f0:	0e 94 99 01 	call	0x332	; 0x332 <com74hc595_setBit>
			com74hc595_setBit(135);
    30f4:	87 e8       	ldi	r24, 0x87	; 135
    30f6:	0e 94 99 01 	call	0x332	; 0x332 <com74hc595_setBit>
			com74hc595_setBit(140);
    30fa:	8c e8       	ldi	r24, 0x8C	; 140
    30fc:	0e 94 99 01 	call	0x332	; 0x332 <com74hc595_setBit>
    3100:	62 c0       	rjmp	.+196    	; 0x31c6 <LED_Sparkle+0x390>
		}
	}
	else
	{
		if (Counter == Brightness_1)
    3102:	20 91 75 00 	lds	r18, 0x0075
    3106:	80 91 56 02 	lds	r24, 0x0256
    310a:	90 91 57 02 	lds	r25, 0x0257
    310e:	30 e0       	ldi	r19, 0x00	; 0
    3110:	28 17       	cp	r18, r24
    3112:	39 07       	cpc	r19, r25
    3114:	09 f0       	breq	.+2      	; 0x3118 <LED_Sparkle+0x2e2>
    3116:	57 c0       	rjmp	.+174    	; 0x31c6 <LED_Sparkle+0x390>
		{
			com74hc595_unsetBit(0);
    3118:	80 e0       	ldi	r24, 0x00	; 0
    311a:	0e 94 ae 01 	call	0x35c	; 0x35c <com74hc595_unsetBit>
			com74hc595_unsetBit(5);
    311e:	85 e0       	ldi	r24, 0x05	; 5
    3120:	0e 94 ae 01 	call	0x35c	; 0x35c <com74hc595_unsetBit>
			com74hc595_unsetBit(10);
    3124:	8a e0       	ldi	r24, 0x0A	; 10
    3126:	0e 94 ae 01 	call	0x35c	; 0x35c <com74hc595_unsetBit>
			com74hc595_unsetBit(15);
    312a:	8f e0       	ldi	r24, 0x0F	; 15
    312c:	0e 94 ae 01 	call	0x35c	; 0x35c <com74hc595_unsetBit>
			com74hc595_unsetBit(20);
    3130:	84 e1       	ldi	r24, 0x14	; 20
    3132:	0e 94 ae 01 	call	0x35c	; 0x35c <com74hc595_unsetBit>
			com74hc595_unsetBit(25);
    3136:	89 e1       	ldi	r24, 0x19	; 25
    3138:	0e 94 ae 01 	call	0x35c	; 0x35c <com74hc595_unsetBit>
			com74hc595_unsetBit(30);
    313c:	8e e1       	ldi	r24, 0x1E	; 30
    313e:	0e 94 ae 01 	call	0x35c	; 0x35c <com74hc595_unsetBit>
			com74hc595_unsetBit(35);
    3142:	83 e2       	ldi	r24, 0x23	; 35
    3144:	0e 94 ae 01 	call	0x35c	; 0x35c <com74hc595_unsetBit>
			com74hc595_unsetBit(40);
    3148:	88 e2       	ldi	r24, 0x28	; 40
    314a:	0e 94 ae 01 	call	0x35c	; 0x35c <com74hc595_unsetBit>
			com74hc595_unsetBit(45);
    314e:	8d e2       	ldi	r24, 0x2D	; 45
    3150:	0e 94 ae 01 	call	0x35c	; 0x35c <com74hc595_unsetBit>
			com74hc595_unsetBit(50);
    3154:	82 e3       	ldi	r24, 0x32	; 50
    3156:	0e 94 ae 01 	call	0x35c	; 0x35c <com74hc595_unsetBit>
			com74hc595_unsetBit(55);
    315a:	87 e3       	ldi	r24, 0x37	; 55
    315c:	0e 94 ae 01 	call	0x35c	; 0x35c <com74hc595_unsetBit>
			com74hc595_unsetBit(60);
    3160:	8c e3       	ldi	r24, 0x3C	; 60
    3162:	0e 94 ae 01 	call	0x35c	; 0x35c <com74hc595_unsetBit>
			com74hc595_unsetBit(65);
    3166:	81 e4       	ldi	r24, 0x41	; 65
    3168:	0e 94 ae 01 	call	0x35c	; 0x35c <com74hc595_unsetBit>
			com74hc595_unsetBit(70);
    316c:	86 e4       	ldi	r24, 0x46	; 70
    316e:	0e 94 ae 01 	call	0x35c	; 0x35c <com74hc595_unsetBit>
			com74hc595_unsetBit(75);
    3172:	8b e4       	ldi	r24, 0x4B	; 75
    3174:	0e 94 ae 01 	call	0x35c	; 0x35c <com74hc595_unsetBit>
			com74hc595_unsetBit(80);
    3178:	80 e5       	ldi	r24, 0x50	; 80
    317a:	0e 94 ae 01 	call	0x35c	; 0x35c <com74hc595_unsetBit>
			com74hc595_unsetBit(85);
    317e:	85 e5       	ldi	r24, 0x55	; 85
    3180:	0e 94 ae 01 	call	0x35c	; 0x35c <com74hc595_unsetBit>
			com74hc595_unsetBit(90);
    3184:	8a e5       	ldi	r24, 0x5A	; 90
    3186:	0e 94 ae 01 	call	0x35c	; 0x35c <com74hc595_unsetBit>
			com74hc595_unsetBit(95);
    318a:	8f e5       	ldi	r24, 0x5F	; 95
    318c:	0e 94 ae 01 	call	0x35c	; 0x35c <com74hc595_unsetBit>
			com74hc595_unsetBit(100);
    3190:	84 e6       	ldi	r24, 0x64	; 100
    3192:	0e 94 ae 01 	call	0x35c	; 0x35c <com74hc595_unsetBit>
			com74hc595_unsetBit(105);
    3196:	89 e6       	ldi	r24, 0x69	; 105
    3198:	0e 94 ae 01 	call	0x35c	; 0x35c <com74hc595_unsetBit>
			com74hc595_unsetBit(110);
    319c:	8e e6       	ldi	r24, 0x6E	; 110
    319e:	0e 94 ae 01 	call	0x35c	; 0x35c <com74hc595_unsetBit>
			com74hc595_unsetBit(115);
    31a2:	83 e7       	ldi	r24, 0x73	; 115
    31a4:	0e 94 ae 01 	call	0x35c	; 0x35c <com74hc595_unsetBit>
			com74hc595_unsetBit(120);
    31a8:	88 e7       	ldi	r24, 0x78	; 120
    31aa:	0e 94 ae 01 	call	0x35c	; 0x35c <com74hc595_unsetBit>
			com74hc595_unsetBit(125);
    31ae:	8d e7       	ldi	r24, 0x7D	; 125
    31b0:	0e 94 ae 01 	call	0x35c	; 0x35c <com74hc595_unsetBit>
			com74hc595_unsetBit(130);
    31b4:	82 e8       	ldi	r24, 0x82	; 130
    31b6:	0e 94 ae 01 	call	0x35c	; 0x35c <com74hc595_unsetBit>
			com74hc595_unsetBit(135);
    31ba:	87 e8       	ldi	r24, 0x87	; 135
    31bc:	0e 94 ae 01 	call	0x35c	; 0x35c <com74hc595_unsetBit>
			com74hc595_unsetBit(140);			
    31c0:	8c e8       	ldi	r24, 0x8C	; 140
    31c2:	0e 94 ae 01 	call	0x35c	; 0x35c <com74hc595_unsetBit>
		}
	}


	if (Brightness_2 == 8)
    31c6:	80 91 74 00 	lds	r24, 0x0074
    31ca:	88 30       	cpi	r24, 0x08	; 8
    31cc:	31 f4       	brne	.+12     	; 0x31da <LED_Sparkle+0x3a4>
	{
		Brightness_Flag_2 = 1;
    31ce:	81 e0       	ldi	r24, 0x01	; 1
    31d0:	90 e0       	ldi	r25, 0x00	; 0
    31d2:	90 93 89 02 	sts	0x0289, r25
    31d6:	80 93 88 02 	sts	0x0288, r24
	}
	if (Brightness_2 == 1)
    31da:	80 91 74 00 	lds	r24, 0x0074
    31de:	81 30       	cpi	r24, 0x01	; 1
    31e0:	31 f4       	brne	.+12     	; 0x31ee <LED_Sparkle+0x3b8>
	{
		Brightness_Flag_2 = 2;
    31e2:	82 e0       	ldi	r24, 0x02	; 2
    31e4:	90 e0       	ldi	r25, 0x00	; 0
    31e6:	90 93 89 02 	sts	0x0289, r25
    31ea:	80 93 88 02 	sts	0x0288, r24
	}
	
	
	
	/* Runter-Faden */
	if (Brightness_Flag_2 == 1)
    31ee:	80 91 88 02 	lds	r24, 0x0288
    31f2:	90 91 89 02 	lds	r25, 0x0289
    31f6:	01 97       	sbiw	r24, 0x01	; 1
    31f8:	81 f4       	brne	.+32     	; 0x321a <LED_Sparkle+0x3e4>
	{
		if (Counter_For_Brightness_2 == 700)
    31fa:	80 91 52 02 	lds	r24, 0x0252
    31fe:	90 91 53 02 	lds	r25, 0x0253
    3202:	8c 3b       	cpi	r24, 0xBC	; 188
    3204:	92 40       	sbci	r25, 0x02	; 2
    3206:	49 f4       	brne	.+18     	; 0x321a <LED_Sparkle+0x3e4>
		{
			Counter_For_Brightness_2 = 0;
    3208:	10 92 53 02 	sts	0x0253, r1
    320c:	10 92 52 02 	sts	0x0252, r1
			Brightness_2 --;
    3210:	80 91 74 00 	lds	r24, 0x0074
    3214:	81 50       	subi	r24, 0x01	; 1
    3216:	80 93 74 00 	sts	0x0074, r24
		}
	}
	
	
	/* Hoch-Faden */
	if (Brightness_Flag_2 == 2)
    321a:	80 91 88 02 	lds	r24, 0x0288
    321e:	90 91 89 02 	lds	r25, 0x0289
    3222:	02 97       	sbiw	r24, 0x02	; 2
    3224:	81 f4       	brne	.+32     	; 0x3246 <LED_Sparkle+0x410>
	{
		if (Counter_For_Brightness_2 == 700)
    3226:	80 91 52 02 	lds	r24, 0x0252
    322a:	90 91 53 02 	lds	r25, 0x0253
    322e:	8c 3b       	cpi	r24, 0xBC	; 188
    3230:	92 40       	sbci	r25, 0x02	; 2
    3232:	49 f4       	brne	.+18     	; 0x3246 <LED_Sparkle+0x410>
		{
			Counter_For_Brightness_2 = 0;
    3234:	10 92 53 02 	sts	0x0253, r1
    3238:	10 92 52 02 	sts	0x0252, r1
			Brightness_2 ++;
    323c:	80 91 74 00 	lds	r24, 0x0074
    3240:	8f 5f       	subi	r24, 0xFF	; 255
    3242:	80 93 74 00 	sts	0x0074, r24
		}
	}

	/* PWM-Routine */
	if (Counter_1 >= 75)
    3246:	80 91 71 02 	lds	r24, 0x0271
    324a:	90 91 72 02 	lds	r25, 0x0272
    324e:	8b 34       	cpi	r24, 0x4B	; 75
    3250:	91 05       	cpc	r25, r1
    3252:	08 f4       	brcc	.+2      	; 0x3256 <LED_Sparkle+0x420>
    3254:	61 c0       	rjmp	.+194    	; 0x3318 <LED_Sparkle+0x4e2>
	{
		Counter_1 = 0;
    3256:	10 92 72 02 	sts	0x0272, r1
    325a:	10 92 71 02 	sts	0x0271, r1
		
		if (Brightness_2 > 0)
    325e:	80 91 74 00 	lds	r24, 0x0074
    3262:	88 23       	and	r24, r24
    3264:	09 f4       	brne	.+2      	; 0x3268 <LED_Sparkle+0x432>
    3266:	ba c0       	rjmp	.+372    	; 0x33dc <LED_Sparkle+0x5a6>
		{
			com74hc595_setBit(1);
    3268:	81 e0       	ldi	r24, 0x01	; 1
    326a:	0e 94 99 01 	call	0x332	; 0x332 <com74hc595_setBit>
			com74hc595_setBit(6);
    326e:	86 e0       	ldi	r24, 0x06	; 6
    3270:	0e 94 99 01 	call	0x332	; 0x332 <com74hc595_setBit>
			com74hc595_setBit(11);
    3274:	8b e0       	ldi	r24, 0x0B	; 11
    3276:	0e 94 99 01 	call	0x332	; 0x332 <com74hc595_setBit>
			com74hc595_setBit(16);
    327a:	80 e1       	ldi	r24, 0x10	; 16
    327c:	0e 94 99 01 	call	0x332	; 0x332 <com74hc595_setBit>
			com74hc595_setBit(21);
    3280:	85 e1       	ldi	r24, 0x15	; 21
    3282:	0e 94 99 01 	call	0x332	; 0x332 <com74hc595_setBit>
			com74hc595_setBit(26);
    3286:	8a e1       	ldi	r24, 0x1A	; 26
    3288:	0e 94 99 01 	call	0x332	; 0x332 <com74hc595_setBit>
			com74hc595_setBit(31);
    328c:	8f e1       	ldi	r24, 0x1F	; 31
    328e:	0e 94 99 01 	call	0x332	; 0x332 <com74hc595_setBit>
			com74hc595_setBit(36);
    3292:	84 e2       	ldi	r24, 0x24	; 36
    3294:	0e 94 99 01 	call	0x332	; 0x332 <com74hc595_setBit>
			com74hc595_setBit(41);
    3298:	89 e2       	ldi	r24, 0x29	; 41
    329a:	0e 94 99 01 	call	0x332	; 0x332 <com74hc595_setBit>
			com74hc595_setBit(46);
    329e:	8e e2       	ldi	r24, 0x2E	; 46
    32a0:	0e 94 99 01 	call	0x332	; 0x332 <com74hc595_setBit>
			com74hc595_setBit(51);
    32a4:	83 e3       	ldi	r24, 0x33	; 51
    32a6:	0e 94 99 01 	call	0x332	; 0x332 <com74hc595_setBit>
			com74hc595_setBit(56);
    32aa:	88 e3       	ldi	r24, 0x38	; 56
    32ac:	0e 94 99 01 	call	0x332	; 0x332 <com74hc595_setBit>
			com74hc595_setBit(61);
    32b0:	8d e3       	ldi	r24, 0x3D	; 61
    32b2:	0e 94 99 01 	call	0x332	; 0x332 <com74hc595_setBit>
			com74hc595_setBit(66);
    32b6:	82 e4       	ldi	r24, 0x42	; 66
    32b8:	0e 94 99 01 	call	0x332	; 0x332 <com74hc595_setBit>
			com74hc595_setBit(71);
    32bc:	87 e4       	ldi	r24, 0x47	; 71
    32be:	0e 94 99 01 	call	0x332	; 0x332 <com74hc595_setBit>
			com74hc595_setBit(76);
    32c2:	8c e4       	ldi	r24, 0x4C	; 76
    32c4:	0e 94 99 01 	call	0x332	; 0x332 <com74hc595_setBit>
			com74hc595_setBit(81);
    32c8:	81 e5       	ldi	r24, 0x51	; 81
    32ca:	0e 94 99 01 	call	0x332	; 0x332 <com74hc595_setBit>
			com74hc595_setBit(86);
    32ce:	86 e5       	ldi	r24, 0x56	; 86
    32d0:	0e 94 99 01 	call	0x332	; 0x332 <com74hc595_setBit>
			com74hc595_setBit(91);
    32d4:	8b e5       	ldi	r24, 0x5B	; 91
    32d6:	0e 94 99 01 	call	0x332	; 0x332 <com74hc595_setBit>
			com74hc595_setBit(96);
    32da:	80 e6       	ldi	r24, 0x60	; 96
    32dc:	0e 94 99 01 	call	0x332	; 0x332 <com74hc595_setBit>
			com74hc595_setBit(101);
    32e0:	85 e6       	ldi	r24, 0x65	; 101
    32e2:	0e 94 99 01 	call	0x332	; 0x332 <com74hc595_setBit>
			com74hc595_setBit(106);
    32e6:	8a e6       	ldi	r24, 0x6A	; 106
    32e8:	0e 94 99 01 	call	0x332	; 0x332 <com74hc595_setBit>
			com74hc595_setBit(111);
    32ec:	8f e6       	ldi	r24, 0x6F	; 111
    32ee:	0e 94 99 01 	call	0x332	; 0x332 <com74hc595_setBit>
			com74hc595_setBit(116);
    32f2:	84 e7       	ldi	r24, 0x74	; 116
    32f4:	0e 94 99 01 	call	0x332	; 0x332 <com74hc595_setBit>
			com74hc595_setBit(121);
    32f8:	89 e7       	ldi	r24, 0x79	; 121
    32fa:	0e 94 99 01 	call	0x332	; 0x332 <com74hc595_setBit>
			com74hc595_setBit(126);
    32fe:	8e e7       	ldi	r24, 0x7E	; 126
    3300:	0e 94 99 01 	call	0x332	; 0x332 <com74hc595_setBit>
			com74hc595_setBit(131);
    3304:	83 e8       	ldi	r24, 0x83	; 131
    3306:	0e 94 99 01 	call	0x332	; 0x332 <com74hc595_setBit>
			com74hc595_setBit(136);
    330a:	88 e8       	ldi	r24, 0x88	; 136
    330c:	0e 94 99 01 	call	0x332	; 0x332 <com74hc595_setBit>
			com74hc595_setBit(141);			
    3310:	8d e8       	ldi	r24, 0x8D	; 141
    3312:	0e 94 99 01 	call	0x332	; 0x332 <com74hc595_setBit>
    3316:	62 c0       	rjmp	.+196    	; 0x33dc <LED_Sparkle+0x5a6>
		}
	}
	else
	{
		if (Counter_1 == Brightness_2)
    3318:	20 91 74 00 	lds	r18, 0x0074
    331c:	80 91 71 02 	lds	r24, 0x0271
    3320:	90 91 72 02 	lds	r25, 0x0272
    3324:	30 e0       	ldi	r19, 0x00	; 0
    3326:	28 17       	cp	r18, r24
    3328:	39 07       	cpc	r19, r25
    332a:	09 f0       	breq	.+2      	; 0x332e <LED_Sparkle+0x4f8>
    332c:	57 c0       	rjmp	.+174    	; 0x33dc <LED_Sparkle+0x5a6>
		{
			com74hc595_unsetBit(1);
    332e:	81 e0       	ldi	r24, 0x01	; 1
    3330:	0e 94 ae 01 	call	0x35c	; 0x35c <com74hc595_unsetBit>
			com74hc595_unsetBit(6);
    3334:	86 e0       	ldi	r24, 0x06	; 6
    3336:	0e 94 ae 01 	call	0x35c	; 0x35c <com74hc595_unsetBit>
			com74hc595_unsetBit(11);
    333a:	8b e0       	ldi	r24, 0x0B	; 11
    333c:	0e 94 ae 01 	call	0x35c	; 0x35c <com74hc595_unsetBit>
			com74hc595_unsetBit(16);
    3340:	80 e1       	ldi	r24, 0x10	; 16
    3342:	0e 94 ae 01 	call	0x35c	; 0x35c <com74hc595_unsetBit>
			com74hc595_unsetBit(21);
    3346:	85 e1       	ldi	r24, 0x15	; 21
    3348:	0e 94 ae 01 	call	0x35c	; 0x35c <com74hc595_unsetBit>
			com74hc595_unsetBit(26);
    334c:	8a e1       	ldi	r24, 0x1A	; 26
    334e:	0e 94 ae 01 	call	0x35c	; 0x35c <com74hc595_unsetBit>
			com74hc595_unsetBit(31);
    3352:	8f e1       	ldi	r24, 0x1F	; 31
    3354:	0e 94 ae 01 	call	0x35c	; 0x35c <com74hc595_unsetBit>
			com74hc595_unsetBit(36);
    3358:	84 e2       	ldi	r24, 0x24	; 36
    335a:	0e 94 ae 01 	call	0x35c	; 0x35c <com74hc595_unsetBit>
			com74hc595_unsetBit(41);
    335e:	89 e2       	ldi	r24, 0x29	; 41
    3360:	0e 94 ae 01 	call	0x35c	; 0x35c <com74hc595_unsetBit>
			com74hc595_unsetBit(46);
    3364:	8e e2       	ldi	r24, 0x2E	; 46
    3366:	0e 94 ae 01 	call	0x35c	; 0x35c <com74hc595_unsetBit>
			com74hc595_unsetBit(51);
    336a:	83 e3       	ldi	r24, 0x33	; 51
    336c:	0e 94 ae 01 	call	0x35c	; 0x35c <com74hc595_unsetBit>
			com74hc595_unsetBit(56);
    3370:	88 e3       	ldi	r24, 0x38	; 56
    3372:	0e 94 ae 01 	call	0x35c	; 0x35c <com74hc595_unsetBit>
			com74hc595_unsetBit(61);
    3376:	8d e3       	ldi	r24, 0x3D	; 61
    3378:	0e 94 ae 01 	call	0x35c	; 0x35c <com74hc595_unsetBit>
			com74hc595_unsetBit(66);
    337c:	82 e4       	ldi	r24, 0x42	; 66
    337e:	0e 94 ae 01 	call	0x35c	; 0x35c <com74hc595_unsetBit>
			com74hc595_unsetBit(71);
    3382:	87 e4       	ldi	r24, 0x47	; 71
    3384:	0e 94 ae 01 	call	0x35c	; 0x35c <com74hc595_unsetBit>
			com74hc595_unsetBit(76);
    3388:	8c e4       	ldi	r24, 0x4C	; 76
    338a:	0e 94 ae 01 	call	0x35c	; 0x35c <com74hc595_unsetBit>
			com74hc595_unsetBit(81);
    338e:	81 e5       	ldi	r24, 0x51	; 81
    3390:	0e 94 ae 01 	call	0x35c	; 0x35c <com74hc595_unsetBit>
			com74hc595_unsetBit(86);
    3394:	86 e5       	ldi	r24, 0x56	; 86
    3396:	0e 94 ae 01 	call	0x35c	; 0x35c <com74hc595_unsetBit>
			com74hc595_unsetBit(91);
    339a:	8b e5       	ldi	r24, 0x5B	; 91
    339c:	0e 94 ae 01 	call	0x35c	; 0x35c <com74hc595_unsetBit>
			com74hc595_unsetBit(96);
    33a0:	80 e6       	ldi	r24, 0x60	; 96
    33a2:	0e 94 ae 01 	call	0x35c	; 0x35c <com74hc595_unsetBit>
			com74hc595_unsetBit(101);
    33a6:	85 e6       	ldi	r24, 0x65	; 101
    33a8:	0e 94 ae 01 	call	0x35c	; 0x35c <com74hc595_unsetBit>
			com74hc595_unsetBit(106);
    33ac:	8a e6       	ldi	r24, 0x6A	; 106
    33ae:	0e 94 ae 01 	call	0x35c	; 0x35c <com74hc595_unsetBit>
			com74hc595_unsetBit(111);
    33b2:	8f e6       	ldi	r24, 0x6F	; 111
    33b4:	0e 94 ae 01 	call	0x35c	; 0x35c <com74hc595_unsetBit>
			com74hc595_unsetBit(116);
    33b8:	84 e7       	ldi	r24, 0x74	; 116
    33ba:	0e 94 ae 01 	call	0x35c	; 0x35c <com74hc595_unsetBit>
			com74hc595_unsetBit(121);
    33be:	89 e7       	ldi	r24, 0x79	; 121
    33c0:	0e 94 ae 01 	call	0x35c	; 0x35c <com74hc595_unsetBit>
			com74hc595_unsetBit(126);
    33c4:	8e e7       	ldi	r24, 0x7E	; 126
    33c6:	0e 94 ae 01 	call	0x35c	; 0x35c <com74hc595_unsetBit>
			com74hc595_unsetBit(131);
    33ca:	83 e8       	ldi	r24, 0x83	; 131
    33cc:	0e 94 ae 01 	call	0x35c	; 0x35c <com74hc595_unsetBit>
			com74hc595_unsetBit(136);
    33d0:	88 e8       	ldi	r24, 0x88	; 136
    33d2:	0e 94 ae 01 	call	0x35c	; 0x35c <com74hc595_unsetBit>
			com74hc595_unsetBit(141);
    33d6:	8d e8       	ldi	r24, 0x8D	; 141
    33d8:	0e 94 ae 01 	call	0x35c	; 0x35c <com74hc595_unsetBit>
		}
	}


	if (Brightness_3 >= 8)
    33dc:	80 91 73 00 	lds	r24, 0x0073
    33e0:	88 30       	cpi	r24, 0x08	; 8
    33e2:	30 f0       	brcs	.+12     	; 0x33f0 <LED_Sparkle+0x5ba>
	{
		Brightness_flag_3 = 1;
    33e4:	81 e0       	ldi	r24, 0x01	; 1
    33e6:	90 e0       	ldi	r25, 0x00	; 0
    33e8:	90 93 8f 02 	sts	0x028F, r25
    33ec:	80 93 8e 02 	sts	0x028E, r24
	}
	if (Brightness_3 <= 1)
    33f0:	80 91 73 00 	lds	r24, 0x0073
    33f4:	82 30       	cpi	r24, 0x02	; 2
    33f6:	30 f4       	brcc	.+12     	; 0x3404 <LED_Sparkle+0x5ce>
	{
		Brightness_flag_3 = 2;
    33f8:	82 e0       	ldi	r24, 0x02	; 2
    33fa:	90 e0       	ldi	r25, 0x00	; 0
    33fc:	90 93 8f 02 	sts	0x028F, r25
    3400:	80 93 8e 02 	sts	0x028E, r24
	}
	
	
	
	/* Runter-Faden */
	if (Brightness_flag_3 == 1)
    3404:	80 91 8e 02 	lds	r24, 0x028E
    3408:	90 91 8f 02 	lds	r25, 0x028F
    340c:	01 97       	sbiw	r24, 0x01	; 1
    340e:	81 f4       	brne	.+32     	; 0x3430 <LED_Sparkle+0x5fa>
	{
		if (Counter_For_Brightness_3 == 900)
    3410:	80 91 4e 02 	lds	r24, 0x024E
    3414:	90 91 4f 02 	lds	r25, 0x024F
    3418:	84 38       	cpi	r24, 0x84	; 132
    341a:	93 40       	sbci	r25, 0x03	; 3
    341c:	49 f4       	brne	.+18     	; 0x3430 <LED_Sparkle+0x5fa>
		{
			Counter_For_Brightness_3 = 0;
    341e:	10 92 4f 02 	sts	0x024F, r1
    3422:	10 92 4e 02 	sts	0x024E, r1
			Brightness_3 --;
    3426:	80 91 73 00 	lds	r24, 0x0073
    342a:	81 50       	subi	r24, 0x01	; 1
    342c:	80 93 73 00 	sts	0x0073, r24
		}
	}
	
	
	/* Hoch-Faden */
	if (Brightness_flag_3 == 2)
    3430:	80 91 8e 02 	lds	r24, 0x028E
    3434:	90 91 8f 02 	lds	r25, 0x028F
    3438:	02 97       	sbiw	r24, 0x02	; 2
    343a:	81 f4       	brne	.+32     	; 0x345c <LED_Sparkle+0x626>
	{
		if (Counter_For_Brightness_3 == 900)
    343c:	80 91 4e 02 	lds	r24, 0x024E
    3440:	90 91 4f 02 	lds	r25, 0x024F
    3444:	84 38       	cpi	r24, 0x84	; 132
    3446:	93 40       	sbci	r25, 0x03	; 3
    3448:	49 f4       	brne	.+18     	; 0x345c <LED_Sparkle+0x626>
		{
			Counter_For_Brightness_3 = 0;
    344a:	10 92 4f 02 	sts	0x024F, r1
    344e:	10 92 4e 02 	sts	0x024E, r1
			Brightness_3 ++;
    3452:	80 91 73 00 	lds	r24, 0x0073
    3456:	8f 5f       	subi	r24, 0xFF	; 255
    3458:	80 93 73 00 	sts	0x0073, r24
		}
	}

	/* PWM-Routine */
	if (Counter_2 >= 75)
    345c:	80 91 84 02 	lds	r24, 0x0284
    3460:	90 91 85 02 	lds	r25, 0x0285
    3464:	8b 34       	cpi	r24, 0x4B	; 75
    3466:	91 05       	cpc	r25, r1
    3468:	08 f4       	brcc	.+2      	; 0x346c <LED_Sparkle+0x636>
    346a:	61 c0       	rjmp	.+194    	; 0x352e <LED_Sparkle+0x6f8>
	{
		Counter_2 = 0;
    346c:	10 92 85 02 	sts	0x0285, r1
    3470:	10 92 84 02 	sts	0x0284, r1
		
		if (Brightness_3 > 0)
    3474:	80 91 73 00 	lds	r24, 0x0073
    3478:	88 23       	and	r24, r24
    347a:	09 f4       	brne	.+2      	; 0x347e <LED_Sparkle+0x648>
    347c:	ba c0       	rjmp	.+372    	; 0x35f2 <LED_Sparkle+0x7bc>
		{
			com74hc595_setBit(2);
    347e:	82 e0       	ldi	r24, 0x02	; 2
    3480:	0e 94 99 01 	call	0x332	; 0x332 <com74hc595_setBit>
			com74hc595_setBit(7);
    3484:	87 e0       	ldi	r24, 0x07	; 7
    3486:	0e 94 99 01 	call	0x332	; 0x332 <com74hc595_setBit>
			com74hc595_setBit(12);
    348a:	8c e0       	ldi	r24, 0x0C	; 12
    348c:	0e 94 99 01 	call	0x332	; 0x332 <com74hc595_setBit>
			com74hc595_setBit(17);
    3490:	81 e1       	ldi	r24, 0x11	; 17
    3492:	0e 94 99 01 	call	0x332	; 0x332 <com74hc595_setBit>
			com74hc595_setBit(22);
    3496:	86 e1       	ldi	r24, 0x16	; 22
    3498:	0e 94 99 01 	call	0x332	; 0x332 <com74hc595_setBit>
			com74hc595_setBit(27);
    349c:	8b e1       	ldi	r24, 0x1B	; 27
    349e:	0e 94 99 01 	call	0x332	; 0x332 <com74hc595_setBit>
			com74hc595_setBit(32);
    34a2:	80 e2       	ldi	r24, 0x20	; 32
    34a4:	0e 94 99 01 	call	0x332	; 0x332 <com74hc595_setBit>
			com74hc595_setBit(37);
    34a8:	85 e2       	ldi	r24, 0x25	; 37
    34aa:	0e 94 99 01 	call	0x332	; 0x332 <com74hc595_setBit>
			com74hc595_setBit(42);
    34ae:	8a e2       	ldi	r24, 0x2A	; 42
    34b0:	0e 94 99 01 	call	0x332	; 0x332 <com74hc595_setBit>
			com74hc595_setBit(47);
    34b4:	8f e2       	ldi	r24, 0x2F	; 47
    34b6:	0e 94 99 01 	call	0x332	; 0x332 <com74hc595_setBit>
			com74hc595_setBit(52);
    34ba:	84 e3       	ldi	r24, 0x34	; 52
    34bc:	0e 94 99 01 	call	0x332	; 0x332 <com74hc595_setBit>
			com74hc595_setBit(57);
    34c0:	89 e3       	ldi	r24, 0x39	; 57
    34c2:	0e 94 99 01 	call	0x332	; 0x332 <com74hc595_setBit>
			com74hc595_setBit(62);
    34c6:	8e e3       	ldi	r24, 0x3E	; 62
    34c8:	0e 94 99 01 	call	0x332	; 0x332 <com74hc595_setBit>
			com74hc595_setBit(67);
    34cc:	83 e4       	ldi	r24, 0x43	; 67
    34ce:	0e 94 99 01 	call	0x332	; 0x332 <com74hc595_setBit>
			com74hc595_setBit(72);
    34d2:	88 e4       	ldi	r24, 0x48	; 72
    34d4:	0e 94 99 01 	call	0x332	; 0x332 <com74hc595_setBit>
			com74hc595_setBit(77);
    34d8:	8d e4       	ldi	r24, 0x4D	; 77
    34da:	0e 94 99 01 	call	0x332	; 0x332 <com74hc595_setBit>
			com74hc595_setBit(82);
    34de:	82 e5       	ldi	r24, 0x52	; 82
    34e0:	0e 94 99 01 	call	0x332	; 0x332 <com74hc595_setBit>
			com74hc595_setBit(87);
    34e4:	87 e5       	ldi	r24, 0x57	; 87
    34e6:	0e 94 99 01 	call	0x332	; 0x332 <com74hc595_setBit>
			com74hc595_setBit(92);
    34ea:	8c e5       	ldi	r24, 0x5C	; 92
    34ec:	0e 94 99 01 	call	0x332	; 0x332 <com74hc595_setBit>
			com74hc595_setBit(97);
    34f0:	81 e6       	ldi	r24, 0x61	; 97
    34f2:	0e 94 99 01 	call	0x332	; 0x332 <com74hc595_setBit>
			com74hc595_setBit(102);
    34f6:	86 e6       	ldi	r24, 0x66	; 102
    34f8:	0e 94 99 01 	call	0x332	; 0x332 <com74hc595_setBit>
			com74hc595_setBit(107);
    34fc:	8b e6       	ldi	r24, 0x6B	; 107
    34fe:	0e 94 99 01 	call	0x332	; 0x332 <com74hc595_setBit>
			com74hc595_setBit(112);
    3502:	80 e7       	ldi	r24, 0x70	; 112
    3504:	0e 94 99 01 	call	0x332	; 0x332 <com74hc595_setBit>
			com74hc595_setBit(117);
    3508:	85 e7       	ldi	r24, 0x75	; 117
    350a:	0e 94 99 01 	call	0x332	; 0x332 <com74hc595_setBit>
			com74hc595_setBit(122);
    350e:	8a e7       	ldi	r24, 0x7A	; 122
    3510:	0e 94 99 01 	call	0x332	; 0x332 <com74hc595_setBit>
			com74hc595_setBit(127);
    3514:	8f e7       	ldi	r24, 0x7F	; 127
    3516:	0e 94 99 01 	call	0x332	; 0x332 <com74hc595_setBit>
			com74hc595_setBit(132);
    351a:	84 e8       	ldi	r24, 0x84	; 132
    351c:	0e 94 99 01 	call	0x332	; 0x332 <com74hc595_setBit>
			com74hc595_setBit(137);
    3520:	89 e8       	ldi	r24, 0x89	; 137
    3522:	0e 94 99 01 	call	0x332	; 0x332 <com74hc595_setBit>
			com74hc595_setBit(142);		
    3526:	8e e8       	ldi	r24, 0x8E	; 142
    3528:	0e 94 99 01 	call	0x332	; 0x332 <com74hc595_setBit>
    352c:	62 c0       	rjmp	.+196    	; 0x35f2 <LED_Sparkle+0x7bc>
		}
	}
	else
	{
		if (Counter_2 == Brightness_3)
    352e:	20 91 73 00 	lds	r18, 0x0073
    3532:	80 91 84 02 	lds	r24, 0x0284
    3536:	90 91 85 02 	lds	r25, 0x0285
    353a:	30 e0       	ldi	r19, 0x00	; 0
    353c:	28 17       	cp	r18, r24
    353e:	39 07       	cpc	r19, r25
    3540:	09 f0       	breq	.+2      	; 0x3544 <LED_Sparkle+0x70e>
    3542:	57 c0       	rjmp	.+174    	; 0x35f2 <LED_Sparkle+0x7bc>
		{
			com74hc595_unsetBit(2);
    3544:	82 e0       	ldi	r24, 0x02	; 2
    3546:	0e 94 ae 01 	call	0x35c	; 0x35c <com74hc595_unsetBit>
			com74hc595_unsetBit(7);
    354a:	87 e0       	ldi	r24, 0x07	; 7
    354c:	0e 94 ae 01 	call	0x35c	; 0x35c <com74hc595_unsetBit>
			com74hc595_unsetBit(12);
    3550:	8c e0       	ldi	r24, 0x0C	; 12
    3552:	0e 94 ae 01 	call	0x35c	; 0x35c <com74hc595_unsetBit>
			com74hc595_unsetBit(17);
    3556:	81 e1       	ldi	r24, 0x11	; 17
    3558:	0e 94 ae 01 	call	0x35c	; 0x35c <com74hc595_unsetBit>
			com74hc595_unsetBit(22);
    355c:	86 e1       	ldi	r24, 0x16	; 22
    355e:	0e 94 ae 01 	call	0x35c	; 0x35c <com74hc595_unsetBit>
			com74hc595_unsetBit(27);
    3562:	8b e1       	ldi	r24, 0x1B	; 27
    3564:	0e 94 ae 01 	call	0x35c	; 0x35c <com74hc595_unsetBit>
			com74hc595_unsetBit(32);
    3568:	80 e2       	ldi	r24, 0x20	; 32
    356a:	0e 94 ae 01 	call	0x35c	; 0x35c <com74hc595_unsetBit>
			com74hc595_unsetBit(37);
    356e:	85 e2       	ldi	r24, 0x25	; 37
    3570:	0e 94 ae 01 	call	0x35c	; 0x35c <com74hc595_unsetBit>
			com74hc595_unsetBit(42);
    3574:	8a e2       	ldi	r24, 0x2A	; 42
    3576:	0e 94 ae 01 	call	0x35c	; 0x35c <com74hc595_unsetBit>
			com74hc595_unsetBit(47);
    357a:	8f e2       	ldi	r24, 0x2F	; 47
    357c:	0e 94 ae 01 	call	0x35c	; 0x35c <com74hc595_unsetBit>
			com74hc595_unsetBit(52);
    3580:	84 e3       	ldi	r24, 0x34	; 52
    3582:	0e 94 ae 01 	call	0x35c	; 0x35c <com74hc595_unsetBit>
			com74hc595_unsetBit(57);
    3586:	89 e3       	ldi	r24, 0x39	; 57
    3588:	0e 94 ae 01 	call	0x35c	; 0x35c <com74hc595_unsetBit>
			com74hc595_unsetBit(62);
    358c:	8e e3       	ldi	r24, 0x3E	; 62
    358e:	0e 94 ae 01 	call	0x35c	; 0x35c <com74hc595_unsetBit>
			com74hc595_unsetBit(67);
    3592:	83 e4       	ldi	r24, 0x43	; 67
    3594:	0e 94 ae 01 	call	0x35c	; 0x35c <com74hc595_unsetBit>
			com74hc595_unsetBit(72);
    3598:	88 e4       	ldi	r24, 0x48	; 72
    359a:	0e 94 ae 01 	call	0x35c	; 0x35c <com74hc595_unsetBit>
			com74hc595_unsetBit(77);
    359e:	8d e4       	ldi	r24, 0x4D	; 77
    35a0:	0e 94 ae 01 	call	0x35c	; 0x35c <com74hc595_unsetBit>
			com74hc595_unsetBit(82);
    35a4:	82 e5       	ldi	r24, 0x52	; 82
    35a6:	0e 94 ae 01 	call	0x35c	; 0x35c <com74hc595_unsetBit>
			com74hc595_unsetBit(87);
    35aa:	87 e5       	ldi	r24, 0x57	; 87
    35ac:	0e 94 ae 01 	call	0x35c	; 0x35c <com74hc595_unsetBit>
			com74hc595_unsetBit(92);
    35b0:	8c e5       	ldi	r24, 0x5C	; 92
    35b2:	0e 94 ae 01 	call	0x35c	; 0x35c <com74hc595_unsetBit>
			com74hc595_unsetBit(97);
    35b6:	81 e6       	ldi	r24, 0x61	; 97
    35b8:	0e 94 ae 01 	call	0x35c	; 0x35c <com74hc595_unsetBit>
			com74hc595_unsetBit(102);
    35bc:	86 e6       	ldi	r24, 0x66	; 102
    35be:	0e 94 ae 01 	call	0x35c	; 0x35c <com74hc595_unsetBit>
			com74hc595_unsetBit(107);
    35c2:	8b e6       	ldi	r24, 0x6B	; 107
    35c4:	0e 94 ae 01 	call	0x35c	; 0x35c <com74hc595_unsetBit>
			com74hc595_unsetBit(112);
    35c8:	80 e7       	ldi	r24, 0x70	; 112
    35ca:	0e 94 ae 01 	call	0x35c	; 0x35c <com74hc595_unsetBit>
			com74hc595_unsetBit(117);
    35ce:	85 e7       	ldi	r24, 0x75	; 117
    35d0:	0e 94 ae 01 	call	0x35c	; 0x35c <com74hc595_unsetBit>
			com74hc595_unsetBit(122);
    35d4:	8a e7       	ldi	r24, 0x7A	; 122
    35d6:	0e 94 ae 01 	call	0x35c	; 0x35c <com74hc595_unsetBit>
			com74hc595_unsetBit(127);
    35da:	8f e7       	ldi	r24, 0x7F	; 127
    35dc:	0e 94 ae 01 	call	0x35c	; 0x35c <com74hc595_unsetBit>
			com74hc595_unsetBit(132);
    35e0:	84 e8       	ldi	r24, 0x84	; 132
    35e2:	0e 94 ae 01 	call	0x35c	; 0x35c <com74hc595_unsetBit>
			com74hc595_unsetBit(137);
    35e6:	89 e8       	ldi	r24, 0x89	; 137
    35e8:	0e 94 ae 01 	call	0x35c	; 0x35c <com74hc595_unsetBit>
			com74hc595_unsetBit(142);			
    35ec:	8e e8       	ldi	r24, 0x8E	; 142
    35ee:	0e 94 ae 01 	call	0x35c	; 0x35c <com74hc595_unsetBit>
		}
	}



	if (Brightness_4 >= 8)
    35f2:	80 91 72 00 	lds	r24, 0x0072
    35f6:	88 30       	cpi	r24, 0x08	; 8
    35f8:	30 f0       	brcs	.+12     	; 0x3606 <LED_Sparkle+0x7d0>
	{
		Brightness_flag_4 = 1;
    35fa:	81 e0       	ldi	r24, 0x01	; 1
    35fc:	90 e0       	ldi	r25, 0x00	; 0
    35fe:	90 93 6a 02 	sts	0x026A, r25
    3602:	80 93 69 02 	sts	0x0269, r24
	}
	if (Brightness_4 <= 1)
    3606:	80 91 72 00 	lds	r24, 0x0072
    360a:	82 30       	cpi	r24, 0x02	; 2
    360c:	30 f4       	brcc	.+12     	; 0x361a <LED_Sparkle+0x7e4>
	{
		Brightness_flag_4 = 2;
    360e:	82 e0       	ldi	r24, 0x02	; 2
    3610:	90 e0       	ldi	r25, 0x00	; 0
    3612:	90 93 6a 02 	sts	0x026A, r25
    3616:	80 93 69 02 	sts	0x0269, r24
	}
	
	
	
	/* Runter-Faden */
	if (Brightness_flag_4 == 1)
    361a:	80 91 69 02 	lds	r24, 0x0269
    361e:	90 91 6a 02 	lds	r25, 0x026A
    3622:	01 97       	sbiw	r24, 0x01	; 1
    3624:	81 f4       	brne	.+32     	; 0x3646 <LED_Sparkle+0x810>
	{
		if (Counter_For_Brightness_4 == 600)
    3626:	80 91 7f 02 	lds	r24, 0x027F
    362a:	90 91 80 02 	lds	r25, 0x0280
    362e:	88 35       	cpi	r24, 0x58	; 88
    3630:	92 40       	sbci	r25, 0x02	; 2
    3632:	49 f4       	brne	.+18     	; 0x3646 <LED_Sparkle+0x810>
		{
			Counter_For_Brightness_4 = 0;
    3634:	10 92 80 02 	sts	0x0280, r1
    3638:	10 92 7f 02 	sts	0x027F, r1
			Brightness_4 --;
    363c:	80 91 72 00 	lds	r24, 0x0072
    3640:	81 50       	subi	r24, 0x01	; 1
    3642:	80 93 72 00 	sts	0x0072, r24
		}
	}
	
	
	/* Hoch-Faden */
	if (Brightness_flag_4 == 2)
    3646:	80 91 69 02 	lds	r24, 0x0269
    364a:	90 91 6a 02 	lds	r25, 0x026A
    364e:	02 97       	sbiw	r24, 0x02	; 2
    3650:	81 f4       	brne	.+32     	; 0x3672 <LED_Sparkle+0x83c>
	{
		if (Counter_For_Brightness_4 == 600)
    3652:	80 91 7f 02 	lds	r24, 0x027F
    3656:	90 91 80 02 	lds	r25, 0x0280
    365a:	88 35       	cpi	r24, 0x58	; 88
    365c:	92 40       	sbci	r25, 0x02	; 2
    365e:	49 f4       	brne	.+18     	; 0x3672 <LED_Sparkle+0x83c>
		{
			Counter_For_Brightness_4 = 0;
    3660:	10 92 80 02 	sts	0x0280, r1
    3664:	10 92 7f 02 	sts	0x027F, r1
			Brightness_4 ++;
    3668:	80 91 72 00 	lds	r24, 0x0072
    366c:	8f 5f       	subi	r24, 0xFF	; 255
    366e:	80 93 72 00 	sts	0x0072, r24
		}
	}

	/* PWM-Routine */
	if (Counter_3 >= 75)
    3672:	80 91 82 02 	lds	r24, 0x0282
    3676:	90 91 83 02 	lds	r25, 0x0283
    367a:	8b 34       	cpi	r24, 0x4B	; 75
    367c:	91 05       	cpc	r25, r1
    367e:	08 f4       	brcc	.+2      	; 0x3682 <LED_Sparkle+0x84c>
    3680:	61 c0       	rjmp	.+194    	; 0x3744 <LED_Sparkle+0x90e>
	{
		Counter_3 = 0;
    3682:	10 92 83 02 	sts	0x0283, r1
    3686:	10 92 82 02 	sts	0x0282, r1
		
		if (Brightness_4 > 0)
    368a:	80 91 72 00 	lds	r24, 0x0072
    368e:	88 23       	and	r24, r24
    3690:	09 f4       	brne	.+2      	; 0x3694 <LED_Sparkle+0x85e>
    3692:	ba c0       	rjmp	.+372    	; 0x3808 <LED_Sparkle+0x9d2>
		{
			com74hc595_setBit(3);
    3694:	83 e0       	ldi	r24, 0x03	; 3
    3696:	0e 94 99 01 	call	0x332	; 0x332 <com74hc595_setBit>
			com74hc595_setBit(8);
    369a:	88 e0       	ldi	r24, 0x08	; 8
    369c:	0e 94 99 01 	call	0x332	; 0x332 <com74hc595_setBit>
			com74hc595_setBit(13);
    36a0:	8d e0       	ldi	r24, 0x0D	; 13
    36a2:	0e 94 99 01 	call	0x332	; 0x332 <com74hc595_setBit>
			com74hc595_setBit(18);
    36a6:	82 e1       	ldi	r24, 0x12	; 18
    36a8:	0e 94 99 01 	call	0x332	; 0x332 <com74hc595_setBit>
			com74hc595_setBit(23);
    36ac:	87 e1       	ldi	r24, 0x17	; 23
    36ae:	0e 94 99 01 	call	0x332	; 0x332 <com74hc595_setBit>
			com74hc595_setBit(28);
    36b2:	8c e1       	ldi	r24, 0x1C	; 28
    36b4:	0e 94 99 01 	call	0x332	; 0x332 <com74hc595_setBit>
			com74hc595_setBit(33);
    36b8:	81 e2       	ldi	r24, 0x21	; 33
    36ba:	0e 94 99 01 	call	0x332	; 0x332 <com74hc595_setBit>
			com74hc595_setBit(38);
    36be:	86 e2       	ldi	r24, 0x26	; 38
    36c0:	0e 94 99 01 	call	0x332	; 0x332 <com74hc595_setBit>
			com74hc595_setBit(43);
    36c4:	8b e2       	ldi	r24, 0x2B	; 43
    36c6:	0e 94 99 01 	call	0x332	; 0x332 <com74hc595_setBit>
			com74hc595_setBit(48);
    36ca:	80 e3       	ldi	r24, 0x30	; 48
    36cc:	0e 94 99 01 	call	0x332	; 0x332 <com74hc595_setBit>
			com74hc595_setBit(53);
    36d0:	85 e3       	ldi	r24, 0x35	; 53
    36d2:	0e 94 99 01 	call	0x332	; 0x332 <com74hc595_setBit>
			com74hc595_setBit(58);
    36d6:	8a e3       	ldi	r24, 0x3A	; 58
    36d8:	0e 94 99 01 	call	0x332	; 0x332 <com74hc595_setBit>
			com74hc595_setBit(63);
    36dc:	8f e3       	ldi	r24, 0x3F	; 63
    36de:	0e 94 99 01 	call	0x332	; 0x332 <com74hc595_setBit>
			com74hc595_setBit(68);
    36e2:	84 e4       	ldi	r24, 0x44	; 68
    36e4:	0e 94 99 01 	call	0x332	; 0x332 <com74hc595_setBit>
			com74hc595_setBit(73);
    36e8:	89 e4       	ldi	r24, 0x49	; 73
    36ea:	0e 94 99 01 	call	0x332	; 0x332 <com74hc595_setBit>
			com74hc595_setBit(78);
    36ee:	8e e4       	ldi	r24, 0x4E	; 78
    36f0:	0e 94 99 01 	call	0x332	; 0x332 <com74hc595_setBit>
			com74hc595_setBit(83);
    36f4:	83 e5       	ldi	r24, 0x53	; 83
    36f6:	0e 94 99 01 	call	0x332	; 0x332 <com74hc595_setBit>
			com74hc595_setBit(88);
    36fa:	88 e5       	ldi	r24, 0x58	; 88
    36fc:	0e 94 99 01 	call	0x332	; 0x332 <com74hc595_setBit>
			com74hc595_setBit(93);
    3700:	8d e5       	ldi	r24, 0x5D	; 93
    3702:	0e 94 99 01 	call	0x332	; 0x332 <com74hc595_setBit>
			com74hc595_setBit(98);
    3706:	82 e6       	ldi	r24, 0x62	; 98
    3708:	0e 94 99 01 	call	0x332	; 0x332 <com74hc595_setBit>
			com74hc595_setBit(103);
    370c:	87 e6       	ldi	r24, 0x67	; 103
    370e:	0e 94 99 01 	call	0x332	; 0x332 <com74hc595_setBit>
			com74hc595_setBit(108);
    3712:	8c e6       	ldi	r24, 0x6C	; 108
    3714:	0e 94 99 01 	call	0x332	; 0x332 <com74hc595_setBit>
			com74hc595_setBit(113);
    3718:	81 e7       	ldi	r24, 0x71	; 113
    371a:	0e 94 99 01 	call	0x332	; 0x332 <com74hc595_setBit>
			com74hc595_setBit(118);	
    371e:	86 e7       	ldi	r24, 0x76	; 118
    3720:	0e 94 99 01 	call	0x332	; 0x332 <com74hc595_setBit>
			com74hc595_setBit(123);
    3724:	8b e7       	ldi	r24, 0x7B	; 123
    3726:	0e 94 99 01 	call	0x332	; 0x332 <com74hc595_setBit>
			com74hc595_setBit(128);
    372a:	80 e8       	ldi	r24, 0x80	; 128
    372c:	0e 94 99 01 	call	0x332	; 0x332 <com74hc595_setBit>
			com74hc595_setBit(133);	
    3730:	85 e8       	ldi	r24, 0x85	; 133
    3732:	0e 94 99 01 	call	0x332	; 0x332 <com74hc595_setBit>
			com74hc595_setBit(138);
    3736:	8a e8       	ldi	r24, 0x8A	; 138
    3738:	0e 94 99 01 	call	0x332	; 0x332 <com74hc595_setBit>
			com74hc595_setBit(143);
    373c:	8f e8       	ldi	r24, 0x8F	; 143
    373e:	0e 94 99 01 	call	0x332	; 0x332 <com74hc595_setBit>
    3742:	62 c0       	rjmp	.+196    	; 0x3808 <LED_Sparkle+0x9d2>
		}
	}
	else
	{
		if (Counter_3 == Brightness_4)
    3744:	20 91 72 00 	lds	r18, 0x0072
    3748:	80 91 82 02 	lds	r24, 0x0282
    374c:	90 91 83 02 	lds	r25, 0x0283
    3750:	30 e0       	ldi	r19, 0x00	; 0
    3752:	28 17       	cp	r18, r24
    3754:	39 07       	cpc	r19, r25
    3756:	09 f0       	breq	.+2      	; 0x375a <LED_Sparkle+0x924>
    3758:	57 c0       	rjmp	.+174    	; 0x3808 <LED_Sparkle+0x9d2>
		{
			com74hc595_unsetBit(3);
    375a:	83 e0       	ldi	r24, 0x03	; 3
    375c:	0e 94 ae 01 	call	0x35c	; 0x35c <com74hc595_unsetBit>
			com74hc595_unsetBit(8);
    3760:	88 e0       	ldi	r24, 0x08	; 8
    3762:	0e 94 ae 01 	call	0x35c	; 0x35c <com74hc595_unsetBit>
			com74hc595_unsetBit(13);
    3766:	8d e0       	ldi	r24, 0x0D	; 13
    3768:	0e 94 ae 01 	call	0x35c	; 0x35c <com74hc595_unsetBit>
			com74hc595_unsetBit(18);
    376c:	82 e1       	ldi	r24, 0x12	; 18
    376e:	0e 94 ae 01 	call	0x35c	; 0x35c <com74hc595_unsetBit>
			com74hc595_unsetBit(23);
    3772:	87 e1       	ldi	r24, 0x17	; 23
    3774:	0e 94 ae 01 	call	0x35c	; 0x35c <com74hc595_unsetBit>
			com74hc595_unsetBit(28);
    3778:	8c e1       	ldi	r24, 0x1C	; 28
    377a:	0e 94 ae 01 	call	0x35c	; 0x35c <com74hc595_unsetBit>
			com74hc595_unsetBit(33);
    377e:	81 e2       	ldi	r24, 0x21	; 33
    3780:	0e 94 ae 01 	call	0x35c	; 0x35c <com74hc595_unsetBit>
			com74hc595_unsetBit(38);
    3784:	86 e2       	ldi	r24, 0x26	; 38
    3786:	0e 94 ae 01 	call	0x35c	; 0x35c <com74hc595_unsetBit>
			com74hc595_unsetBit(43);
    378a:	8b e2       	ldi	r24, 0x2B	; 43
    378c:	0e 94 ae 01 	call	0x35c	; 0x35c <com74hc595_unsetBit>
			com74hc595_unsetBit(48);
    3790:	80 e3       	ldi	r24, 0x30	; 48
    3792:	0e 94 ae 01 	call	0x35c	; 0x35c <com74hc595_unsetBit>
			com74hc595_unsetBit(53);
    3796:	85 e3       	ldi	r24, 0x35	; 53
    3798:	0e 94 ae 01 	call	0x35c	; 0x35c <com74hc595_unsetBit>
			com74hc595_unsetBit(58);
    379c:	8a e3       	ldi	r24, 0x3A	; 58
    379e:	0e 94 ae 01 	call	0x35c	; 0x35c <com74hc595_unsetBit>
			com74hc595_unsetBit(63);
    37a2:	8f e3       	ldi	r24, 0x3F	; 63
    37a4:	0e 94 ae 01 	call	0x35c	; 0x35c <com74hc595_unsetBit>
			com74hc595_unsetBit(68);
    37a8:	84 e4       	ldi	r24, 0x44	; 68
    37aa:	0e 94 ae 01 	call	0x35c	; 0x35c <com74hc595_unsetBit>
			com74hc595_unsetBit(73);
    37ae:	89 e4       	ldi	r24, 0x49	; 73
    37b0:	0e 94 ae 01 	call	0x35c	; 0x35c <com74hc595_unsetBit>
			com74hc595_unsetBit(78);
    37b4:	8e e4       	ldi	r24, 0x4E	; 78
    37b6:	0e 94 ae 01 	call	0x35c	; 0x35c <com74hc595_unsetBit>
			com74hc595_unsetBit(83);
    37ba:	83 e5       	ldi	r24, 0x53	; 83
    37bc:	0e 94 ae 01 	call	0x35c	; 0x35c <com74hc595_unsetBit>
			com74hc595_unsetBit(88);
    37c0:	88 e5       	ldi	r24, 0x58	; 88
    37c2:	0e 94 ae 01 	call	0x35c	; 0x35c <com74hc595_unsetBit>
			com74hc595_unsetBit(93);
    37c6:	8d e5       	ldi	r24, 0x5D	; 93
    37c8:	0e 94 ae 01 	call	0x35c	; 0x35c <com74hc595_unsetBit>
			com74hc595_unsetBit(98);
    37cc:	82 e6       	ldi	r24, 0x62	; 98
    37ce:	0e 94 ae 01 	call	0x35c	; 0x35c <com74hc595_unsetBit>
			com74hc595_unsetBit(103);
    37d2:	87 e6       	ldi	r24, 0x67	; 103
    37d4:	0e 94 ae 01 	call	0x35c	; 0x35c <com74hc595_unsetBit>
			com74hc595_unsetBit(108);
    37d8:	8c e6       	ldi	r24, 0x6C	; 108
    37da:	0e 94 ae 01 	call	0x35c	; 0x35c <com74hc595_unsetBit>
			com74hc595_unsetBit(113);
    37de:	81 e7       	ldi	r24, 0x71	; 113
    37e0:	0e 94 ae 01 	call	0x35c	; 0x35c <com74hc595_unsetBit>
			com74hc595_unsetBit(118);
    37e4:	86 e7       	ldi	r24, 0x76	; 118
    37e6:	0e 94 ae 01 	call	0x35c	; 0x35c <com74hc595_unsetBit>
			com74hc595_unsetBit(123);
    37ea:	8b e7       	ldi	r24, 0x7B	; 123
    37ec:	0e 94 ae 01 	call	0x35c	; 0x35c <com74hc595_unsetBit>
			com74hc595_unsetBit(128);
    37f0:	80 e8       	ldi	r24, 0x80	; 128
    37f2:	0e 94 ae 01 	call	0x35c	; 0x35c <com74hc595_unsetBit>
			com74hc595_unsetBit(133);
    37f6:	85 e8       	ldi	r24, 0x85	; 133
    37f8:	0e 94 ae 01 	call	0x35c	; 0x35c <com74hc595_unsetBit>
			com74hc595_unsetBit(138);
    37fc:	8a e8       	ldi	r24, 0x8A	; 138
    37fe:	0e 94 ae 01 	call	0x35c	; 0x35c <com74hc595_unsetBit>
			com74hc595_unsetBit(143);
    3802:	8f e8       	ldi	r24, 0x8F	; 143
    3804:	0e 94 ae 01 	call	0x35c	; 0x35c <com74hc595_unsetBit>
		}
	}



	if (Brightness_5 >= 8)
    3808:	80 91 2c 02 	lds	r24, 0x022C
    380c:	88 30       	cpi	r24, 0x08	; 8
    380e:	30 f0       	brcs	.+12     	; 0x381c <LED_Sparkle+0x9e6>
	{
		Brightness_flag_5 = 1;
    3810:	81 e0       	ldi	r24, 0x01	; 1
    3812:	90 e0       	ldi	r25, 0x00	; 0
    3814:	90 93 77 02 	sts	0x0277, r25
    3818:	80 93 76 02 	sts	0x0276, r24
	}
	if (Brightness_5 <= 1)
    381c:	80 91 2c 02 	lds	r24, 0x022C
    3820:	82 30       	cpi	r24, 0x02	; 2
    3822:	30 f4       	brcc	.+12     	; 0x3830 <LED_Sparkle+0x9fa>
	{
		Brightness_flag_5 = 2;
    3824:	82 e0       	ldi	r24, 0x02	; 2
    3826:	90 e0       	ldi	r25, 0x00	; 0
    3828:	90 93 77 02 	sts	0x0277, r25
    382c:	80 93 76 02 	sts	0x0276, r24
	}
	
	
	
	/* Runter-Faden */
	if (Brightness_flag_5 == 1)
    3830:	80 91 76 02 	lds	r24, 0x0276
    3834:	90 91 77 02 	lds	r25, 0x0277
    3838:	01 97       	sbiw	r24, 0x01	; 1
    383a:	81 f4       	brne	.+32     	; 0x385c <LED_Sparkle+0xa26>
	{
		if (Counter_For_Brightness_5 == 800)
    383c:	80 91 78 02 	lds	r24, 0x0278
    3840:	90 91 79 02 	lds	r25, 0x0279
    3844:	80 32       	cpi	r24, 0x20	; 32
    3846:	93 40       	sbci	r25, 0x03	; 3
    3848:	49 f4       	brne	.+18     	; 0x385c <LED_Sparkle+0xa26>
		{
			Counter_For_Brightness_5 = 0;
    384a:	10 92 79 02 	sts	0x0279, r1
    384e:	10 92 78 02 	sts	0x0278, r1
			Brightness_5 --;
    3852:	80 91 2c 02 	lds	r24, 0x022C
    3856:	81 50       	subi	r24, 0x01	; 1
    3858:	80 93 2c 02 	sts	0x022C, r24
		}
	}
	
	
	/* Hoch-Faden */
	if (Brightness_flag_5 == 2)
    385c:	80 91 76 02 	lds	r24, 0x0276
    3860:	90 91 77 02 	lds	r25, 0x0277
    3864:	02 97       	sbiw	r24, 0x02	; 2
    3866:	81 f4       	brne	.+32     	; 0x3888 <LED_Sparkle+0xa52>
	{
		if (Counter_For_Brightness_5 == 800)
    3868:	80 91 78 02 	lds	r24, 0x0278
    386c:	90 91 79 02 	lds	r25, 0x0279
    3870:	80 32       	cpi	r24, 0x20	; 32
    3872:	93 40       	sbci	r25, 0x03	; 3
    3874:	49 f4       	brne	.+18     	; 0x3888 <LED_Sparkle+0xa52>
		{
			Counter_For_Brightness_5 = 0;
    3876:	10 92 79 02 	sts	0x0279, r1
    387a:	10 92 78 02 	sts	0x0278, r1
			Brightness_5 ++;
    387e:	80 91 2c 02 	lds	r24, 0x022C
    3882:	8f 5f       	subi	r24, 0xFF	; 255
    3884:	80 93 2c 02 	sts	0x022C, r24
		}
	}

	/* PWM-Routine */
	if (Counter_4 >= 75)
    3888:	80 91 3b 02 	lds	r24, 0x023B
    388c:	90 91 3c 02 	lds	r25, 0x023C
    3890:	8b 34       	cpi	r24, 0x4B	; 75
    3892:	91 05       	cpc	r25, r1
    3894:	08 f4       	brcc	.+2      	; 0x3898 <LED_Sparkle+0xa62>
    3896:	5e c0       	rjmp	.+188    	; 0x3954 <LED_Sparkle+0xb1e>
	{
		Counter_4 = 0;
    3898:	10 92 3c 02 	sts	0x023C, r1
    389c:	10 92 3b 02 	sts	0x023B, r1
		
		if (Brightness_5 > 0)
    38a0:	80 91 2c 02 	lds	r24, 0x022C
    38a4:	88 23       	and	r24, r24
    38a6:	09 f4       	brne	.+2      	; 0x38aa <LED_Sparkle+0xa74>
    38a8:	b4 c0       	rjmp	.+360    	; 0x3a12 <LED_Sparkle+0xbdc>
		{
			com74hc595_setBit(4);
    38aa:	84 e0       	ldi	r24, 0x04	; 4
    38ac:	0e 94 99 01 	call	0x332	; 0x332 <com74hc595_setBit>
			com74hc595_setBit(9);
    38b0:	89 e0       	ldi	r24, 0x09	; 9
    38b2:	0e 94 99 01 	call	0x332	; 0x332 <com74hc595_setBit>
			com74hc595_setBit(14);
    38b6:	8e e0       	ldi	r24, 0x0E	; 14
    38b8:	0e 94 99 01 	call	0x332	; 0x332 <com74hc595_setBit>
			com74hc595_setBit(19);
    38bc:	83 e1       	ldi	r24, 0x13	; 19
    38be:	0e 94 99 01 	call	0x332	; 0x332 <com74hc595_setBit>
			com74hc595_setBit(24);
    38c2:	88 e1       	ldi	r24, 0x18	; 24
    38c4:	0e 94 99 01 	call	0x332	; 0x332 <com74hc595_setBit>
			com74hc595_setBit(29);
    38c8:	8d e1       	ldi	r24, 0x1D	; 29
    38ca:	0e 94 99 01 	call	0x332	; 0x332 <com74hc595_setBit>
			com74hc595_setBit(34);
    38ce:	82 e2       	ldi	r24, 0x22	; 34
    38d0:	0e 94 99 01 	call	0x332	; 0x332 <com74hc595_setBit>
			com74hc595_setBit(39);
    38d4:	87 e2       	ldi	r24, 0x27	; 39
    38d6:	0e 94 99 01 	call	0x332	; 0x332 <com74hc595_setBit>
			com74hc595_setBit(44);
    38da:	8c e2       	ldi	r24, 0x2C	; 44
    38dc:	0e 94 99 01 	call	0x332	; 0x332 <com74hc595_setBit>
			com74hc595_setBit(49);
    38e0:	81 e3       	ldi	r24, 0x31	; 49
    38e2:	0e 94 99 01 	call	0x332	; 0x332 <com74hc595_setBit>
			com74hc595_setBit(54);
    38e6:	86 e3       	ldi	r24, 0x36	; 54
    38e8:	0e 94 99 01 	call	0x332	; 0x332 <com74hc595_setBit>
			com74hc595_setBit(59);
    38ec:	8b e3       	ldi	r24, 0x3B	; 59
    38ee:	0e 94 99 01 	call	0x332	; 0x332 <com74hc595_setBit>
			com74hc595_setBit(64);
    38f2:	80 e4       	ldi	r24, 0x40	; 64
    38f4:	0e 94 99 01 	call	0x332	; 0x332 <com74hc595_setBit>
			com74hc595_setBit(69);
    38f8:	85 e4       	ldi	r24, 0x45	; 69
    38fa:	0e 94 99 01 	call	0x332	; 0x332 <com74hc595_setBit>
			com74hc595_setBit(74);
    38fe:	8a e4       	ldi	r24, 0x4A	; 74
    3900:	0e 94 99 01 	call	0x332	; 0x332 <com74hc595_setBit>
			com74hc595_setBit(79);
    3904:	8f e4       	ldi	r24, 0x4F	; 79
    3906:	0e 94 99 01 	call	0x332	; 0x332 <com74hc595_setBit>
			com74hc595_setBit(84);
    390a:	84 e5       	ldi	r24, 0x54	; 84
    390c:	0e 94 99 01 	call	0x332	; 0x332 <com74hc595_setBit>
			com74hc595_setBit(89);
    3910:	89 e5       	ldi	r24, 0x59	; 89
    3912:	0e 94 99 01 	call	0x332	; 0x332 <com74hc595_setBit>
			com74hc595_setBit(94);
    3916:	8e e5       	ldi	r24, 0x5E	; 94
    3918:	0e 94 99 01 	call	0x332	; 0x332 <com74hc595_setBit>
			com74hc595_setBit(99);
    391c:	83 e6       	ldi	r24, 0x63	; 99
    391e:	0e 94 99 01 	call	0x332	; 0x332 <com74hc595_setBit>
			com74hc595_setBit(104);
    3922:	88 e6       	ldi	r24, 0x68	; 104
    3924:	0e 94 99 01 	call	0x332	; 0x332 <com74hc595_setBit>
			com74hc595_setBit(109);
    3928:	8d e6       	ldi	r24, 0x6D	; 109
    392a:	0e 94 99 01 	call	0x332	; 0x332 <com74hc595_setBit>
			com74hc595_setBit(114);
    392e:	82 e7       	ldi	r24, 0x72	; 114
    3930:	0e 94 99 01 	call	0x332	; 0x332 <com74hc595_setBit>
			com74hc595_setBit(119);
    3934:	87 e7       	ldi	r24, 0x77	; 119
    3936:	0e 94 99 01 	call	0x332	; 0x332 <com74hc595_setBit>
			com74hc595_setBit(124);
    393a:	8c e7       	ldi	r24, 0x7C	; 124
    393c:	0e 94 99 01 	call	0x332	; 0x332 <com74hc595_setBit>
			com74hc595_setBit(129);
    3940:	81 e8       	ldi	r24, 0x81	; 129
    3942:	0e 94 99 01 	call	0x332	; 0x332 <com74hc595_setBit>
			com74hc595_setBit(134);
    3946:	86 e8       	ldi	r24, 0x86	; 134
    3948:	0e 94 99 01 	call	0x332	; 0x332 <com74hc595_setBit>
			com74hc595_setBit(139);
    394c:	8b e8       	ldi	r24, 0x8B	; 139
    394e:	0e 94 99 01 	call	0x332	; 0x332 <com74hc595_setBit>
    3952:	5f c0       	rjmp	.+190    	; 0x3a12 <LED_Sparkle+0xbdc>
		}
	}
	else
	{
		if (Counter_4 == Brightness_5)
    3954:	20 91 2c 02 	lds	r18, 0x022C
    3958:	80 91 3b 02 	lds	r24, 0x023B
    395c:	90 91 3c 02 	lds	r25, 0x023C
    3960:	30 e0       	ldi	r19, 0x00	; 0
    3962:	28 17       	cp	r18, r24
    3964:	39 07       	cpc	r19, r25
    3966:	09 f0       	breq	.+2      	; 0x396a <LED_Sparkle+0xb34>
    3968:	54 c0       	rjmp	.+168    	; 0x3a12 <LED_Sparkle+0xbdc>
		{
			com74hc595_unsetBit(4);
    396a:	84 e0       	ldi	r24, 0x04	; 4
    396c:	0e 94 ae 01 	call	0x35c	; 0x35c <com74hc595_unsetBit>
			com74hc595_unsetBit(9);
    3970:	89 e0       	ldi	r24, 0x09	; 9
    3972:	0e 94 ae 01 	call	0x35c	; 0x35c <com74hc595_unsetBit>
			com74hc595_unsetBit(14);
    3976:	8e e0       	ldi	r24, 0x0E	; 14
    3978:	0e 94 ae 01 	call	0x35c	; 0x35c <com74hc595_unsetBit>
			com74hc595_unsetBit(19);
    397c:	83 e1       	ldi	r24, 0x13	; 19
    397e:	0e 94 ae 01 	call	0x35c	; 0x35c <com74hc595_unsetBit>
			com74hc595_unsetBit(24);
    3982:	88 e1       	ldi	r24, 0x18	; 24
    3984:	0e 94 ae 01 	call	0x35c	; 0x35c <com74hc595_unsetBit>
			com74hc595_unsetBit(29);
    3988:	8d e1       	ldi	r24, 0x1D	; 29
    398a:	0e 94 ae 01 	call	0x35c	; 0x35c <com74hc595_unsetBit>
			com74hc595_unsetBit(34);
    398e:	82 e2       	ldi	r24, 0x22	; 34
    3990:	0e 94 ae 01 	call	0x35c	; 0x35c <com74hc595_unsetBit>
			com74hc595_unsetBit(39);
    3994:	87 e2       	ldi	r24, 0x27	; 39
    3996:	0e 94 ae 01 	call	0x35c	; 0x35c <com74hc595_unsetBit>
			com74hc595_unsetBit(44);
    399a:	8c e2       	ldi	r24, 0x2C	; 44
    399c:	0e 94 ae 01 	call	0x35c	; 0x35c <com74hc595_unsetBit>
			com74hc595_unsetBit(49);
    39a0:	81 e3       	ldi	r24, 0x31	; 49
    39a2:	0e 94 ae 01 	call	0x35c	; 0x35c <com74hc595_unsetBit>
			com74hc595_unsetBit(54);
    39a6:	86 e3       	ldi	r24, 0x36	; 54
    39a8:	0e 94 ae 01 	call	0x35c	; 0x35c <com74hc595_unsetBit>
			com74hc595_unsetBit(59);
    39ac:	8b e3       	ldi	r24, 0x3B	; 59
    39ae:	0e 94 ae 01 	call	0x35c	; 0x35c <com74hc595_unsetBit>
			com74hc595_unsetBit(64);
    39b2:	80 e4       	ldi	r24, 0x40	; 64
    39b4:	0e 94 ae 01 	call	0x35c	; 0x35c <com74hc595_unsetBit>
			com74hc595_unsetBit(69);
    39b8:	85 e4       	ldi	r24, 0x45	; 69
    39ba:	0e 94 ae 01 	call	0x35c	; 0x35c <com74hc595_unsetBit>
			com74hc595_unsetBit(74);
    39be:	8a e4       	ldi	r24, 0x4A	; 74
    39c0:	0e 94 ae 01 	call	0x35c	; 0x35c <com74hc595_unsetBit>
			com74hc595_unsetBit(79);
    39c4:	8f e4       	ldi	r24, 0x4F	; 79
    39c6:	0e 94 ae 01 	call	0x35c	; 0x35c <com74hc595_unsetBit>
			com74hc595_unsetBit(84);
    39ca:	84 e5       	ldi	r24, 0x54	; 84
    39cc:	0e 94 ae 01 	call	0x35c	; 0x35c <com74hc595_unsetBit>
			com74hc595_unsetBit(89);
    39d0:	89 e5       	ldi	r24, 0x59	; 89
    39d2:	0e 94 ae 01 	call	0x35c	; 0x35c <com74hc595_unsetBit>
			com74hc595_unsetBit(94);
    39d6:	8e e5       	ldi	r24, 0x5E	; 94
    39d8:	0e 94 ae 01 	call	0x35c	; 0x35c <com74hc595_unsetBit>
			com74hc595_unsetBit(99);
    39dc:	83 e6       	ldi	r24, 0x63	; 99
    39de:	0e 94 ae 01 	call	0x35c	; 0x35c <com74hc595_unsetBit>
			com74hc595_unsetBit(104);
    39e2:	88 e6       	ldi	r24, 0x68	; 104
    39e4:	0e 94 ae 01 	call	0x35c	; 0x35c <com74hc595_unsetBit>
			com74hc595_unsetBit(109);
    39e8:	8d e6       	ldi	r24, 0x6D	; 109
    39ea:	0e 94 ae 01 	call	0x35c	; 0x35c <com74hc595_unsetBit>
			com74hc595_unsetBit(114);
    39ee:	82 e7       	ldi	r24, 0x72	; 114
    39f0:	0e 94 ae 01 	call	0x35c	; 0x35c <com74hc595_unsetBit>
			com74hc595_unsetBit(119);
    39f4:	87 e7       	ldi	r24, 0x77	; 119
    39f6:	0e 94 ae 01 	call	0x35c	; 0x35c <com74hc595_unsetBit>
			com74hc595_unsetBit(124);
    39fa:	8c e7       	ldi	r24, 0x7C	; 124
    39fc:	0e 94 ae 01 	call	0x35c	; 0x35c <com74hc595_unsetBit>
			com74hc595_unsetBit(129);
    3a00:	81 e8       	ldi	r24, 0x81	; 129
    3a02:	0e 94 ae 01 	call	0x35c	; 0x35c <com74hc595_unsetBit>
			com74hc595_unsetBit(134);
    3a06:	86 e8       	ldi	r24, 0x86	; 134
    3a08:	0e 94 ae 01 	call	0x35c	; 0x35c <com74hc595_unsetBit>
			com74hc595_unsetBit(139);
    3a0c:	8b e8       	ldi	r24, 0x8B	; 139
    3a0e:	0e 94 ae 01 	call	0x35c	; 0x35c <com74hc595_unsetBit>
		}
	}

	com74hc595_out();
    3a12:	0e 94 e9 01 	call	0x3d2	; 0x3d2 <com74hc595_out>
    3a16:	08 95       	ret

00003a18 <LED_Flare>:

}		

/* simulated LED flare */
void LED_Flare(void)
{
    3a18:	cf 93       	push	r28
    3a1a:	df 93       	push	r29
	if (LED_Status != LED_Status_Old)
    3a1c:	20 91 28 02 	lds	r18, 0x0228
    3a20:	30 91 29 02 	lds	r19, 0x0229
    3a24:	80 91 5e 02 	lds	r24, 0x025E
    3a28:	90 91 5f 02 	lds	r25, 0x025F
    3a2c:	28 17       	cp	r18, r24
    3a2e:	39 07       	cpc	r19, r25
    3a30:	a9 f1       	breq	.+106    	; 0x3a9c <LED_Flare+0x84>
	{
		LED_Status_Old = LED_Status;
    3a32:	80 91 28 02 	lds	r24, 0x0228
    3a36:	90 91 29 02 	lds	r25, 0x0229
    3a3a:	90 93 5f 02 	sts	0x025F, r25
    3a3e:	80 93 5e 02 	sts	0x025E, r24
		
		/* save the actual "LED Status" */
		eeprom_write_byte(&EEPROM_save_LED_Status, LED_Status);
    3a42:	60 91 28 02 	lds	r22, 0x0228
    3a46:	70 91 29 02 	lds	r23, 0x0229
    3a4a:	80 e0       	ldi	r24, 0x00	; 0
    3a4c:	90 e0       	ldi	r25, 0x00	; 0
    3a4e:	0e 94 36 36 	call	0x6c6c	; 0x6c6c <__eewr_byte_m32>
		
		all_LED_OFF();
    3a52:	0e 94 5a 05 	call	0xab4	; 0xab4 <all_LED_OFF>
		Counter_2 = 0;
    3a56:	10 92 85 02 	sts	0x0285, r1
    3a5a:	10 92 84 02 	sts	0x0284, r1
		Counter_1 = 0;
    3a5e:	10 92 72 02 	sts	0x0272, r1
    3a62:	10 92 71 02 	sts	0x0271, r1
		Counter_For_Brightness_1 = 0;
    3a66:	10 92 3a 02 	sts	0x023A, r1
    3a6a:	10 92 39 02 	sts	0x0239, r1
		Brightness = 1;	
    3a6e:	81 e0       	ldi	r24, 0x01	; 1
    3a70:	90 e0       	ldi	r25, 0x00	; 0
    3a72:	90 93 71 00 	sts	0x0071, r25
    3a76:	80 93 70 00 	sts	0x0070, r24
		Counter_For_Display = 0;
    3a7a:	10 92 66 02 	sts	0x0266, r1
    3a7e:	10 92 65 02 	sts	0x0265, r1
		counter_for_change_accu_symbol = 0;
    3a82:	10 92 43 02 	sts	0x0243, r1
    3a86:	10 92 42 02 	sts	0x0242, r1
		if (LED_Status != 12)
    3a8a:	80 91 28 02 	lds	r24, 0x0228
    3a8e:	90 91 29 02 	lds	r25, 0x0229
    3a92:	0c 97       	sbiw	r24, 0x0c	; 12
    3a94:	19 f0       	breq	.+6      	; 0x3a9c <LED_Flare+0x84>
		{
			Display_a_Character(4);
    3a96:	84 e0       	ldi	r24, 0x04	; 4
    3a98:	0e 94 f3 04 	call	0x9e6	; 0x9e6 <Display_a_Character>
		}		
	}	

	
	Counter_1 ++;
    3a9c:	80 91 71 02 	lds	r24, 0x0271
    3aa0:	90 91 72 02 	lds	r25, 0x0272
    3aa4:	01 96       	adiw	r24, 0x01	; 1
    3aa6:	90 93 72 02 	sts	0x0272, r25
    3aaa:	80 93 71 02 	sts	0x0271, r24
	Counter_2 ++;
    3aae:	80 91 84 02 	lds	r24, 0x0284
    3ab2:	90 91 85 02 	lds	r25, 0x0285
    3ab6:	01 96       	adiw	r24, 0x01	; 1
    3ab8:	90 93 85 02 	sts	0x0285, r25
    3abc:	80 93 84 02 	sts	0x0284, r24
	Counter_For_Brightness_1++;
    3ac0:	80 91 39 02 	lds	r24, 0x0239
    3ac4:	90 91 3a 02 	lds	r25, 0x023A
    3ac8:	01 96       	adiw	r24, 0x01	; 1
    3aca:	90 93 3a 02 	sts	0x023A, r25
    3ace:	80 93 39 02 	sts	0x0239, r24

	
	if (Brightness == 8)
    3ad2:	80 91 70 00 	lds	r24, 0x0070
    3ad6:	90 91 71 00 	lds	r25, 0x0071
    3ada:	08 97       	sbiw	r24, 0x08	; 8
    3adc:	31 f4       	brne	.+12     	; 0x3aea <LED_Flare+0xd2>
	{
		Brightness_Flag_1 = 1;
    3ade:	81 e0       	ldi	r24, 0x01	; 1
    3ae0:	90 e0       	ldi	r25, 0x00	; 0
    3ae2:	90 93 64 02 	sts	0x0264, r25
    3ae6:	80 93 63 02 	sts	0x0263, r24
	}
	if (Brightness == 1)
    3aea:	80 91 70 00 	lds	r24, 0x0070
    3aee:	90 91 71 00 	lds	r25, 0x0071
    3af2:	01 97       	sbiw	r24, 0x01	; 1
    3af4:	31 f4       	brne	.+12     	; 0x3b02 <LED_Flare+0xea>
	{
		Brightness_Flag_1 = 2;
    3af6:	82 e0       	ldi	r24, 0x02	; 2
    3af8:	90 e0       	ldi	r25, 0x00	; 0
    3afa:	90 93 64 02 	sts	0x0264, r25
    3afe:	80 93 63 02 	sts	0x0263, r24
	}
		
	
	/* Runter-Faden */
	if (Brightness_Flag_1 == 1)
    3b02:	80 91 63 02 	lds	r24, 0x0263
    3b06:	90 91 64 02 	lds	r25, 0x0264
    3b0a:	01 97       	sbiw	r24, 0x01	; 1
    3b0c:	99 f4       	brne	.+38     	; 0x3b34 <LED_Flare+0x11c>
	{
		if (Counter_For_Brightness_1 >= 1)
    3b0e:	80 91 39 02 	lds	r24, 0x0239
    3b12:	90 91 3a 02 	lds	r25, 0x023A
    3b16:	89 2b       	or	r24, r25
    3b18:	69 f0       	breq	.+26     	; 0x3b34 <LED_Flare+0x11c>
		{
			Counter_For_Brightness_1 = 0;
    3b1a:	10 92 3a 02 	sts	0x023A, r1
    3b1e:	10 92 39 02 	sts	0x0239, r1
			Brightness --;
    3b22:	80 91 70 00 	lds	r24, 0x0070
    3b26:	90 91 71 00 	lds	r25, 0x0071
    3b2a:	01 97       	sbiw	r24, 0x01	; 1
    3b2c:	90 93 71 00 	sts	0x0071, r25
    3b30:	80 93 70 00 	sts	0x0070, r24
		}
	}
	
	
	/* Hoch-Faden */
	if (Brightness_Flag_1 == 2)
    3b34:	80 91 63 02 	lds	r24, 0x0263
    3b38:	90 91 64 02 	lds	r25, 0x0264
    3b3c:	02 97       	sbiw	r24, 0x02	; 2
    3b3e:	09 f0       	breq	.+2      	; 0x3b42 <LED_Flare+0x12a>
    3b40:	8d c0       	rjmp	.+282    	; 0x3c5c <LED_Flare+0x244>
	{
		if (Counter_For_Brightness_1 >= 1)
    3b42:	80 91 39 02 	lds	r24, 0x0239
    3b46:	90 91 3a 02 	lds	r25, 0x023A
    3b4a:	89 2b       	or	r24, r25
    3b4c:	09 f4       	brne	.+2      	; 0x3b50 <LED_Flare+0x138>
    3b4e:	86 c0       	rjmp	.+268    	; 0x3c5c <LED_Flare+0x244>
		{

			Counter_For_Brightness_1 = 0;
    3b50:	10 92 3a 02 	sts	0x023A, r1
    3b54:	10 92 39 02 	sts	0x0239, r1
			Brightness ++;
    3b58:	80 91 70 00 	lds	r24, 0x0070
    3b5c:	90 91 71 00 	lds	r25, 0x0071
    3b60:	01 96       	adiw	r24, 0x01	; 1
    3b62:	90 93 71 00 	sts	0x0071, r25
    3b66:	80 93 70 00 	sts	0x0070, r24
    3b6a:	78 c0       	rjmp	.+240    	; 0x3c5c <LED_Flare+0x244>
	}
	
	
	for (uint16_t x = 0; x <= Duration; x ++)
	{
		Counter ++;
    3b6c:	80 91 56 02 	lds	r24, 0x0256
    3b70:	90 91 57 02 	lds	r25, 0x0257
    3b74:	01 96       	adiw	r24, 0x01	; 1
    3b76:	90 93 57 02 	sts	0x0257, r25
    3b7a:	80 93 56 02 	sts	0x0256, r24

		if (Counter >= 100)
    3b7e:	80 91 56 02 	lds	r24, 0x0256
    3b82:	90 91 57 02 	lds	r25, 0x0257
    3b86:	84 36       	cpi	r24, 0x64	; 100
    3b88:	91 05       	cpc	r25, r1
    3b8a:	68 f0       	brcs	.+26     	; 0x3ba6 <LED_Flare+0x18e>
		{
			Counter = 0;
    3b8c:	10 92 57 02 	sts	0x0257, r1
    3b90:	10 92 56 02 	sts	0x0256, r1

			if (Brightness > 0)
    3b94:	80 91 70 00 	lds	r24, 0x0070
    3b98:	90 91 71 00 	lds	r25, 0x0071
    3b9c:	89 2b       	or	r24, r25
    3b9e:	81 f0       	breq	.+32     	; 0x3bc0 <LED_Flare+0x1a8>
			{
				com74hc595_setall();
    3ba0:	0e 94 c4 01 	call	0x388	; 0x388 <com74hc595_setall>
    3ba4:	0d c0       	rjmp	.+26     	; 0x3bc0 <LED_Flare+0x1a8>
			}
		}
		else
		{
			if (Counter >= Brightness)
    3ba6:	20 91 56 02 	lds	r18, 0x0256
    3baa:	30 91 57 02 	lds	r19, 0x0257
    3bae:	80 91 70 00 	lds	r24, 0x0070
    3bb2:	90 91 71 00 	lds	r25, 0x0071
    3bb6:	28 17       	cp	r18, r24
    3bb8:	39 07       	cpc	r19, r25
    3bba:	10 f0       	brcs	.+4      	; 0x3bc0 <LED_Flare+0x1a8>
			{
				com74hc595_unsetall();
    3bbc:	0e 94 d1 01 	call	0x3a2	; 0x3a2 <com74hc595_unsetall>
			}
		}
			com74hc595_out();
    3bc0:	0e 94 e9 01 	call	0x3d2	; 0x3d2 <com74hc595_out>
			Brightness ++;
		}
	}
	
	
	for (uint16_t x = 0; x <= Duration; x ++)
    3bc4:	21 96       	adiw	r28, 0x01	; 1
    3bc6:	80 91 6c 00 	lds	r24, 0x006C
    3bca:	90 91 6d 00 	lds	r25, 0x006D
    3bce:	8c 17       	cp	r24, r28
    3bd0:	9d 07       	cpc	r25, r29
    3bd2:	60 f6       	brcc	.-104    	; 0x3b6c <LED_Flare+0x154>
		}
			com74hc595_out();
	}	
	
	
	if (Counter_1 >= Change_Duration)
    3bd4:	20 91 71 02 	lds	r18, 0x0271
    3bd8:	30 91 72 02 	lds	r19, 0x0272
    3bdc:	80 91 6e 00 	lds	r24, 0x006E
    3be0:	90 91 6f 00 	lds	r25, 0x006F
    3be4:	28 17       	cp	r18, r24
    3be6:	39 07       	cpc	r19, r25
    3be8:	f8 f0       	brcs	.+62     	; 0x3c28 <LED_Flare+0x210>
	{
		Counter_1 = 0;
    3bea:	10 92 72 02 	sts	0x0272, r1
    3bee:	10 92 71 02 	sts	0x0271, r1
		Change_Duration = (rand() % 8)+1;	//sollte zwischen 1 und 8 liegen
    3bf2:	0e 94 1e 36 	call	0x6c3c	; 0x6c3c <rand>
    3bf6:	87 70       	andi	r24, 0x07	; 7
    3bf8:	90 78       	andi	r25, 0x80	; 128
    3bfa:	99 23       	and	r25, r25
    3bfc:	24 f4       	brge	.+8      	; 0x3c06 <LED_Flare+0x1ee>
    3bfe:	01 97       	sbiw	r24, 0x01	; 1
    3c00:	88 6f       	ori	r24, 0xF8	; 248
    3c02:	9f 6f       	ori	r25, 0xFF	; 255
    3c04:	01 96       	adiw	r24, 0x01	; 1
    3c06:	01 96       	adiw	r24, 0x01	; 1
    3c08:	90 93 6f 00 	sts	0x006F, r25
    3c0c:	80 93 6e 00 	sts	0x006E, r24
		Duration = (rand() % 800)+200;			//sollte zwischen 500 und 3000 liegen
    3c10:	0e 94 1e 36 	call	0x6c3c	; 0x6c3c <rand>
    3c14:	60 e2       	ldi	r22, 0x20	; 32
    3c16:	73 e0       	ldi	r23, 0x03	; 3
    3c18:	0e 94 a2 35 	call	0x6b44	; 0x6b44 <__divmodhi4>
    3c1c:	88 53       	subi	r24, 0x38	; 56
    3c1e:	9f 4f       	sbci	r25, 0xFF	; 255
    3c20:	90 93 6d 00 	sts	0x006D, r25
    3c24:	80 93 6c 00 	sts	0x006C, r24
	}
	
	if (Counter_2 >= 5)
    3c28:	80 91 84 02 	lds	r24, 0x0284
    3c2c:	90 91 85 02 	lds	r25, 0x0285
    3c30:	05 97       	sbiw	r24, 0x05	; 5
    3c32:	d8 f0       	brcs	.+54     	; 0x3c6a <LED_Flare+0x252>
	{
		Counter_2 = 0;
    3c34:	10 92 85 02 	sts	0x0285, r1
    3c38:	10 92 84 02 	sts	0x0284, r1
		Brightness_Flag_1 = (rand() % 2)+1;
    3c3c:	0e 94 1e 36 	call	0x6c3c	; 0x6c3c <rand>
    3c40:	81 70       	andi	r24, 0x01	; 1
    3c42:	90 78       	andi	r25, 0x80	; 128
    3c44:	99 23       	and	r25, r25
    3c46:	24 f4       	brge	.+8      	; 0x3c50 <LED_Flare+0x238>
    3c48:	01 97       	sbiw	r24, 0x01	; 1
    3c4a:	8e 6f       	ori	r24, 0xFE	; 254
    3c4c:	9f 6f       	ori	r25, 0xFF	; 255
    3c4e:	01 96       	adiw	r24, 0x01	; 1
    3c50:	01 96       	adiw	r24, 0x01	; 1
    3c52:	90 93 64 02 	sts	0x0264, r25
    3c56:	80 93 63 02 	sts	0x0263, r24
    3c5a:	07 c0       	rjmp	.+14     	; 0x3c6a <LED_Flare+0x252>
			Brightness ++;
		}
	}
	
	
	for (uint16_t x = 0; x <= Duration; x ++)
    3c5c:	80 91 6c 00 	lds	r24, 0x006C
    3c60:	90 91 6d 00 	lds	r25, 0x006D
    3c64:	c0 e0       	ldi	r28, 0x00	; 0
    3c66:	d0 e0       	ldi	r29, 0x00	; 0
    3c68:	81 cf       	rjmp	.-254    	; 0x3b6c <LED_Flare+0x154>
	{
		Counter_2 = 0;
		Brightness_Flag_1 = (rand() % 2)+1;
	}
			
}
    3c6a:	df 91       	pop	r29
    3c6c:	cf 91       	pop	r28
    3c6e:	08 95       	ret

00003c70 <LED_Circle_Down>:

void LED_Circle_Down (uint16_t speed, uint8_t bright)
{
    3c70:	1f 93       	push	r17
    3c72:	cf 93       	push	r28
    3c74:	df 93       	push	r29
    3c76:	ec 01       	movw	r28, r24
    3c78:	16 2f       	mov	r17, r22
	

	if (LED_Status != LED_Status_Old)
    3c7a:	20 91 28 02 	lds	r18, 0x0228
    3c7e:	30 91 29 02 	lds	r19, 0x0229
    3c82:	80 91 5e 02 	lds	r24, 0x025E
    3c86:	90 91 5f 02 	lds	r25, 0x025F
    3c8a:	28 17       	cp	r18, r24
    3c8c:	39 07       	cpc	r19, r25
    3c8e:	09 f4       	brne	.+2      	; 0x3c92 <LED_Circle_Down+0x22>
    3c90:	71 c0       	rjmp	.+226    	; 0x3d74 <LED_Circle_Down+0x104>
	{
		all_LED_OFF();
    3c92:	0e 94 5a 05 	call	0xab4	; 0xab4 <all_LED_OFF>
		LED_Status_Old = LED_Status;
    3c96:	80 91 28 02 	lds	r24, 0x0228
    3c9a:	90 91 29 02 	lds	r25, 0x0229
    3c9e:	90 93 5f 02 	sts	0x025F, r25
    3ca2:	80 93 5e 02 	sts	0x025E, r24
		
		/* save the actual "LED Status" */
		eeprom_write_byte(&EEPROM_save_LED_Status, LED_Status);
    3ca6:	60 91 28 02 	lds	r22, 0x0228
    3caa:	70 91 29 02 	lds	r23, 0x0229
    3cae:	80 e0       	ldi	r24, 0x00	; 0
    3cb0:	90 e0       	ldi	r25, 0x00	; 0
    3cb2:	0e 94 36 36 	call	0x6c6c	; 0x6c6c <__eewr_byte_m32>
		
		Counter = 0;
    3cb6:	10 92 57 02 	sts	0x0257, r1
    3cba:	10 92 56 02 	sts	0x0256, r1
		Counter_1 = 0;
    3cbe:	10 92 72 02 	sts	0x0272, r1
    3cc2:	10 92 71 02 	sts	0x0271, r1
		LED_0 = 0;
    3cc6:	10 92 59 02 	sts	0x0259, r1
    3cca:	10 92 58 02 	sts	0x0258, r1
		LED_1 = 12;
    3cce:	8c e0       	ldi	r24, 0x0C	; 12
    3cd0:	90 e0       	ldi	r25, 0x00	; 0
    3cd2:	90 93 4b 02 	sts	0x024B, r25
    3cd6:	80 93 4a 02 	sts	0x024A, r24
		LED_2 = 24;
    3cda:	88 e1       	ldi	r24, 0x18	; 24
    3cdc:	90 e0       	ldi	r25, 0x00	; 0
    3cde:	90 93 87 02 	sts	0x0287, r25
    3ce2:	80 93 86 02 	sts	0x0286, r24
		LED_3 = 36;
    3ce6:	84 e2       	ldi	r24, 0x24	; 36
    3ce8:	90 e0       	ldi	r25, 0x00	; 0
    3cea:	90 93 35 02 	sts	0x0235, r25
    3cee:	80 93 34 02 	sts	0x0234, r24
		LED_4 = 48;
    3cf2:	80 e3       	ldi	r24, 0x30	; 48
    3cf4:	90 e0       	ldi	r25, 0x00	; 0
    3cf6:	90 93 62 02 	sts	0x0262, r25
    3cfa:	80 93 61 02 	sts	0x0261, r24
		LED_5 = 60;		
    3cfe:	8c e3       	ldi	r24, 0x3C	; 60
    3d00:	90 e0       	ldi	r25, 0x00	; 0
    3d02:	90 93 8b 02 	sts	0x028B, r25
    3d06:	80 93 8a 02 	sts	0x028A, r24
		LED_6 = 72;
    3d0a:	88 e4       	ldi	r24, 0x48	; 72
    3d0c:	90 e0       	ldi	r25, 0x00	; 0
    3d0e:	90 93 49 02 	sts	0x0249, r25
    3d12:	80 93 48 02 	sts	0x0248, r24
		LED_7 = 84;
    3d16:	84 e5       	ldi	r24, 0x54	; 84
    3d18:	90 e0       	ldi	r25, 0x00	; 0
    3d1a:	90 93 5b 02 	sts	0x025B, r25
    3d1e:	80 93 5a 02 	sts	0x025A, r24
		LED_8 = 96;	
    3d22:	80 e6       	ldi	r24, 0x60	; 96
    3d24:	90 e0       	ldi	r25, 0x00	; 0
    3d26:	90 93 2b 02 	sts	0x022B, r25
    3d2a:	80 93 2a 02 	sts	0x022A, r24
		LED_9 = 108;
    3d2e:	8c e6       	ldi	r24, 0x6C	; 108
    3d30:	90 e0       	ldi	r25, 0x00	; 0
    3d32:	90 93 55 02 	sts	0x0255, r25
    3d36:	80 93 54 02 	sts	0x0254, r24
		LED_10 = 120;
    3d3a:	88 e7       	ldi	r24, 0x78	; 120
    3d3c:	90 e0       	ldi	r25, 0x00	; 0
    3d3e:	90 93 51 02 	sts	0x0251, r25
    3d42:	80 93 50 02 	sts	0x0250, r24
		LED_11 = 132;	
    3d46:	84 e8       	ldi	r24, 0x84	; 132
    3d48:	90 e0       	ldi	r25, 0x00	; 0
    3d4a:	90 93 47 02 	sts	0x0247, r25
    3d4e:	80 93 46 02 	sts	0x0246, r24
		Counter_For_Display = 0;
    3d52:	10 92 66 02 	sts	0x0266, r1
    3d56:	10 92 65 02 	sts	0x0265, r1
		counter_for_change_accu_symbol = 0;
    3d5a:	10 92 43 02 	sts	0x0243, r1
    3d5e:	10 92 42 02 	sts	0x0242, r1
		if (LED_Status != 12)
    3d62:	80 91 28 02 	lds	r24, 0x0228
    3d66:	90 91 29 02 	lds	r25, 0x0229
    3d6a:	0c 97       	sbiw	r24, 0x0c	; 12
    3d6c:	19 f0       	breq	.+6      	; 0x3d74 <LED_Circle_Down+0x104>
		{
			Display_a_Character(7);
    3d6e:	87 e0       	ldi	r24, 0x07	; 7
    3d70:	0e 94 f3 04 	call	0x9e6	; 0x9e6 <Display_a_Character>
		}			
	}
	
	Counter ++;
    3d74:	80 91 56 02 	lds	r24, 0x0256
    3d78:	90 91 57 02 	lds	r25, 0x0257
    3d7c:	01 96       	adiw	r24, 0x01	; 1
    3d7e:	90 93 57 02 	sts	0x0257, r25
    3d82:	80 93 56 02 	sts	0x0256, r24
	Counter_1 ++;
    3d86:	80 91 71 02 	lds	r24, 0x0271
    3d8a:	90 91 72 02 	lds	r25, 0x0272
    3d8e:	01 96       	adiw	r24, 0x01	; 1
    3d90:	90 93 72 02 	sts	0x0272, r25
    3d94:	80 93 71 02 	sts	0x0271, r24
	
	
	/* PWM-Routine */
	if (Counter >= 60)
    3d98:	80 91 56 02 	lds	r24, 0x0256
    3d9c:	90 91 57 02 	lds	r25, 0x0257
    3da0:	cc 97       	sbiw	r24, 0x3c	; 60
    3da2:	08 f4       	brcc	.+2      	; 0x3da6 <LED_Circle_Down+0x136>
    3da4:	54 c0       	rjmp	.+168    	; 0x3e4e <LED_Circle_Down+0x1de>
	{
		Counter = 0;
    3da6:	10 92 57 02 	sts	0x0257, r1
    3daa:	10 92 56 02 	sts	0x0256, r1
	
		if (Brightness > 0)
    3dae:	80 91 70 00 	lds	r24, 0x0070
    3db2:	90 91 71 00 	lds	r25, 0x0071
    3db6:	89 2b       	or	r24, r25
    3db8:	09 f4       	brne	.+2      	; 0x3dbc <LED_Circle_Down+0x14c>
    3dba:	9b c0       	rjmp	.+310    	; 0x3ef2 <LED_Circle_Down+0x282>
		{
			com74hc595_setBit(LED_0);
    3dbc:	80 91 58 02 	lds	r24, 0x0258
    3dc0:	90 91 59 02 	lds	r25, 0x0259
    3dc4:	0e 94 99 01 	call	0x332	; 0x332 <com74hc595_setBit>
			com74hc595_setBit(LED_1);
    3dc8:	80 91 4a 02 	lds	r24, 0x024A
    3dcc:	90 91 4b 02 	lds	r25, 0x024B
    3dd0:	0e 94 99 01 	call	0x332	; 0x332 <com74hc595_setBit>
			com74hc595_setBit(LED_2);
    3dd4:	80 91 86 02 	lds	r24, 0x0286
    3dd8:	90 91 87 02 	lds	r25, 0x0287
    3ddc:	0e 94 99 01 	call	0x332	; 0x332 <com74hc595_setBit>
			com74hc595_setBit(LED_3);
    3de0:	80 91 34 02 	lds	r24, 0x0234
    3de4:	90 91 35 02 	lds	r25, 0x0235
    3de8:	0e 94 99 01 	call	0x332	; 0x332 <com74hc595_setBit>
			com74hc595_setBit(LED_4);
    3dec:	80 91 61 02 	lds	r24, 0x0261
    3df0:	90 91 62 02 	lds	r25, 0x0262
    3df4:	0e 94 99 01 	call	0x332	; 0x332 <com74hc595_setBit>
			com74hc595_setBit(LED_5);
    3df8:	80 91 8a 02 	lds	r24, 0x028A
    3dfc:	90 91 8b 02 	lds	r25, 0x028B
    3e00:	0e 94 99 01 	call	0x332	; 0x332 <com74hc595_setBit>
			com74hc595_setBit(LED_6);
    3e04:	80 91 48 02 	lds	r24, 0x0248
    3e08:	90 91 49 02 	lds	r25, 0x0249
    3e0c:	0e 94 99 01 	call	0x332	; 0x332 <com74hc595_setBit>
			com74hc595_setBit(LED_7);
    3e10:	80 91 5a 02 	lds	r24, 0x025A
    3e14:	90 91 5b 02 	lds	r25, 0x025B
    3e18:	0e 94 99 01 	call	0x332	; 0x332 <com74hc595_setBit>
			com74hc595_setBit(LED_8);
    3e1c:	80 91 2a 02 	lds	r24, 0x022A
    3e20:	90 91 2b 02 	lds	r25, 0x022B
    3e24:	0e 94 99 01 	call	0x332	; 0x332 <com74hc595_setBit>
			com74hc595_setBit(LED_9);
    3e28:	80 91 54 02 	lds	r24, 0x0254
    3e2c:	90 91 55 02 	lds	r25, 0x0255
    3e30:	0e 94 99 01 	call	0x332	; 0x332 <com74hc595_setBit>
			com74hc595_setBit(LED_10);
    3e34:	80 91 50 02 	lds	r24, 0x0250
    3e38:	90 91 51 02 	lds	r25, 0x0251
    3e3c:	0e 94 99 01 	call	0x332	; 0x332 <com74hc595_setBit>
			com74hc595_setBit(LED_11);
    3e40:	80 91 46 02 	lds	r24, 0x0246
    3e44:	90 91 47 02 	lds	r25, 0x0247
    3e48:	0e 94 99 01 	call	0x332	; 0x332 <com74hc595_setBit>
    3e4c:	52 c0       	rjmp	.+164    	; 0x3ef2 <LED_Circle_Down+0x282>
		}
	}
	else
	{
		if (Counter == bright)
    3e4e:	80 91 56 02 	lds	r24, 0x0256
    3e52:	90 91 57 02 	lds	r25, 0x0257
    3e56:	21 2f       	mov	r18, r17
    3e58:	30 e0       	ldi	r19, 0x00	; 0
    3e5a:	28 17       	cp	r18, r24
    3e5c:	39 07       	cpc	r19, r25
    3e5e:	09 f0       	breq	.+2      	; 0x3e62 <LED_Circle_Down+0x1f2>
    3e60:	48 c0       	rjmp	.+144    	; 0x3ef2 <LED_Circle_Down+0x282>
		{
			com74hc595_unsetBit(LED_0);
    3e62:	80 91 58 02 	lds	r24, 0x0258
    3e66:	90 91 59 02 	lds	r25, 0x0259
    3e6a:	0e 94 ae 01 	call	0x35c	; 0x35c <com74hc595_unsetBit>
			com74hc595_unsetBit(LED_1);
    3e6e:	80 91 4a 02 	lds	r24, 0x024A
    3e72:	90 91 4b 02 	lds	r25, 0x024B
    3e76:	0e 94 ae 01 	call	0x35c	; 0x35c <com74hc595_unsetBit>
			com74hc595_unsetBit(LED_2);
    3e7a:	80 91 86 02 	lds	r24, 0x0286
    3e7e:	90 91 87 02 	lds	r25, 0x0287
    3e82:	0e 94 ae 01 	call	0x35c	; 0x35c <com74hc595_unsetBit>
			com74hc595_unsetBit(LED_3);
    3e86:	80 91 34 02 	lds	r24, 0x0234
    3e8a:	90 91 35 02 	lds	r25, 0x0235
    3e8e:	0e 94 ae 01 	call	0x35c	; 0x35c <com74hc595_unsetBit>
			com74hc595_unsetBit(LED_4);
    3e92:	80 91 61 02 	lds	r24, 0x0261
    3e96:	90 91 62 02 	lds	r25, 0x0262
    3e9a:	0e 94 ae 01 	call	0x35c	; 0x35c <com74hc595_unsetBit>
			com74hc595_unsetBit(LED_5);
    3e9e:	80 91 8a 02 	lds	r24, 0x028A
    3ea2:	90 91 8b 02 	lds	r25, 0x028B
    3ea6:	0e 94 ae 01 	call	0x35c	; 0x35c <com74hc595_unsetBit>
			com74hc595_unsetBit(LED_6);
    3eaa:	80 91 48 02 	lds	r24, 0x0248
    3eae:	90 91 49 02 	lds	r25, 0x0249
    3eb2:	0e 94 ae 01 	call	0x35c	; 0x35c <com74hc595_unsetBit>
			com74hc595_unsetBit(LED_7);
    3eb6:	80 91 5a 02 	lds	r24, 0x025A
    3eba:	90 91 5b 02 	lds	r25, 0x025B
    3ebe:	0e 94 ae 01 	call	0x35c	; 0x35c <com74hc595_unsetBit>
			com74hc595_unsetBit(LED_8);
    3ec2:	80 91 2a 02 	lds	r24, 0x022A
    3ec6:	90 91 2b 02 	lds	r25, 0x022B
    3eca:	0e 94 ae 01 	call	0x35c	; 0x35c <com74hc595_unsetBit>
			com74hc595_unsetBit(LED_9);
    3ece:	80 91 54 02 	lds	r24, 0x0254
    3ed2:	90 91 55 02 	lds	r25, 0x0255
    3ed6:	0e 94 ae 01 	call	0x35c	; 0x35c <com74hc595_unsetBit>
			com74hc595_unsetBit(LED_10);
    3eda:	80 91 50 02 	lds	r24, 0x0250
    3ede:	90 91 51 02 	lds	r25, 0x0251
    3ee2:	0e 94 ae 01 	call	0x35c	; 0x35c <com74hc595_unsetBit>
			com74hc595_unsetBit(LED_11);
    3ee6:	80 91 46 02 	lds	r24, 0x0246
    3eea:	90 91 47 02 	lds	r25, 0x0247
    3eee:	0e 94 ae 01 	call	0x35c	; 0x35c <com74hc595_unsetBit>
		}
	}
		com74hc595_out();	
    3ef2:	0e 94 e9 01 	call	0x3d2	; 0x3d2 <com74hc595_out>
	
	
	
	
	
	if (Counter_1 == speed)
    3ef6:	80 91 71 02 	lds	r24, 0x0271
    3efa:	90 91 72 02 	lds	r25, 0x0272
    3efe:	8c 17       	cp	r24, r28
    3f00:	9d 07       	cpc	r25, r29
    3f02:	09 f0       	breq	.+2      	; 0x3f06 <LED_Circle_Down+0x296>
    3f04:	72 c0       	rjmp	.+228    	; 0x3fea <LED_Circle_Down+0x37a>
	{
		com74hc595_unsetall();
    3f06:	0e 94 d1 01 	call	0x3a2	; 0x3a2 <com74hc595_unsetall>
		Counter_1 = 0;
    3f0a:	10 92 72 02 	sts	0x0272, r1
    3f0e:	10 92 71 02 	sts	0x0271, r1
		LED_0 ++;
    3f12:	80 91 58 02 	lds	r24, 0x0258
    3f16:	90 91 59 02 	lds	r25, 0x0259
    3f1a:	01 96       	adiw	r24, 0x01	; 1
    3f1c:	90 93 59 02 	sts	0x0259, r25
    3f20:	80 93 58 02 	sts	0x0258, r24
		LED_1 ++;
    3f24:	80 91 4a 02 	lds	r24, 0x024A
    3f28:	90 91 4b 02 	lds	r25, 0x024B
    3f2c:	01 96       	adiw	r24, 0x01	; 1
    3f2e:	90 93 4b 02 	sts	0x024B, r25
    3f32:	80 93 4a 02 	sts	0x024A, r24
		LED_2 ++;
    3f36:	80 91 86 02 	lds	r24, 0x0286
    3f3a:	90 91 87 02 	lds	r25, 0x0287
    3f3e:	01 96       	adiw	r24, 0x01	; 1
    3f40:	90 93 87 02 	sts	0x0287, r25
    3f44:	80 93 86 02 	sts	0x0286, r24
		LED_3 ++;
    3f48:	80 91 34 02 	lds	r24, 0x0234
    3f4c:	90 91 35 02 	lds	r25, 0x0235
    3f50:	01 96       	adiw	r24, 0x01	; 1
    3f52:	90 93 35 02 	sts	0x0235, r25
    3f56:	80 93 34 02 	sts	0x0234, r24
		LED_4 ++;
    3f5a:	80 91 61 02 	lds	r24, 0x0261
    3f5e:	90 91 62 02 	lds	r25, 0x0262
    3f62:	01 96       	adiw	r24, 0x01	; 1
    3f64:	90 93 62 02 	sts	0x0262, r25
    3f68:	80 93 61 02 	sts	0x0261, r24
		LED_5 ++;
    3f6c:	80 91 8a 02 	lds	r24, 0x028A
    3f70:	90 91 8b 02 	lds	r25, 0x028B
    3f74:	01 96       	adiw	r24, 0x01	; 1
    3f76:	90 93 8b 02 	sts	0x028B, r25
    3f7a:	80 93 8a 02 	sts	0x028A, r24
		LED_6 ++;
    3f7e:	80 91 48 02 	lds	r24, 0x0248
    3f82:	90 91 49 02 	lds	r25, 0x0249
    3f86:	01 96       	adiw	r24, 0x01	; 1
    3f88:	90 93 49 02 	sts	0x0249, r25
    3f8c:	80 93 48 02 	sts	0x0248, r24
		LED_7 ++;
    3f90:	80 91 5a 02 	lds	r24, 0x025A
    3f94:	90 91 5b 02 	lds	r25, 0x025B
    3f98:	01 96       	adiw	r24, 0x01	; 1
    3f9a:	90 93 5b 02 	sts	0x025B, r25
    3f9e:	80 93 5a 02 	sts	0x025A, r24
		LED_8 ++;
    3fa2:	80 91 2a 02 	lds	r24, 0x022A
    3fa6:	90 91 2b 02 	lds	r25, 0x022B
    3faa:	01 96       	adiw	r24, 0x01	; 1
    3fac:	90 93 2b 02 	sts	0x022B, r25
    3fb0:	80 93 2a 02 	sts	0x022A, r24
		LED_9 ++;
    3fb4:	80 91 54 02 	lds	r24, 0x0254
    3fb8:	90 91 55 02 	lds	r25, 0x0255
    3fbc:	01 96       	adiw	r24, 0x01	; 1
    3fbe:	90 93 55 02 	sts	0x0255, r25
    3fc2:	80 93 54 02 	sts	0x0254, r24
		LED_10 ++;
    3fc6:	80 91 50 02 	lds	r24, 0x0250
    3fca:	90 91 51 02 	lds	r25, 0x0251
    3fce:	01 96       	adiw	r24, 0x01	; 1
    3fd0:	90 93 51 02 	sts	0x0251, r25
    3fd4:	80 93 50 02 	sts	0x0250, r24
		LED_11 ++;						
    3fd8:	80 91 46 02 	lds	r24, 0x0246
    3fdc:	90 91 47 02 	lds	r25, 0x0247
    3fe0:	01 96       	adiw	r24, 0x01	; 1
    3fe2:	90 93 47 02 	sts	0x0247, r25
    3fe6:	80 93 46 02 	sts	0x0246, r24
	}
	
	if (LED_11 == 144)
    3fea:	80 91 46 02 	lds	r24, 0x0246
    3fee:	90 91 47 02 	lds	r25, 0x0247
    3ff2:	80 39       	cpi	r24, 0x90	; 144
    3ff4:	91 05       	cpc	r25, r1
    3ff6:	09 f0       	breq	.+2      	; 0x3ffa <LED_Circle_Down+0x38a>
    3ff8:	46 c0       	rjmp	.+140    	; 0x4086 <LED_Circle_Down+0x416>
	{
		LED_0 = 0;
    3ffa:	10 92 59 02 	sts	0x0259, r1
    3ffe:	10 92 58 02 	sts	0x0258, r1
		LED_1 = 12;
    4002:	8c e0       	ldi	r24, 0x0C	; 12
    4004:	90 e0       	ldi	r25, 0x00	; 0
    4006:	90 93 4b 02 	sts	0x024B, r25
    400a:	80 93 4a 02 	sts	0x024A, r24
		LED_2 = 24;
    400e:	88 e1       	ldi	r24, 0x18	; 24
    4010:	90 e0       	ldi	r25, 0x00	; 0
    4012:	90 93 87 02 	sts	0x0287, r25
    4016:	80 93 86 02 	sts	0x0286, r24
		LED_3 = 36;
    401a:	84 e2       	ldi	r24, 0x24	; 36
    401c:	90 e0       	ldi	r25, 0x00	; 0
    401e:	90 93 35 02 	sts	0x0235, r25
    4022:	80 93 34 02 	sts	0x0234, r24
		LED_4 = 48;
    4026:	80 e3       	ldi	r24, 0x30	; 48
    4028:	90 e0       	ldi	r25, 0x00	; 0
    402a:	90 93 62 02 	sts	0x0262, r25
    402e:	80 93 61 02 	sts	0x0261, r24
		LED_5 = 60;
    4032:	8c e3       	ldi	r24, 0x3C	; 60
    4034:	90 e0       	ldi	r25, 0x00	; 0
    4036:	90 93 8b 02 	sts	0x028B, r25
    403a:	80 93 8a 02 	sts	0x028A, r24
		LED_6 = 72;
    403e:	88 e4       	ldi	r24, 0x48	; 72
    4040:	90 e0       	ldi	r25, 0x00	; 0
    4042:	90 93 49 02 	sts	0x0249, r25
    4046:	80 93 48 02 	sts	0x0248, r24
		LED_7 = 84;
    404a:	84 e5       	ldi	r24, 0x54	; 84
    404c:	90 e0       	ldi	r25, 0x00	; 0
    404e:	90 93 5b 02 	sts	0x025B, r25
    4052:	80 93 5a 02 	sts	0x025A, r24
		LED_8 = 96;
    4056:	80 e6       	ldi	r24, 0x60	; 96
    4058:	90 e0       	ldi	r25, 0x00	; 0
    405a:	90 93 2b 02 	sts	0x022B, r25
    405e:	80 93 2a 02 	sts	0x022A, r24
		LED_9 = 108;
    4062:	8c e6       	ldi	r24, 0x6C	; 108
    4064:	90 e0       	ldi	r25, 0x00	; 0
    4066:	90 93 55 02 	sts	0x0255, r25
    406a:	80 93 54 02 	sts	0x0254, r24
		LED_10 = 120;
    406e:	88 e7       	ldi	r24, 0x78	; 120
    4070:	90 e0       	ldi	r25, 0x00	; 0
    4072:	90 93 51 02 	sts	0x0251, r25
    4076:	80 93 50 02 	sts	0x0250, r24
		LED_11 = 132;
    407a:	84 e8       	ldi	r24, 0x84	; 132
    407c:	90 e0       	ldi	r25, 0x00	; 0
    407e:	90 93 47 02 	sts	0x0247, r25
    4082:	80 93 46 02 	sts	0x0246, r24
	}
		
}
    4086:	df 91       	pop	r29
    4088:	cf 91       	pop	r28
    408a:	1f 91       	pop	r17
    408c:	08 95       	ret

0000408e <LED_Down>:
	
void LED_Down (uint16_t speed)
{
    408e:	cf 93       	push	r28
    4090:	df 93       	push	r29
    4092:	ec 01       	movw	r28, r24
	
	if (LED_Status != LED_Status_Old)
    4094:	20 91 28 02 	lds	r18, 0x0228
    4098:	30 91 29 02 	lds	r19, 0x0229
    409c:	80 91 5e 02 	lds	r24, 0x025E
    40a0:	90 91 5f 02 	lds	r25, 0x025F
    40a4:	28 17       	cp	r18, r24
    40a6:	39 07       	cpc	r19, r25
    40a8:	a9 f1       	breq	.+106    	; 0x4114 <LED_Down+0x86>
	{
		LED_Status_Old = LED_Status;
    40aa:	80 91 28 02 	lds	r24, 0x0228
    40ae:	90 91 29 02 	lds	r25, 0x0229
    40b2:	90 93 5f 02 	sts	0x025F, r25
    40b6:	80 93 5e 02 	sts	0x025E, r24
		
		/* save the actual "LED Status" */
		eeprom_write_byte(&EEPROM_save_LED_Status, LED_Status);
    40ba:	60 91 28 02 	lds	r22, 0x0228
    40be:	70 91 29 02 	lds	r23, 0x0229
    40c2:	80 e0       	ldi	r24, 0x00	; 0
    40c4:	90 e0       	ldi	r25, 0x00	; 0
    40c6:	0e 94 36 36 	call	0x6c6c	; 0x6c6c <__eewr_byte_m32>
		
		all_LED_OFF();
    40ca:	0e 94 5a 05 	call	0xab4	; 0xab4 <all_LED_OFF>
		LED_0 = 0;
    40ce:	10 92 59 02 	sts	0x0259, r1
    40d2:	10 92 58 02 	sts	0x0258, r1
		Counter = 0;
    40d6:	10 92 57 02 	sts	0x0257, r1
    40da:	10 92 56 02 	sts	0x0256, r1
		Counter_1 = 0;
    40de:	10 92 72 02 	sts	0x0272, r1
    40e2:	10 92 71 02 	sts	0x0271, r1
		Brightness = 8;		
    40e6:	88 e0       	ldi	r24, 0x08	; 8
    40e8:	90 e0       	ldi	r25, 0x00	; 0
    40ea:	90 93 71 00 	sts	0x0071, r25
    40ee:	80 93 70 00 	sts	0x0070, r24
		Counter_For_Display = 0;
    40f2:	10 92 66 02 	sts	0x0266, r1
    40f6:	10 92 65 02 	sts	0x0265, r1
		counter_for_change_accu_symbol = 0;
    40fa:	10 92 43 02 	sts	0x0243, r1
    40fe:	10 92 42 02 	sts	0x0242, r1
		if (LED_Status != 12)
    4102:	80 91 28 02 	lds	r24, 0x0228
    4106:	90 91 29 02 	lds	r25, 0x0229
    410a:	0c 97       	sbiw	r24, 0x0c	; 12
    410c:	19 f0       	breq	.+6      	; 0x4114 <LED_Down+0x86>
		{
			Display_a_Character(8);
    410e:	88 e0       	ldi	r24, 0x08	; 8
    4110:	0e 94 f3 04 	call	0x9e6	; 0x9e6 <Display_a_Character>
		}		
	}
	
	Counter ++;
    4114:	20 91 56 02 	lds	r18, 0x0256
    4118:	30 91 57 02 	lds	r19, 0x0257
    411c:	2f 5f       	subi	r18, 0xFF	; 255
    411e:	3f 4f       	sbci	r19, 0xFF	; 255
    4120:	30 93 57 02 	sts	0x0257, r19
    4124:	20 93 56 02 	sts	0x0256, r18
	Counter_1 ++;	
    4128:	20 91 71 02 	lds	r18, 0x0271
    412c:	30 91 72 02 	lds	r19, 0x0272
    4130:	2f 5f       	subi	r18, 0xFF	; 255
    4132:	3f 4f       	sbci	r19, 0xFF	; 255
    4134:	30 93 72 02 	sts	0x0272, r19
    4138:	20 93 71 02 	sts	0x0271, r18
	
		
 	switch (LED_0)
    413c:	20 91 58 02 	lds	r18, 0x0258
    4140:	30 91 59 02 	lds	r19, 0x0259
    4144:	24 39       	cpi	r18, 0x94	; 148
    4146:	31 05       	cpc	r19, r1
    4148:	09 f4       	brne	.+2      	; 0x414c <LED_Down+0xbe>
    414a:	6e c0       	rjmp	.+220    	; 0x4228 <LED_Down+0x19a>
    414c:	ac f4       	brge	.+42     	; 0x4178 <LED_Down+0xea>
    414e:	21 39       	cpi	r18, 0x91	; 145
    4150:	31 05       	cpc	r19, r1
    4152:	09 f4       	brne	.+2      	; 0x4156 <LED_Down+0xc8>
    4154:	42 c0       	rjmp	.+132    	; 0x41da <LED_Down+0x14c>
    4156:	3c f4       	brge	.+14     	; 0x4166 <LED_Down+0xd8>
    4158:	21 15       	cp	r18, r1
    415a:	31 05       	cpc	r19, r1
    415c:	31 f1       	breq	.+76     	; 0x41aa <LED_Down+0x11c>
    415e:	20 39       	cpi	r18, 0x90	; 144
    4160:	31 05       	cpc	r19, r1
    4162:	71 f1       	breq	.+92     	; 0x41c0 <LED_Down+0x132>
    4164:	bb c0       	rjmp	.+374    	; 0x42dc <LED_Down+0x24e>
    4166:	22 39       	cpi	r18, 0x92	; 146
    4168:	31 05       	cpc	r19, r1
    416a:	09 f4       	brne	.+2      	; 0x416e <LED_Down+0xe0>
    416c:	43 c0       	rjmp	.+134    	; 0x41f4 <LED_Down+0x166>
    416e:	23 39       	cpi	r18, 0x93	; 147
    4170:	31 05       	cpc	r19, r1
    4172:	09 f4       	brne	.+2      	; 0x4176 <LED_Down+0xe8>
    4174:	4c c0       	rjmp	.+152    	; 0x420e <LED_Down+0x180>
    4176:	b2 c0       	rjmp	.+356    	; 0x42dc <LED_Down+0x24e>
    4178:	27 39       	cpi	r18, 0x97	; 151
    417a:	31 05       	cpc	r19, r1
    417c:	09 f4       	brne	.+2      	; 0x4180 <LED_Down+0xf2>
    417e:	7b c0       	rjmp	.+246    	; 0x4276 <LED_Down+0x1e8>
    4180:	4c f4       	brge	.+18     	; 0x4194 <LED_Down+0x106>
    4182:	25 39       	cpi	r18, 0x95	; 149
    4184:	31 05       	cpc	r19, r1
    4186:	09 f4       	brne	.+2      	; 0x418a <LED_Down+0xfc>
    4188:	5c c0       	rjmp	.+184    	; 0x4242 <LED_Down+0x1b4>
    418a:	26 39       	cpi	r18, 0x96	; 150
    418c:	31 05       	cpc	r19, r1
    418e:	09 f4       	brne	.+2      	; 0x4192 <LED_Down+0x104>
    4190:	65 c0       	rjmp	.+202    	; 0x425c <LED_Down+0x1ce>
    4192:	a4 c0       	rjmp	.+328    	; 0x42dc <LED_Down+0x24e>
    4194:	29 39       	cpi	r18, 0x99	; 153
    4196:	31 05       	cpc	r19, r1
    4198:	09 f4       	brne	.+2      	; 0x419c <LED_Down+0x10e>
    419a:	87 c0       	rjmp	.+270    	; 0x42aa <LED_Down+0x21c>
    419c:	0c f4       	brge	.+2      	; 0x41a0 <LED_Down+0x112>
    419e:	78 c0       	rjmp	.+240    	; 0x4290 <LED_Down+0x202>
    41a0:	2a 39       	cpi	r18, 0x9A	; 154
    41a2:	31 05       	cpc	r19, r1
    41a4:	09 f4       	brne	.+2      	; 0x41a8 <LED_Down+0x11a>
    41a6:	8e c0       	rjmp	.+284    	; 0x42c4 <LED_Down+0x236>
    41a8:	99 c0       	rjmp	.+306    	; 0x42dc <LED_Down+0x24e>
	{
		case 0:
		{
			LED_0 = 0;
    41aa:	10 92 59 02 	sts	0x0259, r1
    41ae:	10 92 58 02 	sts	0x0258, r1
			LED_1 = 12;
    41b2:	8c e0       	ldi	r24, 0x0C	; 12
    41b4:	90 e0       	ldi	r25, 0x00	; 0
    41b6:	90 93 4b 02 	sts	0x024B, r25
    41ba:	80 93 4a 02 	sts	0x024A, r24
		}
		break;
    41be:	8e c0       	rjmp	.+284    	; 0x42dc <LED_Down+0x24e>
	
		case 144:
		{			
			LED_0 = 1;
    41c0:	81 e0       	ldi	r24, 0x01	; 1
    41c2:	90 e0       	ldi	r25, 0x00	; 0
    41c4:	90 93 59 02 	sts	0x0259, r25
    41c8:	80 93 58 02 	sts	0x0258, r24
			LED_1 = 13;
    41cc:	8d e0       	ldi	r24, 0x0D	; 13
    41ce:	90 e0       	ldi	r25, 0x00	; 0
    41d0:	90 93 4b 02 	sts	0x024B, r25
    41d4:	80 93 4a 02 	sts	0x024A, r24
		}
		break;
    41d8:	81 c0       	rjmp	.+258    	; 0x42dc <LED_Down+0x24e>
		
		case 145:
		{			
			LED_0 = 2;
    41da:	82 e0       	ldi	r24, 0x02	; 2
    41dc:	90 e0       	ldi	r25, 0x00	; 0
    41de:	90 93 59 02 	sts	0x0259, r25
    41e2:	80 93 58 02 	sts	0x0258, r24
			LED_1 = 14;
    41e6:	8e e0       	ldi	r24, 0x0E	; 14
    41e8:	90 e0       	ldi	r25, 0x00	; 0
    41ea:	90 93 4b 02 	sts	0x024B, r25
    41ee:	80 93 4a 02 	sts	0x024A, r24
		}
		break;	
    41f2:	74 c0       	rjmp	.+232    	; 0x42dc <LED_Down+0x24e>
		
		case 146:
		{			
			LED_0 = 3;
    41f4:	83 e0       	ldi	r24, 0x03	; 3
    41f6:	90 e0       	ldi	r25, 0x00	; 0
    41f8:	90 93 59 02 	sts	0x0259, r25
    41fc:	80 93 58 02 	sts	0x0258, r24
			LED_1 = 15;
    4200:	8f e0       	ldi	r24, 0x0F	; 15
    4202:	90 e0       	ldi	r25, 0x00	; 0
    4204:	90 93 4b 02 	sts	0x024B, r25
    4208:	80 93 4a 02 	sts	0x024A, r24
		}
		break;
    420c:	67 c0       	rjmp	.+206    	; 0x42dc <LED_Down+0x24e>
		
		case 147:
		{			
			LED_0 = 4;
    420e:	84 e0       	ldi	r24, 0x04	; 4
    4210:	90 e0       	ldi	r25, 0x00	; 0
    4212:	90 93 59 02 	sts	0x0259, r25
    4216:	80 93 58 02 	sts	0x0258, r24
			LED_1 = 16;
    421a:	80 e1       	ldi	r24, 0x10	; 16
    421c:	90 e0       	ldi	r25, 0x00	; 0
    421e:	90 93 4b 02 	sts	0x024B, r25
    4222:	80 93 4a 02 	sts	0x024A, r24
		}
		break;	
    4226:	5a c0       	rjmp	.+180    	; 0x42dc <LED_Down+0x24e>
		
		case 148:
		{	
			LED_0 = 5;
    4228:	85 e0       	ldi	r24, 0x05	; 5
    422a:	90 e0       	ldi	r25, 0x00	; 0
    422c:	90 93 59 02 	sts	0x0259, r25
    4230:	80 93 58 02 	sts	0x0258, r24
			LED_1 = 17;
    4234:	81 e1       	ldi	r24, 0x11	; 17
    4236:	90 e0       	ldi	r25, 0x00	; 0
    4238:	90 93 4b 02 	sts	0x024B, r25
    423c:	80 93 4a 02 	sts	0x024A, r24
		}
		break;	
    4240:	4d c0       	rjmp	.+154    	; 0x42dc <LED_Down+0x24e>
		
		case 149:
		{
			LED_0 = 6;
    4242:	86 e0       	ldi	r24, 0x06	; 6
    4244:	90 e0       	ldi	r25, 0x00	; 0
    4246:	90 93 59 02 	sts	0x0259, r25
    424a:	80 93 58 02 	sts	0x0258, r24
			LED_1 = 18;
    424e:	82 e1       	ldi	r24, 0x12	; 18
    4250:	90 e0       	ldi	r25, 0x00	; 0
    4252:	90 93 4b 02 	sts	0x024B, r25
    4256:	80 93 4a 02 	sts	0x024A, r24
		}
		break;	
    425a:	40 c0       	rjmp	.+128    	; 0x42dc <LED_Down+0x24e>
		
		case 150:
		{			
			LED_0 = 7;
    425c:	87 e0       	ldi	r24, 0x07	; 7
    425e:	90 e0       	ldi	r25, 0x00	; 0
    4260:	90 93 59 02 	sts	0x0259, r25
    4264:	80 93 58 02 	sts	0x0258, r24
			LED_1 = 19;
    4268:	83 e1       	ldi	r24, 0x13	; 19
    426a:	90 e0       	ldi	r25, 0x00	; 0
    426c:	90 93 4b 02 	sts	0x024B, r25
    4270:	80 93 4a 02 	sts	0x024A, r24
		}
		break;
    4274:	33 c0       	rjmp	.+102    	; 0x42dc <LED_Down+0x24e>
		
		case 151:
		{
			LED_0 = 8;
    4276:	88 e0       	ldi	r24, 0x08	; 8
    4278:	90 e0       	ldi	r25, 0x00	; 0
    427a:	90 93 59 02 	sts	0x0259, r25
    427e:	80 93 58 02 	sts	0x0258, r24
			LED_1 = 20;
    4282:	84 e1       	ldi	r24, 0x14	; 20
    4284:	90 e0       	ldi	r25, 0x00	; 0
    4286:	90 93 4b 02 	sts	0x024B, r25
    428a:	80 93 4a 02 	sts	0x024A, r24
		}
		break;
    428e:	26 c0       	rjmp	.+76     	; 0x42dc <LED_Down+0x24e>
		
		case 152:
		{	
			LED_0 = 9;
    4290:	89 e0       	ldi	r24, 0x09	; 9
    4292:	90 e0       	ldi	r25, 0x00	; 0
    4294:	90 93 59 02 	sts	0x0259, r25
    4298:	80 93 58 02 	sts	0x0258, r24
			LED_1 = 21;
    429c:	85 e1       	ldi	r24, 0x15	; 21
    429e:	90 e0       	ldi	r25, 0x00	; 0
    42a0:	90 93 4b 02 	sts	0x024B, r25
    42a4:	80 93 4a 02 	sts	0x024A, r24
		}
		break;	
    42a8:	19 c0       	rjmp	.+50     	; 0x42dc <LED_Down+0x24e>
		
		case 153:
		{			
			LED_0 = 10;
    42aa:	8a e0       	ldi	r24, 0x0A	; 10
    42ac:	90 e0       	ldi	r25, 0x00	; 0
    42ae:	90 93 59 02 	sts	0x0259, r25
    42b2:	80 93 58 02 	sts	0x0258, r24
			LED_1 = 22;
    42b6:	86 e1       	ldi	r24, 0x16	; 22
    42b8:	90 e0       	ldi	r25, 0x00	; 0
    42ba:	90 93 4b 02 	sts	0x024B, r25
    42be:	80 93 4a 02 	sts	0x024A, r24
		}
		break;	
    42c2:	0c c0       	rjmp	.+24     	; 0x42dc <LED_Down+0x24e>

		case 154:
		{		
			LED_0 = 11;
    42c4:	8b e0       	ldi	r24, 0x0B	; 11
    42c6:	90 e0       	ldi	r25, 0x00	; 0
    42c8:	90 93 59 02 	sts	0x0259, r25
    42cc:	80 93 58 02 	sts	0x0258, r24
			LED_1 = 23;
    42d0:	87 e1       	ldi	r24, 0x17	; 23
    42d2:	90 e0       	ldi	r25, 0x00	; 0
    42d4:	90 93 4b 02 	sts	0x024B, r25
    42d8:	80 93 4a 02 	sts	0x024A, r24
	}	

	

	/* PWM-Routine */
	if (Counter >= 60)
    42dc:	80 91 56 02 	lds	r24, 0x0256
    42e0:	90 91 57 02 	lds	r25, 0x0257
    42e4:	cc 97       	sbiw	r24, 0x3c	; 60
    42e6:	b8 f0       	brcs	.+46     	; 0x4316 <LED_Down+0x288>
	{
		Counter = 0;
    42e8:	10 92 57 02 	sts	0x0257, r1
    42ec:	10 92 56 02 	sts	0x0256, r1
	
		if (Brightness > 0)
    42f0:	80 91 70 00 	lds	r24, 0x0070
    42f4:	90 91 71 00 	lds	r25, 0x0071
    42f8:	89 2b       	or	r24, r25
    42fa:	21 f1       	breq	.+72     	; 0x4344 <LED_Down+0x2b6>
		{
	 		com74hc595_setBit(LED_0);
    42fc:	80 91 58 02 	lds	r24, 0x0258
    4300:	90 91 59 02 	lds	r25, 0x0259
    4304:	0e 94 99 01 	call	0x332	; 0x332 <com74hc595_setBit>
	 		com74hc595_setBit(LED_1);
    4308:	80 91 4a 02 	lds	r24, 0x024A
    430c:	90 91 4b 02 	lds	r25, 0x024B
    4310:	0e 94 99 01 	call	0x332	; 0x332 <com74hc595_setBit>
    4314:	17 c0       	rjmp	.+46     	; 0x4344 <LED_Down+0x2b6>
		}
	}
	else
	{
		if (Counter == Brightness)
    4316:	20 91 56 02 	lds	r18, 0x0256
    431a:	30 91 57 02 	lds	r19, 0x0257
    431e:	80 91 70 00 	lds	r24, 0x0070
    4322:	90 91 71 00 	lds	r25, 0x0071
    4326:	28 17       	cp	r18, r24
    4328:	39 07       	cpc	r19, r25
    432a:	61 f4       	brne	.+24     	; 0x4344 <LED_Down+0x2b6>
		{
	 		com74hc595_unsetBit(LED_0);
    432c:	80 91 58 02 	lds	r24, 0x0258
    4330:	90 91 59 02 	lds	r25, 0x0259
    4334:	0e 94 ae 01 	call	0x35c	; 0x35c <com74hc595_unsetBit>
	 		com74hc595_unsetBit(LED_1);
    4338:	80 91 4a 02 	lds	r24, 0x024A
    433c:	90 91 4b 02 	lds	r25, 0x024B
    4340:	0e 94 ae 01 	call	0x35c	; 0x35c <com74hc595_unsetBit>
		}
	}
		com74hc595_out();		
    4344:	0e 94 e9 01 	call	0x3d2	; 0x3d2 <com74hc595_out>
	

	if (Counter_1 >= speed)
    4348:	80 91 71 02 	lds	r24, 0x0271
    434c:	90 91 72 02 	lds	r25, 0x0272
    4350:	8c 17       	cp	r24, r28
    4352:	9d 07       	cpc	r25, r29
    4354:	10 f1       	brcs	.+68     	; 0x439a <LED_Down+0x30c>
	{
		com74hc595_unsetBit(LED_0);
    4356:	80 91 58 02 	lds	r24, 0x0258
    435a:	90 91 59 02 	lds	r25, 0x0259
    435e:	0e 94 ae 01 	call	0x35c	; 0x35c <com74hc595_unsetBit>
		com74hc595_unsetBit(LED_1);
    4362:	80 91 4a 02 	lds	r24, 0x024A
    4366:	90 91 4b 02 	lds	r25, 0x024B
    436a:	0e 94 ae 01 	call	0x35c	; 0x35c <com74hc595_unsetBit>
		LED_1 = LED_1 +24;
    436e:	80 91 4a 02 	lds	r24, 0x024A
    4372:	90 91 4b 02 	lds	r25, 0x024B
    4376:	48 96       	adiw	r24, 0x18	; 24
    4378:	90 93 4b 02 	sts	0x024B, r25
    437c:	80 93 4a 02 	sts	0x024A, r24
		LED_0 = LED_0 +24;
    4380:	80 91 58 02 	lds	r24, 0x0258
    4384:	90 91 59 02 	lds	r25, 0x0259
    4388:	48 96       	adiw	r24, 0x18	; 24
    438a:	90 93 59 02 	sts	0x0259, r25
    438e:	80 93 58 02 	sts	0x0258, r24
		Counter_1 = 0;
    4392:	10 92 72 02 	sts	0x0272, r1
    4396:	10 92 71 02 	sts	0x0271, r1
	}
	
	if (LED_0 >= 155)
    439a:	80 91 58 02 	lds	r24, 0x0258
    439e:	90 91 59 02 	lds	r25, 0x0259
    43a2:	8b 39       	cpi	r24, 0x9B	; 155
    43a4:	91 05       	cpc	r25, r1
    43a6:	24 f0       	brlt	.+8      	; 0x43b0 <LED_Down+0x322>
	{
		LED_0 = 0;
    43a8:	10 92 59 02 	sts	0x0259, r1
    43ac:	10 92 58 02 	sts	0x0258, r1
	}
	
	if (LED_1 >= 167)
    43b0:	80 91 4a 02 	lds	r24, 0x024A
    43b4:	90 91 4b 02 	lds	r25, 0x024B
    43b8:	87 3a       	cpi	r24, 0xA7	; 167
    43ba:	91 05       	cpc	r25, r1
    43bc:	24 f0       	brlt	.+8      	; 0x43c6 <LED_Down+0x338>
	{
		LED_1 = 0;
    43be:	10 92 4b 02 	sts	0x024B, r1
    43c2:	10 92 4a 02 	sts	0x024A, r1
	}
}
    43c6:	df 91       	pop	r29
    43c8:	cf 91       	pop	r28
    43ca:	08 95       	ret

000043cc <LED_Round>:

void LED_Round(uint16_t speed)
{
    43cc:	cf 93       	push	r28
    43ce:	df 93       	push	r29
    43d0:	ec 01       	movw	r28, r24
	if (LED_Status != LED_Status_Old)
    43d2:	20 91 28 02 	lds	r18, 0x0228
    43d6:	30 91 29 02 	lds	r19, 0x0229
    43da:	80 91 5e 02 	lds	r24, 0x025E
    43de:	90 91 5f 02 	lds	r25, 0x025F
    43e2:	28 17       	cp	r18, r24
    43e4:	39 07       	cpc	r19, r25
    43e6:	09 f4       	brne	.+2      	; 0x43ea <LED_Round+0x1e>
    43e8:	59 c0       	rjmp	.+178    	; 0x449c <LED_Round+0xd0>
	{
		LED_Status_Old = LED_Status;
    43ea:	80 91 28 02 	lds	r24, 0x0228
    43ee:	90 91 29 02 	lds	r25, 0x0229
    43f2:	90 93 5f 02 	sts	0x025F, r25
    43f6:	80 93 5e 02 	sts	0x025E, r24
		
		/* save the actual "LED Status" */
		eeprom_write_byte(&EEPROM_save_LED_Status, LED_Status);
    43fa:	60 91 28 02 	lds	r22, 0x0228
    43fe:	70 91 29 02 	lds	r23, 0x0229
    4402:	80 e0       	ldi	r24, 0x00	; 0
    4404:	90 e0       	ldi	r25, 0x00	; 0
    4406:	0e 94 36 36 	call	0x6c6c	; 0x6c6c <__eewr_byte_m32>
		
		all_LED_OFF();
    440a:	0e 94 5a 05 	call	0xab4	; 0xab4 <all_LED_OFF>
		LED_0 = 0;
    440e:	10 92 59 02 	sts	0x0259, r1
    4412:	10 92 58 02 	sts	0x0258, r1
		LED_1 = 1;
    4416:	81 e0       	ldi	r24, 0x01	; 1
    4418:	90 e0       	ldi	r25, 0x00	; 0
    441a:	90 93 4b 02 	sts	0x024B, r25
    441e:	80 93 4a 02 	sts	0x024A, r24
		LED_2 = 2;
    4422:	82 e0       	ldi	r24, 0x02	; 2
    4424:	90 e0       	ldi	r25, 0x00	; 0
    4426:	90 93 87 02 	sts	0x0287, r25
    442a:	80 93 86 02 	sts	0x0286, r24
		LED_3 = 9;
    442e:	89 e0       	ldi	r24, 0x09	; 9
    4430:	90 e0       	ldi	r25, 0x00	; 0
    4432:	90 93 35 02 	sts	0x0235, r25
    4436:	80 93 34 02 	sts	0x0234, r24
		LED_4 = 10;
    443a:	8a e0       	ldi	r24, 0x0A	; 10
    443c:	90 e0       	ldi	r25, 0x00	; 0
    443e:	90 93 62 02 	sts	0x0262, r25
    4442:	80 93 61 02 	sts	0x0261, r24
		LED_5 = 11;
    4446:	8b e0       	ldi	r24, 0x0B	; 11
    4448:	90 e0       	ldi	r25, 0x00	; 0
    444a:	90 93 8b 02 	sts	0x028B, r25
    444e:	80 93 8a 02 	sts	0x028A, r24
		Counter = 0;
    4452:	10 92 57 02 	sts	0x0257, r1
    4456:	10 92 56 02 	sts	0x0256, r1
		Brightness = 8;
    445a:	88 e0       	ldi	r24, 0x08	; 8
    445c:	90 e0       	ldi	r25, 0x00	; 0
    445e:	90 93 71 00 	sts	0x0071, r25
    4462:	80 93 70 00 	sts	0x0070, r24
		Counter_1 = 0;
    4466:	10 92 72 02 	sts	0x0272, r1
    446a:	10 92 71 02 	sts	0x0271, r1
		Counter_For_Display = 0;
    446e:	10 92 66 02 	sts	0x0266, r1
    4472:	10 92 65 02 	sts	0x0265, r1
		counter_for_change_accu_symbol = 0;
    4476:	10 92 43 02 	sts	0x0243, r1
    447a:	10 92 42 02 	sts	0x0242, r1
		if (LED_Status == 7)
    447e:	80 91 28 02 	lds	r24, 0x0228
    4482:	90 91 29 02 	lds	r25, 0x0229
    4486:	07 97       	sbiw	r24, 0x07	; 7
    4488:	49 f4       	brne	.+18     	; 0x449c <LED_Round+0xd0>
		{
			if (LED_Status != 12)
    448a:	80 91 28 02 	lds	r24, 0x0228
    448e:	90 91 29 02 	lds	r25, 0x0229
    4492:	0c 97       	sbiw	r24, 0x0c	; 12
    4494:	19 f0       	breq	.+6      	; 0x449c <LED_Round+0xd0>
			{
				Display_a_Character(9);
    4496:	89 e0       	ldi	r24, 0x09	; 9
    4498:	0e 94 f3 04 	call	0x9e6	; 0x9e6 <Display_a_Character>
		}
				
	}
	
	
	Counter ++;
    449c:	80 91 56 02 	lds	r24, 0x0256
    44a0:	90 91 57 02 	lds	r25, 0x0257
    44a4:	01 96       	adiw	r24, 0x01	; 1
    44a6:	90 93 57 02 	sts	0x0257, r25
    44aa:	80 93 56 02 	sts	0x0256, r24
	Counter_1 ++;
    44ae:	80 91 71 02 	lds	r24, 0x0271
    44b2:	90 91 72 02 	lds	r25, 0x0272
    44b6:	01 96       	adiw	r24, 0x01	; 1
    44b8:	90 93 72 02 	sts	0x0272, r25
    44bc:	80 93 71 02 	sts	0x0271, r24
	

	/* PWM routine */
	if (Counter >= 60)
    44c0:	80 91 56 02 	lds	r24, 0x0256
    44c4:	90 91 57 02 	lds	r25, 0x0257
    44c8:	cc 97       	sbiw	r24, 0x3c	; 60
    44ca:	b0 f1       	brcs	.+108    	; 0x4538 <LED_Round+0x16c>
	{
		Counter = 0;
    44cc:	10 92 57 02 	sts	0x0257, r1
    44d0:	10 92 56 02 	sts	0x0256, r1
	
		if (Brightness > 0)
    44d4:	80 91 70 00 	lds	r24, 0x0070
    44d8:	90 91 71 00 	lds	r25, 0x0071
    44dc:	89 2b       	or	r24, r25
    44de:	09 f4       	brne	.+2      	; 0x44e2 <LED_Round+0x116>
    44e0:	5a c0       	rjmp	.+180    	; 0x4596 <LED_Round+0x1ca>
		{
			com74hc595_setPort(LED_0,0xFF);
    44e2:	80 91 58 02 	lds	r24, 0x0258
    44e6:	90 91 59 02 	lds	r25, 0x0259
    44ea:	6f ef       	ldi	r22, 0xFF	; 255
    44ec:	0e 94 dd 01 	call	0x3ba	; 0x3ba <com74hc595_setPort>
			com74hc595_setPort(LED_1,0xFF);
    44f0:	80 91 4a 02 	lds	r24, 0x024A
    44f4:	90 91 4b 02 	lds	r25, 0x024B
    44f8:	6f ef       	ldi	r22, 0xFF	; 255
    44fa:	0e 94 dd 01 	call	0x3ba	; 0x3ba <com74hc595_setPort>
			com74hc595_setPort(LED_2,0xFF);
    44fe:	80 91 86 02 	lds	r24, 0x0286
    4502:	90 91 87 02 	lds	r25, 0x0287
    4506:	6f ef       	ldi	r22, 0xFF	; 255
    4508:	0e 94 dd 01 	call	0x3ba	; 0x3ba <com74hc595_setPort>
			com74hc595_setPort(LED_3,0xFF);
    450c:	80 91 34 02 	lds	r24, 0x0234
    4510:	90 91 35 02 	lds	r25, 0x0235
    4514:	6f ef       	ldi	r22, 0xFF	; 255
    4516:	0e 94 dd 01 	call	0x3ba	; 0x3ba <com74hc595_setPort>
			com74hc595_setPort(LED_4,0xFF);
    451a:	80 91 61 02 	lds	r24, 0x0261
    451e:	90 91 62 02 	lds	r25, 0x0262
    4522:	6f ef       	ldi	r22, 0xFF	; 255
    4524:	0e 94 dd 01 	call	0x3ba	; 0x3ba <com74hc595_setPort>
			com74hc595_setPort(LED_5,0xFF);
    4528:	80 91 8a 02 	lds	r24, 0x028A
    452c:	90 91 8b 02 	lds	r25, 0x028B
    4530:	6f ef       	ldi	r22, 0xFF	; 255
    4532:	0e 94 dd 01 	call	0x3ba	; 0x3ba <com74hc595_setPort>
    4536:	2f c0       	rjmp	.+94     	; 0x4596 <LED_Round+0x1ca>
		}
	}
	else
	{
		if (Counter >= Brightness)
    4538:	20 91 56 02 	lds	r18, 0x0256
    453c:	30 91 57 02 	lds	r19, 0x0257
    4540:	80 91 70 00 	lds	r24, 0x0070
    4544:	90 91 71 00 	lds	r25, 0x0071
    4548:	28 17       	cp	r18, r24
    454a:	39 07       	cpc	r19, r25
    454c:	20 f1       	brcs	.+72     	; 0x4596 <LED_Round+0x1ca>
		{
			com74hc595_unsetPort(LED_0);
    454e:	80 91 58 02 	lds	r24, 0x0258
    4552:	90 91 59 02 	lds	r25, 0x0259
    4556:	0e 94 e3 01 	call	0x3c6	; 0x3c6 <com74hc595_unsetPort>
			com74hc595_unsetPort(LED_1);
    455a:	80 91 4a 02 	lds	r24, 0x024A
    455e:	90 91 4b 02 	lds	r25, 0x024B
    4562:	0e 94 e3 01 	call	0x3c6	; 0x3c6 <com74hc595_unsetPort>
			com74hc595_unsetPort(LED_2);
    4566:	80 91 86 02 	lds	r24, 0x0286
    456a:	90 91 87 02 	lds	r25, 0x0287
    456e:	0e 94 e3 01 	call	0x3c6	; 0x3c6 <com74hc595_unsetPort>
			com74hc595_unsetPort(LED_3);
    4572:	80 91 34 02 	lds	r24, 0x0234
    4576:	90 91 35 02 	lds	r25, 0x0235
    457a:	0e 94 e3 01 	call	0x3c6	; 0x3c6 <com74hc595_unsetPort>
			com74hc595_unsetPort(LED_4);
    457e:	80 91 61 02 	lds	r24, 0x0261
    4582:	90 91 62 02 	lds	r25, 0x0262
    4586:	0e 94 e3 01 	call	0x3c6	; 0x3c6 <com74hc595_unsetPort>
			com74hc595_unsetPort(LED_5);
    458a:	80 91 8a 02 	lds	r24, 0x028A
    458e:	90 91 8b 02 	lds	r25, 0x028B
    4592:	0e 94 e3 01 	call	0x3c6	; 0x3c6 <com74hc595_unsetPort>
		}
	}
	com74hc595_out();
    4596:	0e 94 e9 01 	call	0x3d2	; 0x3d2 <com74hc595_out>


	
	if (Counter_1 >= speed)
    459a:	80 91 71 02 	lds	r24, 0x0271
    459e:	90 91 72 02 	lds	r25, 0x0272
    45a2:	8c 17       	cp	r24, r28
    45a4:	9d 07       	cpc	r25, r29
    45a6:	e0 f1       	brcs	.+120    	; 0x4620 <LED_Round+0x254>
	{
		com74hc595_unsetall();
    45a8:	0e 94 d1 01 	call	0x3a2	; 0x3a2 <com74hc595_unsetall>
		Counter_1 = 0;
    45ac:	10 92 72 02 	sts	0x0272, r1
    45b0:	10 92 71 02 	sts	0x0271, r1
		LED_0 = LED_0 +3;
    45b4:	80 91 58 02 	lds	r24, 0x0258
    45b8:	90 91 59 02 	lds	r25, 0x0259
    45bc:	03 96       	adiw	r24, 0x03	; 3
    45be:	90 93 59 02 	sts	0x0259, r25
    45c2:	80 93 58 02 	sts	0x0258, r24
		LED_1 = LED_1 +3;
    45c6:	80 91 4a 02 	lds	r24, 0x024A
    45ca:	90 91 4b 02 	lds	r25, 0x024B
    45ce:	03 96       	adiw	r24, 0x03	; 3
    45d0:	90 93 4b 02 	sts	0x024B, r25
    45d4:	80 93 4a 02 	sts	0x024A, r24
		LED_2 = LED_2 +3;
    45d8:	80 91 86 02 	lds	r24, 0x0286
    45dc:	90 91 87 02 	lds	r25, 0x0287
    45e0:	03 96       	adiw	r24, 0x03	; 3
    45e2:	90 93 87 02 	sts	0x0287, r25
    45e6:	80 93 86 02 	sts	0x0286, r24
		LED_3 = LED_3 +3;
    45ea:	80 91 34 02 	lds	r24, 0x0234
    45ee:	90 91 35 02 	lds	r25, 0x0235
    45f2:	03 96       	adiw	r24, 0x03	; 3
    45f4:	90 93 35 02 	sts	0x0235, r25
    45f8:	80 93 34 02 	sts	0x0234, r24
		LED_4 = LED_4 +3;
    45fc:	80 91 61 02 	lds	r24, 0x0261
    4600:	90 91 62 02 	lds	r25, 0x0262
    4604:	03 96       	adiw	r24, 0x03	; 3
    4606:	90 93 62 02 	sts	0x0262, r25
    460a:	80 93 61 02 	sts	0x0261, r24
		LED_5 = LED_5 +3;		
    460e:	80 91 8a 02 	lds	r24, 0x028A
    4612:	90 91 8b 02 	lds	r25, 0x028B
    4616:	03 96       	adiw	r24, 0x03	; 3
    4618:	90 93 8b 02 	sts	0x028B, r25
    461c:	80 93 8a 02 	sts	0x028A, r24
	}
	
	if (LED_0 == 18)
    4620:	80 91 58 02 	lds	r24, 0x0258
    4624:	90 91 59 02 	lds	r25, 0x0259
    4628:	42 97       	sbiw	r24, 0x12	; 18
    462a:	81 f4       	brne	.+32     	; 0x464c <LED_Round+0x280>
	{
		LED_0 = 0;
    462c:	10 92 59 02 	sts	0x0259, r1
    4630:	10 92 58 02 	sts	0x0258, r1
		LED_1 = 1;
    4634:	81 e0       	ldi	r24, 0x01	; 1
    4636:	90 e0       	ldi	r25, 0x00	; 0
    4638:	90 93 4b 02 	sts	0x024B, r25
    463c:	80 93 4a 02 	sts	0x024A, r24
		LED_2 = 2;
    4640:	82 e0       	ldi	r24, 0x02	; 2
    4642:	90 e0       	ldi	r25, 0x00	; 0
    4644:	90 93 87 02 	sts	0x0287, r25
    4648:	80 93 86 02 	sts	0x0286, r24
	}
	
	if (LED_3 == 18)
    464c:	80 91 34 02 	lds	r24, 0x0234
    4650:	90 91 35 02 	lds	r25, 0x0235
    4654:	42 97       	sbiw	r24, 0x12	; 18
    4656:	81 f4       	brne	.+32     	; 0x4678 <LED_Round+0x2ac>
	{
		LED_3 = 0;
    4658:	10 92 35 02 	sts	0x0235, r1
    465c:	10 92 34 02 	sts	0x0234, r1
		LED_4 = 1;
    4660:	81 e0       	ldi	r24, 0x01	; 1
    4662:	90 e0       	ldi	r25, 0x00	; 0
    4664:	90 93 62 02 	sts	0x0262, r25
    4668:	80 93 61 02 	sts	0x0261, r24
		LED_5 = 2;
    466c:	82 e0       	ldi	r24, 0x02	; 2
    466e:	90 e0       	ldi	r25, 0x00	; 0
    4670:	90 93 8b 02 	sts	0x028B, r25
    4674:	80 93 8a 02 	sts	0x028A, r24
	}

				
}
    4678:	df 91       	pop	r29
    467a:	cf 91       	pop	r28
    467c:	08 95       	ret

0000467e <LED_Round_Test>:

void LED_Round_Test(void)
{	
	if (LED_Status != LED_Status_Old)
    467e:	20 91 28 02 	lds	r18, 0x0228
    4682:	30 91 29 02 	lds	r19, 0x0229
    4686:	80 91 5e 02 	lds	r24, 0x025E
    468a:	90 91 5f 02 	lds	r25, 0x025F
    468e:	28 17       	cp	r18, r24
    4690:	39 07       	cpc	r19, r25
    4692:	09 f4       	brne	.+2      	; 0x4696 <LED_Round_Test+0x18>
    4694:	60 c0       	rjmp	.+192    	; 0x4756 <LED_Round_Test+0xd8>
	{
		LED_Status_Old = LED_Status;
    4696:	80 91 28 02 	lds	r24, 0x0228
    469a:	90 91 29 02 	lds	r25, 0x0229
    469e:	90 93 5f 02 	sts	0x025F, r25
    46a2:	80 93 5e 02 	sts	0x025E, r24
		
		/* save the actual "LED Status" */
		eeprom_write_byte(&EEPROM_save_LED_Status, LED_Status);
    46a6:	60 91 28 02 	lds	r22, 0x0228
    46aa:	70 91 29 02 	lds	r23, 0x0229
    46ae:	80 e0       	ldi	r24, 0x00	; 0
    46b0:	90 e0       	ldi	r25, 0x00	; 0
    46b2:	0e 94 36 36 	call	0x6c6c	; 0x6c6c <__eewr_byte_m32>
		
		all_LED_OFF();
    46b6:	0e 94 5a 05 	call	0xab4	; 0xab4 <all_LED_OFF>
		LED_0 = 0;
    46ba:	10 92 59 02 	sts	0x0259, r1
    46be:	10 92 58 02 	sts	0x0258, r1
		LED_1 = 1;
    46c2:	81 e0       	ldi	r24, 0x01	; 1
    46c4:	90 e0       	ldi	r25, 0x00	; 0
    46c6:	90 93 4b 02 	sts	0x024B, r25
    46ca:	80 93 4a 02 	sts	0x024A, r24
		LED_2 = 2;
    46ce:	82 e0       	ldi	r24, 0x02	; 2
    46d0:	90 e0       	ldi	r25, 0x00	; 0
    46d2:	90 93 87 02 	sts	0x0287, r25
    46d6:	80 93 86 02 	sts	0x0286, r24
		LED_3 = 9;
    46da:	89 e0       	ldi	r24, 0x09	; 9
    46dc:	90 e0       	ldi	r25, 0x00	; 0
    46de:	90 93 35 02 	sts	0x0235, r25
    46e2:	80 93 34 02 	sts	0x0234, r24
		LED_4 = 10;
    46e6:	8a e0       	ldi	r24, 0x0A	; 10
    46e8:	90 e0       	ldi	r25, 0x00	; 0
    46ea:	90 93 62 02 	sts	0x0262, r25
    46ee:	80 93 61 02 	sts	0x0261, r24
		LED_5 = 11;
    46f2:	8b e0       	ldi	r24, 0x0B	; 11
    46f4:	90 e0       	ldi	r25, 0x00	; 0
    46f6:	90 93 8b 02 	sts	0x028B, r25
    46fa:	80 93 8a 02 	sts	0x028A, r24
		speed = 3000;
    46fe:	88 eb       	ldi	r24, 0xB8	; 184
    4700:	9b e0       	ldi	r25, 0x0B	; 11
    4702:	90 93 6b 00 	sts	0x006B, r25
    4706:	80 93 6a 00 	sts	0x006A, r24
		speed_flag = 1;
    470a:	81 e0       	ldi	r24, 0x01	; 1
    470c:	80 93 36 02 	sts	0x0236, r24
		Counter = 0;
    4710:	10 92 57 02 	sts	0x0257, r1
    4714:	10 92 56 02 	sts	0x0256, r1
		Brightness = 8;
    4718:	88 e0       	ldi	r24, 0x08	; 8
    471a:	90 e0       	ldi	r25, 0x00	; 0
    471c:	90 93 71 00 	sts	0x0071, r25
    4720:	80 93 70 00 	sts	0x0070, r24
		Counter_1 = 0;
    4724:	10 92 72 02 	sts	0x0272, r1
    4728:	10 92 71 02 	sts	0x0271, r1
		Counter_2 = 0;
    472c:	10 92 85 02 	sts	0x0285, r1
    4730:	10 92 84 02 	sts	0x0284, r1
		Counter_For_Display = 0;
    4734:	10 92 66 02 	sts	0x0266, r1
    4738:	10 92 65 02 	sts	0x0265, r1
		counter_for_change_accu_symbol = 0;
    473c:	10 92 43 02 	sts	0x0243, r1
    4740:	10 92 42 02 	sts	0x0242, r1
		
		if (LED_Status != 12)
    4744:	80 91 28 02 	lds	r24, 0x0228
    4748:	90 91 29 02 	lds	r25, 0x0229
    474c:	0c 97       	sbiw	r24, 0x0c	; 12
    474e:	19 f0       	breq	.+6      	; 0x4756 <LED_Round_Test+0xd8>
		{
			Display_a_Character(73);
    4750:	89 e4       	ldi	r24, 0x49	; 73
    4752:	0e 94 f3 04 	call	0x9e6	; 0x9e6 <Display_a_Character>
		
		
	}
	
	
	Counter ++;
    4756:	80 91 56 02 	lds	r24, 0x0256
    475a:	90 91 57 02 	lds	r25, 0x0257
    475e:	01 96       	adiw	r24, 0x01	; 1
    4760:	90 93 57 02 	sts	0x0257, r25
    4764:	80 93 56 02 	sts	0x0256, r24
	Counter_1 ++;
    4768:	80 91 71 02 	lds	r24, 0x0271
    476c:	90 91 72 02 	lds	r25, 0x0272
    4770:	01 96       	adiw	r24, 0x01	; 1
    4772:	90 93 72 02 	sts	0x0272, r25
    4776:	80 93 71 02 	sts	0x0271, r24
	Counter_2 ++;
    477a:	80 91 84 02 	lds	r24, 0x0284
    477e:	90 91 85 02 	lds	r25, 0x0285
    4782:	01 96       	adiw	r24, 0x01	; 1
    4784:	90 93 85 02 	sts	0x0285, r25
    4788:	80 93 84 02 	sts	0x0284, r24
	

	/* PWM routine */
	if (Counter >= 60)
    478c:	80 91 56 02 	lds	r24, 0x0256
    4790:	90 91 57 02 	lds	r25, 0x0257
    4794:	cc 97       	sbiw	r24, 0x3c	; 60
    4796:	b0 f1       	brcs	.+108    	; 0x4804 <LED_Round_Test+0x186>
	{
		Counter = 0;
    4798:	10 92 57 02 	sts	0x0257, r1
    479c:	10 92 56 02 	sts	0x0256, r1
		
		if (Brightness > 0)
    47a0:	80 91 70 00 	lds	r24, 0x0070
    47a4:	90 91 71 00 	lds	r25, 0x0071
    47a8:	89 2b       	or	r24, r25
    47aa:	09 f4       	brne	.+2      	; 0x47ae <LED_Round_Test+0x130>
    47ac:	5a c0       	rjmp	.+180    	; 0x4862 <LED_Round_Test+0x1e4>
		{
			com74hc595_setPort(LED_0,0xFF);
    47ae:	80 91 58 02 	lds	r24, 0x0258
    47b2:	90 91 59 02 	lds	r25, 0x0259
    47b6:	6f ef       	ldi	r22, 0xFF	; 255
    47b8:	0e 94 dd 01 	call	0x3ba	; 0x3ba <com74hc595_setPort>
			com74hc595_setPort(LED_1,0xFF);
    47bc:	80 91 4a 02 	lds	r24, 0x024A
    47c0:	90 91 4b 02 	lds	r25, 0x024B
    47c4:	6f ef       	ldi	r22, 0xFF	; 255
    47c6:	0e 94 dd 01 	call	0x3ba	; 0x3ba <com74hc595_setPort>
			com74hc595_setPort(LED_2,0xFF);
    47ca:	80 91 86 02 	lds	r24, 0x0286
    47ce:	90 91 87 02 	lds	r25, 0x0287
    47d2:	6f ef       	ldi	r22, 0xFF	; 255
    47d4:	0e 94 dd 01 	call	0x3ba	; 0x3ba <com74hc595_setPort>
			com74hc595_setPort(LED_3,0xFF);
    47d8:	80 91 34 02 	lds	r24, 0x0234
    47dc:	90 91 35 02 	lds	r25, 0x0235
    47e0:	6f ef       	ldi	r22, 0xFF	; 255
    47e2:	0e 94 dd 01 	call	0x3ba	; 0x3ba <com74hc595_setPort>
			com74hc595_setPort(LED_4,0xFF);
    47e6:	80 91 61 02 	lds	r24, 0x0261
    47ea:	90 91 62 02 	lds	r25, 0x0262
    47ee:	6f ef       	ldi	r22, 0xFF	; 255
    47f0:	0e 94 dd 01 	call	0x3ba	; 0x3ba <com74hc595_setPort>
			com74hc595_setPort(LED_5,0xFF);
    47f4:	80 91 8a 02 	lds	r24, 0x028A
    47f8:	90 91 8b 02 	lds	r25, 0x028B
    47fc:	6f ef       	ldi	r22, 0xFF	; 255
    47fe:	0e 94 dd 01 	call	0x3ba	; 0x3ba <com74hc595_setPort>
    4802:	2f c0       	rjmp	.+94     	; 0x4862 <LED_Round_Test+0x1e4>
		}
	}
	else
	{
		if (Counter >= Brightness)
    4804:	20 91 56 02 	lds	r18, 0x0256
    4808:	30 91 57 02 	lds	r19, 0x0257
    480c:	80 91 70 00 	lds	r24, 0x0070
    4810:	90 91 71 00 	lds	r25, 0x0071
    4814:	28 17       	cp	r18, r24
    4816:	39 07       	cpc	r19, r25
    4818:	20 f1       	brcs	.+72     	; 0x4862 <LED_Round_Test+0x1e4>
		{
			com74hc595_unsetPort(LED_0);
    481a:	80 91 58 02 	lds	r24, 0x0258
    481e:	90 91 59 02 	lds	r25, 0x0259
    4822:	0e 94 e3 01 	call	0x3c6	; 0x3c6 <com74hc595_unsetPort>
			com74hc595_unsetPort(LED_1);
    4826:	80 91 4a 02 	lds	r24, 0x024A
    482a:	90 91 4b 02 	lds	r25, 0x024B
    482e:	0e 94 e3 01 	call	0x3c6	; 0x3c6 <com74hc595_unsetPort>
			com74hc595_unsetPort(LED_2);
    4832:	80 91 86 02 	lds	r24, 0x0286
    4836:	90 91 87 02 	lds	r25, 0x0287
    483a:	0e 94 e3 01 	call	0x3c6	; 0x3c6 <com74hc595_unsetPort>
			com74hc595_unsetPort(LED_3);
    483e:	80 91 34 02 	lds	r24, 0x0234
    4842:	90 91 35 02 	lds	r25, 0x0235
    4846:	0e 94 e3 01 	call	0x3c6	; 0x3c6 <com74hc595_unsetPort>
			com74hc595_unsetPort(LED_4);
    484a:	80 91 61 02 	lds	r24, 0x0261
    484e:	90 91 62 02 	lds	r25, 0x0262
    4852:	0e 94 e3 01 	call	0x3c6	; 0x3c6 <com74hc595_unsetPort>
			com74hc595_unsetPort(LED_5);
    4856:	80 91 8a 02 	lds	r24, 0x028A
    485a:	90 91 8b 02 	lds	r25, 0x028B
    485e:	0e 94 e3 01 	call	0x3c6	; 0x3c6 <com74hc595_unsetPort>
		}
	}
	com74hc595_out();
    4862:	0e 94 e9 01 	call	0x3d2	; 0x3d2 <com74hc595_out>





	if (speed <= 300)
    4866:	80 91 6a 00 	lds	r24, 0x006A
    486a:	90 91 6b 00 	lds	r25, 0x006B
    486e:	8d 32       	cpi	r24, 0x2D	; 45
    4870:	91 40       	sbci	r25, 0x01	; 1
    4872:	18 f4       	brcc	.+6      	; 0x487a <LED_Round_Test+0x1fc>
	{
		speed_flag = 2;
    4874:	82 e0       	ldi	r24, 0x02	; 2
    4876:	80 93 36 02 	sts	0x0236, r24
	}
	if (speed >= 2500)
    487a:	80 91 6a 00 	lds	r24, 0x006A
    487e:	90 91 6b 00 	lds	r25, 0x006B
    4882:	84 3c       	cpi	r24, 0xC4	; 196
    4884:	99 40       	sbci	r25, 0x09	; 9
    4886:	18 f0       	brcs	.+6      	; 0x488e <LED_Round_Test+0x210>
	{
		speed_flag = 1;
    4888:	81 e0       	ldi	r24, 0x01	; 1
    488a:	80 93 36 02 	sts	0x0236, r24
	}
	
	
	
	/* Runter-Faden */
	if (speed_flag == 1)
    488e:	80 91 36 02 	lds	r24, 0x0236
    4892:	81 30       	cpi	r24, 0x01	; 1
    4894:	99 f4       	brne	.+38     	; 0x48bc <LED_Round_Test+0x23e>
	{
		if (Counter_2 >= 10)
    4896:	80 91 84 02 	lds	r24, 0x0284
    489a:	90 91 85 02 	lds	r25, 0x0285
    489e:	0a 97       	sbiw	r24, 0x0a	; 10
    48a0:	68 f0       	brcs	.+26     	; 0x48bc <LED_Round_Test+0x23e>
		{
			Counter_2 = 0;
    48a2:	10 92 85 02 	sts	0x0285, r1
    48a6:	10 92 84 02 	sts	0x0284, r1
			speed --;
    48aa:	80 91 6a 00 	lds	r24, 0x006A
    48ae:	90 91 6b 00 	lds	r25, 0x006B
    48b2:	01 97       	sbiw	r24, 0x01	; 1
    48b4:	90 93 6b 00 	sts	0x006B, r25
    48b8:	80 93 6a 00 	sts	0x006A, r24
		}
	}
	
	
	/* Hoch-Faden */
	if (speed_flag == 2)
    48bc:	80 91 36 02 	lds	r24, 0x0236
    48c0:	82 30       	cpi	r24, 0x02	; 2
    48c2:	99 f4       	brne	.+38     	; 0x48ea <LED_Round_Test+0x26c>
	{
		if (Counter_2 >= 10)
    48c4:	80 91 84 02 	lds	r24, 0x0284
    48c8:	90 91 85 02 	lds	r25, 0x0285
    48cc:	0a 97       	sbiw	r24, 0x0a	; 10
    48ce:	68 f0       	brcs	.+26     	; 0x48ea <LED_Round_Test+0x26c>
		{
			Counter_2 = 0;
    48d0:	10 92 85 02 	sts	0x0285, r1
    48d4:	10 92 84 02 	sts	0x0284, r1
			speed ++;
    48d8:	80 91 6a 00 	lds	r24, 0x006A
    48dc:	90 91 6b 00 	lds	r25, 0x006B
    48e0:	01 96       	adiw	r24, 0x01	; 1
    48e2:	90 93 6b 00 	sts	0x006B, r25
    48e6:	80 93 6a 00 	sts	0x006A, r24
	
	
	
	
	
	if (Counter_1 >= speed)
    48ea:	20 91 71 02 	lds	r18, 0x0271
    48ee:	30 91 72 02 	lds	r19, 0x0272
    48f2:	80 91 6a 00 	lds	r24, 0x006A
    48f6:	90 91 6b 00 	lds	r25, 0x006B
    48fa:	28 17       	cp	r18, r24
    48fc:	39 07       	cpc	r19, r25
    48fe:	e0 f1       	brcs	.+120    	; 0x4978 <LED_Round_Test+0x2fa>
	{
		com74hc595_unsetall();
    4900:	0e 94 d1 01 	call	0x3a2	; 0x3a2 <com74hc595_unsetall>
		Counter_1 = 0;
    4904:	10 92 72 02 	sts	0x0272, r1
    4908:	10 92 71 02 	sts	0x0271, r1
		LED_0 = LED_0 +3;
    490c:	80 91 58 02 	lds	r24, 0x0258
    4910:	90 91 59 02 	lds	r25, 0x0259
    4914:	03 96       	adiw	r24, 0x03	; 3
    4916:	90 93 59 02 	sts	0x0259, r25
    491a:	80 93 58 02 	sts	0x0258, r24
		LED_1 = LED_1 +3;
    491e:	80 91 4a 02 	lds	r24, 0x024A
    4922:	90 91 4b 02 	lds	r25, 0x024B
    4926:	03 96       	adiw	r24, 0x03	; 3
    4928:	90 93 4b 02 	sts	0x024B, r25
    492c:	80 93 4a 02 	sts	0x024A, r24
		LED_2 = LED_2 +3;
    4930:	80 91 86 02 	lds	r24, 0x0286
    4934:	90 91 87 02 	lds	r25, 0x0287
    4938:	03 96       	adiw	r24, 0x03	; 3
    493a:	90 93 87 02 	sts	0x0287, r25
    493e:	80 93 86 02 	sts	0x0286, r24
		LED_3 = LED_3 +3;
    4942:	80 91 34 02 	lds	r24, 0x0234
    4946:	90 91 35 02 	lds	r25, 0x0235
    494a:	03 96       	adiw	r24, 0x03	; 3
    494c:	90 93 35 02 	sts	0x0235, r25
    4950:	80 93 34 02 	sts	0x0234, r24
		LED_4 = LED_4 +3;
    4954:	80 91 61 02 	lds	r24, 0x0261
    4958:	90 91 62 02 	lds	r25, 0x0262
    495c:	03 96       	adiw	r24, 0x03	; 3
    495e:	90 93 62 02 	sts	0x0262, r25
    4962:	80 93 61 02 	sts	0x0261, r24
		LED_5 = LED_5 +3;
    4966:	80 91 8a 02 	lds	r24, 0x028A
    496a:	90 91 8b 02 	lds	r25, 0x028B
    496e:	03 96       	adiw	r24, 0x03	; 3
    4970:	90 93 8b 02 	sts	0x028B, r25
    4974:	80 93 8a 02 	sts	0x028A, r24
	}
	
	if (LED_0 == 18)
    4978:	80 91 58 02 	lds	r24, 0x0258
    497c:	90 91 59 02 	lds	r25, 0x0259
    4980:	42 97       	sbiw	r24, 0x12	; 18
    4982:	81 f4       	brne	.+32     	; 0x49a4 <LED_Round_Test+0x326>
	{
		LED_0 = 0;
    4984:	10 92 59 02 	sts	0x0259, r1
    4988:	10 92 58 02 	sts	0x0258, r1
		LED_1 = 1;
    498c:	81 e0       	ldi	r24, 0x01	; 1
    498e:	90 e0       	ldi	r25, 0x00	; 0
    4990:	90 93 4b 02 	sts	0x024B, r25
    4994:	80 93 4a 02 	sts	0x024A, r24
		LED_2 = 2;
    4998:	82 e0       	ldi	r24, 0x02	; 2
    499a:	90 e0       	ldi	r25, 0x00	; 0
    499c:	90 93 87 02 	sts	0x0287, r25
    49a0:	80 93 86 02 	sts	0x0286, r24
	}
	
	if (LED_3 == 18)
    49a4:	80 91 34 02 	lds	r24, 0x0234
    49a8:	90 91 35 02 	lds	r25, 0x0235
    49ac:	42 97       	sbiw	r24, 0x12	; 18
    49ae:	81 f4       	brne	.+32     	; 0x49d0 <LED_Round_Test+0x352>
	{
		LED_3 = 0;
    49b0:	10 92 35 02 	sts	0x0235, r1
    49b4:	10 92 34 02 	sts	0x0234, r1
		LED_4 = 1;
    49b8:	81 e0       	ldi	r24, 0x01	; 1
    49ba:	90 e0       	ldi	r25, 0x00	; 0
    49bc:	90 93 62 02 	sts	0x0262, r25
    49c0:	80 93 61 02 	sts	0x0261, r24
		LED_5 = 2;
    49c4:	82 e0       	ldi	r24, 0x02	; 2
    49c6:	90 e0       	ldi	r25, 0x00	; 0
    49c8:	90 93 8b 02 	sts	0x028B, r25
    49cc:	80 93 8a 02 	sts	0x028A, r24
    49d0:	08 95       	ret

000049d2 <LED_Change>:

	
}
	
void LED_Change(uint16_t speed, uint8_t bright)
{
    49d2:	1f 93       	push	r17
    49d4:	cf 93       	push	r28
    49d6:	df 93       	push	r29
    49d8:	ec 01       	movw	r28, r24
    49da:	16 2f       	mov	r17, r22

	if (LED_Status != LED_Status_Old)
    49dc:	20 91 28 02 	lds	r18, 0x0228
    49e0:	30 91 29 02 	lds	r19, 0x0229
    49e4:	80 91 5e 02 	lds	r24, 0x025E
    49e8:	90 91 5f 02 	lds	r25, 0x025F
    49ec:	28 17       	cp	r18, r24
    49ee:	39 07       	cpc	r19, r25
    49f0:	09 f4       	brne	.+2      	; 0x49f4 <LED_Change+0x22>
    49f2:	65 c0       	rjmp	.+202    	; 0x4abe <LED_Change+0xec>
	{
		LED_Status_Old = LED_Status;
    49f4:	80 91 28 02 	lds	r24, 0x0228
    49f8:	90 91 29 02 	lds	r25, 0x0229
    49fc:	90 93 5f 02 	sts	0x025F, r25
    4a00:	80 93 5e 02 	sts	0x025E, r24
		
		/* save the actual "LED Status" */
		eeprom_write_byte(&EEPROM_save_LED_Status, LED_Status);
    4a04:	60 91 28 02 	lds	r22, 0x0228
    4a08:	70 91 29 02 	lds	r23, 0x0229
    4a0c:	80 e0       	ldi	r24, 0x00	; 0
    4a0e:	90 e0       	ldi	r25, 0x00	; 0
    4a10:	0e 94 36 36 	call	0x6c6c	; 0x6c6c <__eewr_byte_m32>
		
		all_LED_OFF();
    4a14:	0e 94 5a 05 	call	0xab4	; 0xab4 <all_LED_OFF>
		LED_0 = 0;
    4a18:	10 92 59 02 	sts	0x0259, r1
    4a1c:	10 92 58 02 	sts	0x0258, r1
		LED_1 = 1;
    4a20:	81 e0       	ldi	r24, 0x01	; 1
    4a22:	90 e0       	ldi	r25, 0x00	; 0
    4a24:	90 93 4b 02 	sts	0x024B, r25
    4a28:	80 93 4a 02 	sts	0x024A, r24
		LED_2 = 2;
    4a2c:	82 e0       	ldi	r24, 0x02	; 2
    4a2e:	90 e0       	ldi	r25, 0x00	; 0
    4a30:	90 93 87 02 	sts	0x0287, r25
    4a34:	80 93 86 02 	sts	0x0286, r24
		LED_3 = 6;
    4a38:	86 e0       	ldi	r24, 0x06	; 6
    4a3a:	90 e0       	ldi	r25, 0x00	; 0
    4a3c:	90 93 35 02 	sts	0x0235, r25
    4a40:	80 93 34 02 	sts	0x0234, r24
		LED_4 = 7;
    4a44:	87 e0       	ldi	r24, 0x07	; 7
    4a46:	90 e0       	ldi	r25, 0x00	; 0
    4a48:	90 93 62 02 	sts	0x0262, r25
    4a4c:	80 93 61 02 	sts	0x0261, r24
		LED_5 = 8;
    4a50:	88 e0       	ldi	r24, 0x08	; 8
    4a52:	90 e0       	ldi	r25, 0x00	; 0
    4a54:	90 93 8b 02 	sts	0x028B, r25
    4a58:	80 93 8a 02 	sts	0x028A, r24
		LED_6 = 12;
    4a5c:	8c e0       	ldi	r24, 0x0C	; 12
    4a5e:	90 e0       	ldi	r25, 0x00	; 0
    4a60:	90 93 49 02 	sts	0x0249, r25
    4a64:	80 93 48 02 	sts	0x0248, r24
		LED_7 = 13;
    4a68:	8d e0       	ldi	r24, 0x0D	; 13
    4a6a:	90 e0       	ldi	r25, 0x00	; 0
    4a6c:	90 93 5b 02 	sts	0x025B, r25
    4a70:	80 93 5a 02 	sts	0x025A, r24
		LED_8 = 14;
    4a74:	8e e0       	ldi	r24, 0x0E	; 14
    4a76:	90 e0       	ldi	r25, 0x00	; 0
    4a78:	90 93 2b 02 	sts	0x022B, r25
    4a7c:	80 93 2a 02 	sts	0x022A, r24
		Counter = 0;
    4a80:	10 92 57 02 	sts	0x0257, r1
    4a84:	10 92 56 02 	sts	0x0256, r1
		Counter_1 = 0;
    4a88:	10 92 72 02 	sts	0x0272, r1
    4a8c:	10 92 71 02 	sts	0x0271, r1
		Brightness = bright;
    4a90:	61 2f       	mov	r22, r17
    4a92:	70 e0       	ldi	r23, 0x00	; 0
    4a94:	70 93 71 00 	sts	0x0071, r23
    4a98:	60 93 70 00 	sts	0x0070, r22
		Counter_For_Display = 0;
    4a9c:	10 92 66 02 	sts	0x0266, r1
    4aa0:	10 92 65 02 	sts	0x0265, r1
		counter_for_change_accu_symbol = 0;
    4aa4:	10 92 43 02 	sts	0x0243, r1
    4aa8:	10 92 42 02 	sts	0x0242, r1
		if (LED_Status != 12)
    4aac:	80 91 28 02 	lds	r24, 0x0228
    4ab0:	90 91 29 02 	lds	r25, 0x0229
    4ab4:	0c 97       	sbiw	r24, 0x0c	; 12
    4ab6:	19 f0       	breq	.+6      	; 0x4abe <LED_Change+0xec>
		{
			Display_a_Character(11);
    4ab8:	8b e0       	ldi	r24, 0x0B	; 11
    4aba:	0e 94 f3 04 	call	0x9e6	; 0x9e6 <Display_a_Character>
		}			
	}
	
	
	Counter ++;
    4abe:	80 91 56 02 	lds	r24, 0x0256
    4ac2:	90 91 57 02 	lds	r25, 0x0257
    4ac6:	01 96       	adiw	r24, 0x01	; 1
    4ac8:	90 93 57 02 	sts	0x0257, r25
    4acc:	80 93 56 02 	sts	0x0256, r24
	Counter_1 ++;
    4ad0:	80 91 71 02 	lds	r24, 0x0271
    4ad4:	90 91 72 02 	lds	r25, 0x0272
    4ad8:	01 96       	adiw	r24, 0x01	; 1
    4ada:	90 93 72 02 	sts	0x0272, r25
    4ade:	80 93 71 02 	sts	0x0271, r24


	if (Counter_1 <= speed)
    4ae2:	80 91 71 02 	lds	r24, 0x0271
    4ae6:	90 91 72 02 	lds	r25, 0x0272
    4aea:	c8 17       	cp	r28, r24
    4aec:	d9 07       	cpc	r29, r25
    4aee:	08 f4       	brcc	.+2      	; 0x4af2 <LED_Change+0x120>
    4af0:	9f c0       	rjmp	.+318    	; 0x4c30 <LED_Change+0x25e>
	{		
		
			/* PWM-Routine */
		if (Counter >= 80)
    4af2:	80 91 56 02 	lds	r24, 0x0256
    4af6:	90 91 57 02 	lds	r25, 0x0257
    4afa:	80 35       	cpi	r24, 0x50	; 80
    4afc:	91 05       	cpc	r25, r1
    4afe:	08 f4       	brcc	.+2      	; 0x4b02 <LED_Change+0x130>
    4b00:	54 c0       	rjmp	.+168    	; 0x4baa <LED_Change+0x1d8>
		{
			Counter = 0;
    4b02:	10 92 57 02 	sts	0x0257, r1
    4b06:	10 92 56 02 	sts	0x0256, r1
	
			if (Brightness > 0)
    4b0a:	80 91 70 00 	lds	r24, 0x0070
    4b0e:	90 91 71 00 	lds	r25, 0x0071
    4b12:	89 2b       	or	r24, r25
    4b14:	09 f4       	brne	.+2      	; 0x4b18 <LED_Change+0x146>
    4b16:	8a c0       	rjmp	.+276    	; 0x4c2c <LED_Change+0x25a>
			{
				com74hc595_setPort(0,0b10101010);
    4b18:	6a ea       	ldi	r22, 0xAA	; 170
    4b1a:	80 e0       	ldi	r24, 0x00	; 0
    4b1c:	0e 94 dd 01 	call	0x3ba	; 0x3ba <com74hc595_setPort>
				com74hc595_setPort(1,0b10101010);
    4b20:	6a ea       	ldi	r22, 0xAA	; 170
    4b22:	81 e0       	ldi	r24, 0x01	; 1
    4b24:	0e 94 dd 01 	call	0x3ba	; 0x3ba <com74hc595_setPort>
				com74hc595_setPort(2,0b10101010);
    4b28:	6a ea       	ldi	r22, 0xAA	; 170
    4b2a:	82 e0       	ldi	r24, 0x02	; 2
    4b2c:	0e 94 dd 01 	call	0x3ba	; 0x3ba <com74hc595_setPort>
				com74hc595_setPort(3,0b10101010);
    4b30:	6a ea       	ldi	r22, 0xAA	; 170
    4b32:	83 e0       	ldi	r24, 0x03	; 3
    4b34:	0e 94 dd 01 	call	0x3ba	; 0x3ba <com74hc595_setPort>
				com74hc595_setPort(4,0b10101010);
    4b38:	6a ea       	ldi	r22, 0xAA	; 170
    4b3a:	84 e0       	ldi	r24, 0x04	; 4
    4b3c:	0e 94 dd 01 	call	0x3ba	; 0x3ba <com74hc595_setPort>
				com74hc595_setPort(5,0b10101010);
    4b40:	6a ea       	ldi	r22, 0xAA	; 170
    4b42:	85 e0       	ldi	r24, 0x05	; 5
    4b44:	0e 94 dd 01 	call	0x3ba	; 0x3ba <com74hc595_setPort>
				com74hc595_setPort(6,0b10101010);
    4b48:	6a ea       	ldi	r22, 0xAA	; 170
    4b4a:	86 e0       	ldi	r24, 0x06	; 6
    4b4c:	0e 94 dd 01 	call	0x3ba	; 0x3ba <com74hc595_setPort>
				com74hc595_setPort(7,0b10101010);
    4b50:	6a ea       	ldi	r22, 0xAA	; 170
    4b52:	87 e0       	ldi	r24, 0x07	; 7
    4b54:	0e 94 dd 01 	call	0x3ba	; 0x3ba <com74hc595_setPort>
				com74hc595_setPort(8,0b10101010);
    4b58:	6a ea       	ldi	r22, 0xAA	; 170
    4b5a:	88 e0       	ldi	r24, 0x08	; 8
    4b5c:	0e 94 dd 01 	call	0x3ba	; 0x3ba <com74hc595_setPort>
				com74hc595_setPort(9,0b10101010);
    4b60:	6a ea       	ldi	r22, 0xAA	; 170
    4b62:	89 e0       	ldi	r24, 0x09	; 9
    4b64:	0e 94 dd 01 	call	0x3ba	; 0x3ba <com74hc595_setPort>
				com74hc595_setPort(10,0b10101010);
    4b68:	6a ea       	ldi	r22, 0xAA	; 170
    4b6a:	8a e0       	ldi	r24, 0x0A	; 10
    4b6c:	0e 94 dd 01 	call	0x3ba	; 0x3ba <com74hc595_setPort>
				com74hc595_setPort(11,0b10101010);	
    4b70:	6a ea       	ldi	r22, 0xAA	; 170
    4b72:	8b e0       	ldi	r24, 0x0B	; 11
    4b74:	0e 94 dd 01 	call	0x3ba	; 0x3ba <com74hc595_setPort>
				com74hc595_setPort(12,0b10101010);
    4b78:	6a ea       	ldi	r22, 0xAA	; 170
    4b7a:	8c e0       	ldi	r24, 0x0C	; 12
    4b7c:	0e 94 dd 01 	call	0x3ba	; 0x3ba <com74hc595_setPort>
				com74hc595_setPort(13,0b10101010);
    4b80:	6a ea       	ldi	r22, 0xAA	; 170
    4b82:	8d e0       	ldi	r24, 0x0D	; 13
    4b84:	0e 94 dd 01 	call	0x3ba	; 0x3ba <com74hc595_setPort>
				com74hc595_setPort(14,0b10101010);
    4b88:	6a ea       	ldi	r22, 0xAA	; 170
    4b8a:	8e e0       	ldi	r24, 0x0E	; 14
    4b8c:	0e 94 dd 01 	call	0x3ba	; 0x3ba <com74hc595_setPort>
				com74hc595_setPort(15,0b10101010);
    4b90:	6a ea       	ldi	r22, 0xAA	; 170
    4b92:	8f e0       	ldi	r24, 0x0F	; 15
    4b94:	0e 94 dd 01 	call	0x3ba	; 0x3ba <com74hc595_setPort>
				com74hc595_setPort(16,0b10101010);
    4b98:	6a ea       	ldi	r22, 0xAA	; 170
    4b9a:	80 e1       	ldi	r24, 0x10	; 16
    4b9c:	0e 94 dd 01 	call	0x3ba	; 0x3ba <com74hc595_setPort>
				com74hc595_setPort(17,0b10101010);													
    4ba0:	6a ea       	ldi	r22, 0xAA	; 170
    4ba2:	81 e1       	ldi	r24, 0x11	; 17
    4ba4:	0e 94 dd 01 	call	0x3ba	; 0x3ba <com74hc595_setPort>
    4ba8:	41 c0       	rjmp	.+130    	; 0x4c2c <LED_Change+0x25a>
			}
		}
		else
		{
			if (Counter == Brightness)
    4baa:	20 91 56 02 	lds	r18, 0x0256
    4bae:	30 91 57 02 	lds	r19, 0x0257
    4bb2:	80 91 70 00 	lds	r24, 0x0070
    4bb6:	90 91 71 00 	lds	r25, 0x0071
    4bba:	28 17       	cp	r18, r24
    4bbc:	39 07       	cpc	r19, r25
    4bbe:	b1 f5       	brne	.+108    	; 0x4c2c <LED_Change+0x25a>
			{
				com74hc595_unsetPort(0);
    4bc0:	80 e0       	ldi	r24, 0x00	; 0
    4bc2:	0e 94 e3 01 	call	0x3c6	; 0x3c6 <com74hc595_unsetPort>
				com74hc595_unsetPort(1);
    4bc6:	81 e0       	ldi	r24, 0x01	; 1
    4bc8:	0e 94 e3 01 	call	0x3c6	; 0x3c6 <com74hc595_unsetPort>
				com74hc595_unsetPort(2);
    4bcc:	82 e0       	ldi	r24, 0x02	; 2
    4bce:	0e 94 e3 01 	call	0x3c6	; 0x3c6 <com74hc595_unsetPort>
				com74hc595_unsetPort(3);
    4bd2:	83 e0       	ldi	r24, 0x03	; 3
    4bd4:	0e 94 e3 01 	call	0x3c6	; 0x3c6 <com74hc595_unsetPort>
				com74hc595_unsetPort(4);
    4bd8:	84 e0       	ldi	r24, 0x04	; 4
    4bda:	0e 94 e3 01 	call	0x3c6	; 0x3c6 <com74hc595_unsetPort>
				com74hc595_unsetPort(5);
    4bde:	85 e0       	ldi	r24, 0x05	; 5
    4be0:	0e 94 e3 01 	call	0x3c6	; 0x3c6 <com74hc595_unsetPort>
				com74hc595_unsetPort(6);
    4be4:	86 e0       	ldi	r24, 0x06	; 6
    4be6:	0e 94 e3 01 	call	0x3c6	; 0x3c6 <com74hc595_unsetPort>
				com74hc595_unsetPort(7);
    4bea:	87 e0       	ldi	r24, 0x07	; 7
    4bec:	0e 94 e3 01 	call	0x3c6	; 0x3c6 <com74hc595_unsetPort>
				com74hc595_unsetPort(8);
    4bf0:	88 e0       	ldi	r24, 0x08	; 8
    4bf2:	0e 94 e3 01 	call	0x3c6	; 0x3c6 <com74hc595_unsetPort>
				com74hc595_unsetPort(9);
    4bf6:	89 e0       	ldi	r24, 0x09	; 9
    4bf8:	0e 94 e3 01 	call	0x3c6	; 0x3c6 <com74hc595_unsetPort>
				com74hc595_unsetPort(10);
    4bfc:	8a e0       	ldi	r24, 0x0A	; 10
    4bfe:	0e 94 e3 01 	call	0x3c6	; 0x3c6 <com74hc595_unsetPort>
				com74hc595_unsetPort(11);
    4c02:	8b e0       	ldi	r24, 0x0B	; 11
    4c04:	0e 94 e3 01 	call	0x3c6	; 0x3c6 <com74hc595_unsetPort>
				com74hc595_unsetPort(12);
    4c08:	8c e0       	ldi	r24, 0x0C	; 12
    4c0a:	0e 94 e3 01 	call	0x3c6	; 0x3c6 <com74hc595_unsetPort>
				com74hc595_unsetPort(13);
    4c0e:	8d e0       	ldi	r24, 0x0D	; 13
    4c10:	0e 94 e3 01 	call	0x3c6	; 0x3c6 <com74hc595_unsetPort>
				com74hc595_unsetPort(14);
    4c14:	8e e0       	ldi	r24, 0x0E	; 14
    4c16:	0e 94 e3 01 	call	0x3c6	; 0x3c6 <com74hc595_unsetPort>
				com74hc595_unsetPort(15);
    4c1a:	8f e0       	ldi	r24, 0x0F	; 15
    4c1c:	0e 94 e3 01 	call	0x3c6	; 0x3c6 <com74hc595_unsetPort>
				com74hc595_unsetPort(16);
    4c20:	80 e1       	ldi	r24, 0x10	; 16
    4c22:	0e 94 e3 01 	call	0x3c6	; 0x3c6 <com74hc595_unsetPort>
				com74hc595_unsetPort(17);
    4c26:	81 e1       	ldi	r24, 0x11	; 17
    4c28:	0e 94 e3 01 	call	0x3c6	; 0x3c6 <com74hc595_unsetPort>
			}		
		}
		com74hc595_out();
    4c2c:	0e 94 e9 01 	call	0x3d2	; 0x3d2 <com74hc595_out>





	if (Counter_1 >= speed)
    4c30:	80 91 71 02 	lds	r24, 0x0271
    4c34:	90 91 72 02 	lds	r25, 0x0272
    4c38:	8c 17       	cp	r24, r28
    4c3a:	9d 07       	cpc	r25, r29
    4c3c:	08 f4       	brcc	.+2      	; 0x4c40 <LED_Change+0x26e>
    4c3e:	9f c0       	rjmp	.+318    	; 0x4d7e <LED_Change+0x3ac>
	{
		/* PWM-Routine */
		if (Counter >= 80)
    4c40:	80 91 56 02 	lds	r24, 0x0256
    4c44:	90 91 57 02 	lds	r25, 0x0257
    4c48:	80 35       	cpi	r24, 0x50	; 80
    4c4a:	91 05       	cpc	r25, r1
    4c4c:	08 f4       	brcc	.+2      	; 0x4c50 <LED_Change+0x27e>
    4c4e:	54 c0       	rjmp	.+168    	; 0x4cf8 <LED_Change+0x326>
		{		
			Counter = 0;
    4c50:	10 92 57 02 	sts	0x0257, r1
    4c54:	10 92 56 02 	sts	0x0256, r1
			
			if (Brightness > 0)
    4c58:	80 91 70 00 	lds	r24, 0x0070
    4c5c:	90 91 71 00 	lds	r25, 0x0071
    4c60:	89 2b       	or	r24, r25
    4c62:	09 f4       	brne	.+2      	; 0x4c66 <LED_Change+0x294>
    4c64:	8a c0       	rjmp	.+276    	; 0x4d7a <LED_Change+0x3a8>
			{
				com74hc595_setPort(0,0b01010101);
    4c66:	65 e5       	ldi	r22, 0x55	; 85
    4c68:	80 e0       	ldi	r24, 0x00	; 0
    4c6a:	0e 94 dd 01 	call	0x3ba	; 0x3ba <com74hc595_setPort>
				com74hc595_setPort(1,0b01010101);
    4c6e:	65 e5       	ldi	r22, 0x55	; 85
    4c70:	81 e0       	ldi	r24, 0x01	; 1
    4c72:	0e 94 dd 01 	call	0x3ba	; 0x3ba <com74hc595_setPort>
				com74hc595_setPort(2,0b01010101);
    4c76:	65 e5       	ldi	r22, 0x55	; 85
    4c78:	82 e0       	ldi	r24, 0x02	; 2
    4c7a:	0e 94 dd 01 	call	0x3ba	; 0x3ba <com74hc595_setPort>
				com74hc595_setPort(3,0b01010101);
    4c7e:	65 e5       	ldi	r22, 0x55	; 85
    4c80:	83 e0       	ldi	r24, 0x03	; 3
    4c82:	0e 94 dd 01 	call	0x3ba	; 0x3ba <com74hc595_setPort>
				com74hc595_setPort(4,0b01010101);
    4c86:	65 e5       	ldi	r22, 0x55	; 85
    4c88:	84 e0       	ldi	r24, 0x04	; 4
    4c8a:	0e 94 dd 01 	call	0x3ba	; 0x3ba <com74hc595_setPort>
				com74hc595_setPort(5,0b01010101);
    4c8e:	65 e5       	ldi	r22, 0x55	; 85
    4c90:	85 e0       	ldi	r24, 0x05	; 5
    4c92:	0e 94 dd 01 	call	0x3ba	; 0x3ba <com74hc595_setPort>
				com74hc595_setPort(6,0b01010101);
    4c96:	65 e5       	ldi	r22, 0x55	; 85
    4c98:	86 e0       	ldi	r24, 0x06	; 6
    4c9a:	0e 94 dd 01 	call	0x3ba	; 0x3ba <com74hc595_setPort>
				com74hc595_setPort(7,0b01010101);
    4c9e:	65 e5       	ldi	r22, 0x55	; 85
    4ca0:	87 e0       	ldi	r24, 0x07	; 7
    4ca2:	0e 94 dd 01 	call	0x3ba	; 0x3ba <com74hc595_setPort>
				com74hc595_setPort(8,0b01010101);
    4ca6:	65 e5       	ldi	r22, 0x55	; 85
    4ca8:	88 e0       	ldi	r24, 0x08	; 8
    4caa:	0e 94 dd 01 	call	0x3ba	; 0x3ba <com74hc595_setPort>
				com74hc595_setPort(9,0b01010101);
    4cae:	65 e5       	ldi	r22, 0x55	; 85
    4cb0:	89 e0       	ldi	r24, 0x09	; 9
    4cb2:	0e 94 dd 01 	call	0x3ba	; 0x3ba <com74hc595_setPort>
				com74hc595_setPort(10,0b01010101);
    4cb6:	65 e5       	ldi	r22, 0x55	; 85
    4cb8:	8a e0       	ldi	r24, 0x0A	; 10
    4cba:	0e 94 dd 01 	call	0x3ba	; 0x3ba <com74hc595_setPort>
				com74hc595_setPort(11,0b01010101);
    4cbe:	65 e5       	ldi	r22, 0x55	; 85
    4cc0:	8b e0       	ldi	r24, 0x0B	; 11
    4cc2:	0e 94 dd 01 	call	0x3ba	; 0x3ba <com74hc595_setPort>
				com74hc595_setPort(12,0b01010101);
    4cc6:	65 e5       	ldi	r22, 0x55	; 85
    4cc8:	8c e0       	ldi	r24, 0x0C	; 12
    4cca:	0e 94 dd 01 	call	0x3ba	; 0x3ba <com74hc595_setPort>
				com74hc595_setPort(13,0b01010101);
    4cce:	65 e5       	ldi	r22, 0x55	; 85
    4cd0:	8d e0       	ldi	r24, 0x0D	; 13
    4cd2:	0e 94 dd 01 	call	0x3ba	; 0x3ba <com74hc595_setPort>
				com74hc595_setPort(14,0b01010101);
    4cd6:	65 e5       	ldi	r22, 0x55	; 85
    4cd8:	8e e0       	ldi	r24, 0x0E	; 14
    4cda:	0e 94 dd 01 	call	0x3ba	; 0x3ba <com74hc595_setPort>
				com74hc595_setPort(15,0b01010101);
    4cde:	65 e5       	ldi	r22, 0x55	; 85
    4ce0:	8f e0       	ldi	r24, 0x0F	; 15
    4ce2:	0e 94 dd 01 	call	0x3ba	; 0x3ba <com74hc595_setPort>
				com74hc595_setPort(16,0b01010101);
    4ce6:	65 e5       	ldi	r22, 0x55	; 85
    4ce8:	80 e1       	ldi	r24, 0x10	; 16
    4cea:	0e 94 dd 01 	call	0x3ba	; 0x3ba <com74hc595_setPort>
				com74hc595_setPort(17,0b01010101);
    4cee:	65 e5       	ldi	r22, 0x55	; 85
    4cf0:	81 e1       	ldi	r24, 0x11	; 17
    4cf2:	0e 94 dd 01 	call	0x3ba	; 0x3ba <com74hc595_setPort>
    4cf6:	41 c0       	rjmp	.+130    	; 0x4d7a <LED_Change+0x3a8>
			}
		}
		else
		{
			if (Counter == Brightness)
    4cf8:	20 91 56 02 	lds	r18, 0x0256
    4cfc:	30 91 57 02 	lds	r19, 0x0257
    4d00:	80 91 70 00 	lds	r24, 0x0070
    4d04:	90 91 71 00 	lds	r25, 0x0071
    4d08:	28 17       	cp	r18, r24
    4d0a:	39 07       	cpc	r19, r25
    4d0c:	b1 f5       	brne	.+108    	; 0x4d7a <LED_Change+0x3a8>
			{
				com74hc595_unsetPort(0);
    4d0e:	80 e0       	ldi	r24, 0x00	; 0
    4d10:	0e 94 e3 01 	call	0x3c6	; 0x3c6 <com74hc595_unsetPort>
				com74hc595_unsetPort(1);
    4d14:	81 e0       	ldi	r24, 0x01	; 1
    4d16:	0e 94 e3 01 	call	0x3c6	; 0x3c6 <com74hc595_unsetPort>
				com74hc595_unsetPort(2);
    4d1a:	82 e0       	ldi	r24, 0x02	; 2
    4d1c:	0e 94 e3 01 	call	0x3c6	; 0x3c6 <com74hc595_unsetPort>
				com74hc595_unsetPort(3);
    4d20:	83 e0       	ldi	r24, 0x03	; 3
    4d22:	0e 94 e3 01 	call	0x3c6	; 0x3c6 <com74hc595_unsetPort>
				com74hc595_unsetPort(4);
    4d26:	84 e0       	ldi	r24, 0x04	; 4
    4d28:	0e 94 e3 01 	call	0x3c6	; 0x3c6 <com74hc595_unsetPort>
				com74hc595_unsetPort(5);
    4d2c:	85 e0       	ldi	r24, 0x05	; 5
    4d2e:	0e 94 e3 01 	call	0x3c6	; 0x3c6 <com74hc595_unsetPort>
				com74hc595_unsetPort(6);
    4d32:	86 e0       	ldi	r24, 0x06	; 6
    4d34:	0e 94 e3 01 	call	0x3c6	; 0x3c6 <com74hc595_unsetPort>
				com74hc595_unsetPort(7);
    4d38:	87 e0       	ldi	r24, 0x07	; 7
    4d3a:	0e 94 e3 01 	call	0x3c6	; 0x3c6 <com74hc595_unsetPort>
				com74hc595_unsetPort(8);
    4d3e:	88 e0       	ldi	r24, 0x08	; 8
    4d40:	0e 94 e3 01 	call	0x3c6	; 0x3c6 <com74hc595_unsetPort>
				com74hc595_unsetPort(9);
    4d44:	89 e0       	ldi	r24, 0x09	; 9
    4d46:	0e 94 e3 01 	call	0x3c6	; 0x3c6 <com74hc595_unsetPort>
				com74hc595_unsetPort(10);
    4d4a:	8a e0       	ldi	r24, 0x0A	; 10
    4d4c:	0e 94 e3 01 	call	0x3c6	; 0x3c6 <com74hc595_unsetPort>
				com74hc595_unsetPort(11);
    4d50:	8b e0       	ldi	r24, 0x0B	; 11
    4d52:	0e 94 e3 01 	call	0x3c6	; 0x3c6 <com74hc595_unsetPort>
				com74hc595_unsetPort(12);
    4d56:	8c e0       	ldi	r24, 0x0C	; 12
    4d58:	0e 94 e3 01 	call	0x3c6	; 0x3c6 <com74hc595_unsetPort>
				com74hc595_unsetPort(13);
    4d5c:	8d e0       	ldi	r24, 0x0D	; 13
    4d5e:	0e 94 e3 01 	call	0x3c6	; 0x3c6 <com74hc595_unsetPort>
				com74hc595_unsetPort(14);
    4d62:	8e e0       	ldi	r24, 0x0E	; 14
    4d64:	0e 94 e3 01 	call	0x3c6	; 0x3c6 <com74hc595_unsetPort>
				com74hc595_unsetPort(15);
    4d68:	8f e0       	ldi	r24, 0x0F	; 15
    4d6a:	0e 94 e3 01 	call	0x3c6	; 0x3c6 <com74hc595_unsetPort>
				com74hc595_unsetPort(16);
    4d6e:	80 e1       	ldi	r24, 0x10	; 16
    4d70:	0e 94 e3 01 	call	0x3c6	; 0x3c6 <com74hc595_unsetPort>
				com74hc595_unsetPort(17);
    4d74:	81 e1       	ldi	r24, 0x11	; 17
    4d76:	0e 94 e3 01 	call	0x3c6	; 0x3c6 <com74hc595_unsetPort>
			}
		}
		com74hc595_out();
    4d7a:	0e 94 e9 01 	call	0x3d2	; 0x3d2 <com74hc595_out>
	}


	if (Counter_1 == speed * 2)
    4d7e:	80 91 71 02 	lds	r24, 0x0271
    4d82:	90 91 72 02 	lds	r25, 0x0272
    4d86:	cc 0f       	add	r28, r28
    4d88:	dd 1f       	adc	r29, r29
    4d8a:	c8 17       	cp	r28, r24
    4d8c:	d9 07       	cpc	r29, r25
    4d8e:	21 f4       	brne	.+8      	; 0x4d98 <LED_Change+0x3c6>
	{
		Counter_1 = 0;
    4d90:	10 92 72 02 	sts	0x0272, r1
    4d94:	10 92 71 02 	sts	0x0271, r1
	}


		
}
    4d98:	df 91       	pop	r29
    4d9a:	cf 91       	pop	r28
    4d9c:	1f 91       	pop	r17
    4d9e:	08 95       	ret

00004da0 <LED_Blink>:

void LED_Blink(uint16_t speed)
{
    4da0:	0f 93       	push	r16
    4da2:	1f 93       	push	r17
    4da4:	cf 93       	push	r28
    4da6:	df 93       	push	r29
    4da8:	8c 01       	movw	r16, r24
	if (LED_Status != LED_Status_Old)
    4daa:	20 91 28 02 	lds	r18, 0x0228
    4dae:	30 91 29 02 	lds	r19, 0x0229
    4db2:	80 91 5e 02 	lds	r24, 0x025E
    4db6:	90 91 5f 02 	lds	r25, 0x025F
    4dba:	28 17       	cp	r18, r24
    4dbc:	39 07       	cpc	r19, r25
    4dbe:	09 f4       	brne	.+2      	; 0x4dc2 <LED_Blink+0x22>
    4dc0:	89 c0       	rjmp	.+274    	; 0x4ed4 <LED_Blink+0x134>
	{
 		LED_Status_Old = LED_Status;
    4dc2:	80 91 28 02 	lds	r24, 0x0228
    4dc6:	90 91 29 02 	lds	r25, 0x0229
    4dca:	90 93 5f 02 	sts	0x025F, r25
    4dce:	80 93 5e 02 	sts	0x025E, r24
		
		/* save the actual "LED Status" */
 		eeprom_write_byte(&EEPROM_save_LED_Status, LED_Status);
    4dd2:	60 91 28 02 	lds	r22, 0x0228
    4dd6:	70 91 29 02 	lds	r23, 0x0229
    4dda:	80 e0       	ldi	r24, 0x00	; 0
    4ddc:	90 e0       	ldi	r25, 0x00	; 0
    4dde:	0e 94 36 36 	call	0x6c6c	; 0x6c6c <__eewr_byte_m32>
		
		Brightness_1 = 2;
    4de2:	82 e0       	ldi	r24, 0x02	; 2
    4de4:	80 93 75 00 	sts	0x0075, r24
		Brightness_2 = 4;
    4de8:	84 e0       	ldi	r24, 0x04	; 4
    4dea:	80 93 74 00 	sts	0x0074, r24
		Brightness_3 = 8;
    4dee:	88 e0       	ldi	r24, 0x08	; 8
    4df0:	80 93 73 00 	sts	0x0073, r24
		Brightness_4 = 11;
    4df4:	8b e0       	ldi	r24, 0x0B	; 11
    4df6:	80 93 72 00 	sts	0x0072, r24
		Counter_For_Brightness_1 = 0;
    4dfa:	10 92 3a 02 	sts	0x023A, r1
    4dfe:	10 92 39 02 	sts	0x0239, r1
		Counter_For_Brightness_2 = 0;
    4e02:	10 92 53 02 	sts	0x0253, r1
    4e06:	10 92 52 02 	sts	0x0252, r1
		Counter_For_Brightness_3 = 0;
    4e0a:	10 92 4f 02 	sts	0x024F, r1
    4e0e:	10 92 4e 02 	sts	0x024E, r1
		Counter_For_Brightness_4 = 0;
    4e12:	10 92 80 02 	sts	0x0280, r1
    4e16:	10 92 7f 02 	sts	0x027F, r1
		Brightness_Flag_1 = 1;
    4e1a:	21 e0       	ldi	r18, 0x01	; 1
    4e1c:	30 e0       	ldi	r19, 0x00	; 0
    4e1e:	30 93 64 02 	sts	0x0264, r19
    4e22:	20 93 63 02 	sts	0x0263, r18
		Brightness_Flag_2 = 2;
    4e26:	82 e0       	ldi	r24, 0x02	; 2
    4e28:	90 e0       	ldi	r25, 0x00	; 0
    4e2a:	90 93 89 02 	sts	0x0289, r25
    4e2e:	80 93 88 02 	sts	0x0288, r24
		Brightness_flag_3 = 1;
    4e32:	30 93 8f 02 	sts	0x028F, r19
    4e36:	20 93 8e 02 	sts	0x028E, r18
		Brightness_flag_4 = 2;
    4e3a:	90 93 6a 02 	sts	0x026A, r25
    4e3e:	80 93 69 02 	sts	0x0269, r24
		Counter = 0;
    4e42:	10 92 57 02 	sts	0x0257, r1
    4e46:	10 92 56 02 	sts	0x0256, r1
		Counter_1 = 0;
    4e4a:	10 92 72 02 	sts	0x0272, r1
    4e4e:	10 92 71 02 	sts	0x0271, r1
		Counter_2 = 0;
    4e52:	10 92 85 02 	sts	0x0285, r1
    4e56:	10 92 84 02 	sts	0x0284, r1
		Counter_3 = 0;
    4e5a:	10 92 83 02 	sts	0x0283, r1
    4e5e:	10 92 82 02 	sts	0x0282, r1
		all_LED_OFF();
    4e62:	0e 94 5a 05 	call	0xab4	; 0xab4 <all_LED_OFF>
		LED_0 = (rand() % 143)+0;
    4e66:	0e 94 1e 36 	call	0x6c3c	; 0x6c3c <rand>
    4e6a:	cf e8       	ldi	r28, 0x8F	; 143
    4e6c:	d0 e0       	ldi	r29, 0x00	; 0
    4e6e:	be 01       	movw	r22, r28
    4e70:	0e 94 a2 35 	call	0x6b44	; 0x6b44 <__divmodhi4>
    4e74:	90 93 59 02 	sts	0x0259, r25
    4e78:	80 93 58 02 	sts	0x0258, r24
		LED_1 = (rand() % 143)+0;
    4e7c:	0e 94 1e 36 	call	0x6c3c	; 0x6c3c <rand>
    4e80:	be 01       	movw	r22, r28
    4e82:	0e 94 a2 35 	call	0x6b44	; 0x6b44 <__divmodhi4>
    4e86:	90 93 4b 02 	sts	0x024B, r25
    4e8a:	80 93 4a 02 	sts	0x024A, r24
		LED_2 = (rand() % 143)+0;
    4e8e:	0e 94 1e 36 	call	0x6c3c	; 0x6c3c <rand>
    4e92:	be 01       	movw	r22, r28
    4e94:	0e 94 a2 35 	call	0x6b44	; 0x6b44 <__divmodhi4>
    4e98:	90 93 87 02 	sts	0x0287, r25
    4e9c:	80 93 86 02 	sts	0x0286, r24
		LED_3 = (rand() % 143)+0;	
    4ea0:	0e 94 1e 36 	call	0x6c3c	; 0x6c3c <rand>
    4ea4:	be 01       	movw	r22, r28
    4ea6:	0e 94 a2 35 	call	0x6b44	; 0x6b44 <__divmodhi4>
    4eaa:	90 93 35 02 	sts	0x0235, r25
    4eae:	80 93 34 02 	sts	0x0234, r24
		Counter_For_Display = 0;
    4eb2:	10 92 66 02 	sts	0x0266, r1
    4eb6:	10 92 65 02 	sts	0x0265, r1
		counter_for_change_accu_symbol = 0;
    4eba:	10 92 43 02 	sts	0x0243, r1
    4ebe:	10 92 42 02 	sts	0x0242, r1
		if (LED_Status != 12)
    4ec2:	80 91 28 02 	lds	r24, 0x0228
    4ec6:	90 91 29 02 	lds	r25, 0x0229
    4eca:	0c 97       	sbiw	r24, 0x0c	; 12
    4ecc:	19 f0       	breq	.+6      	; 0x4ed4 <LED_Blink+0x134>
		{
			Display_a_Character(74);			
    4ece:	8a e4       	ldi	r24, 0x4A	; 74
    4ed0:	0e 94 f3 04 	call	0x9e6	; 0x9e6 <Display_a_Character>
		}
	}

/* Funktionen sorgen dafür, dass die LEDs nicht die gleichen Werte annehmen können */	
	while (LED_0 == LED_1)
    4ed4:	20 91 58 02 	lds	r18, 0x0258
    4ed8:	30 91 59 02 	lds	r19, 0x0259
    4edc:	80 91 4a 02 	lds	r24, 0x024A
    4ee0:	90 91 4b 02 	lds	r25, 0x024B
    4ee4:	28 17       	cp	r18, r24
    4ee6:	39 07       	cpc	r19, r25
    4ee8:	b1 f4       	brne	.+44     	; 0x4f16 <LED_Blink+0x176>
	{
		LED_0 = (rand() % 143)+0;
    4eea:	cf e8       	ldi	r28, 0x8F	; 143
    4eec:	d0 e0       	ldi	r29, 0x00	; 0
    4eee:	0e 94 1e 36 	call	0x6c3c	; 0x6c3c <rand>
    4ef2:	be 01       	movw	r22, r28
    4ef4:	0e 94 a2 35 	call	0x6b44	; 0x6b44 <__divmodhi4>
    4ef8:	90 93 59 02 	sts	0x0259, r25
    4efc:	80 93 58 02 	sts	0x0258, r24
			Display_a_Character(74);			
		}
	}

/* Funktionen sorgen dafür, dass die LEDs nicht die gleichen Werte annehmen können */	
	while (LED_0 == LED_1)
    4f00:	20 91 58 02 	lds	r18, 0x0258
    4f04:	30 91 59 02 	lds	r19, 0x0259
    4f08:	80 91 4a 02 	lds	r24, 0x024A
    4f0c:	90 91 4b 02 	lds	r25, 0x024B
    4f10:	28 17       	cp	r18, r24
    4f12:	39 07       	cpc	r19, r25
    4f14:	61 f3       	breq	.-40     	; 0x4eee <LED_Blink+0x14e>
	{
		LED_0 = (rand() % 143)+0;
	}
	while (LED_0 == LED_2)
    4f16:	20 91 58 02 	lds	r18, 0x0258
    4f1a:	30 91 59 02 	lds	r19, 0x0259
    4f1e:	80 91 86 02 	lds	r24, 0x0286
    4f22:	90 91 87 02 	lds	r25, 0x0287
    4f26:	28 17       	cp	r18, r24
    4f28:	39 07       	cpc	r19, r25
    4f2a:	b1 f4       	brne	.+44     	; 0x4f58 <LED_Blink+0x1b8>
	{
		LED_0 = (rand() % 143)+0;
    4f2c:	cf e8       	ldi	r28, 0x8F	; 143
    4f2e:	d0 e0       	ldi	r29, 0x00	; 0
    4f30:	0e 94 1e 36 	call	0x6c3c	; 0x6c3c <rand>
    4f34:	be 01       	movw	r22, r28
    4f36:	0e 94 a2 35 	call	0x6b44	; 0x6b44 <__divmodhi4>
    4f3a:	90 93 59 02 	sts	0x0259, r25
    4f3e:	80 93 58 02 	sts	0x0258, r24
/* Funktionen sorgen dafür, dass die LEDs nicht die gleichen Werte annehmen können */	
	while (LED_0 == LED_1)
	{
		LED_0 = (rand() % 143)+0;
	}
	while (LED_0 == LED_2)
    4f42:	20 91 58 02 	lds	r18, 0x0258
    4f46:	30 91 59 02 	lds	r19, 0x0259
    4f4a:	80 91 86 02 	lds	r24, 0x0286
    4f4e:	90 91 87 02 	lds	r25, 0x0287
    4f52:	28 17       	cp	r18, r24
    4f54:	39 07       	cpc	r19, r25
    4f56:	61 f3       	breq	.-40     	; 0x4f30 <LED_Blink+0x190>
	{
		LED_0 = (rand() % 143)+0;
	}
	while (LED_0 == LED_3)
    4f58:	20 91 58 02 	lds	r18, 0x0258
    4f5c:	30 91 59 02 	lds	r19, 0x0259
    4f60:	80 91 34 02 	lds	r24, 0x0234
    4f64:	90 91 35 02 	lds	r25, 0x0235
    4f68:	28 17       	cp	r18, r24
    4f6a:	39 07       	cpc	r19, r25
    4f6c:	b1 f4       	brne	.+44     	; 0x4f9a <LED_Blink+0x1fa>
	{
		LED_0 = (rand() % 143)+0;
    4f6e:	cf e8       	ldi	r28, 0x8F	; 143
    4f70:	d0 e0       	ldi	r29, 0x00	; 0
    4f72:	0e 94 1e 36 	call	0x6c3c	; 0x6c3c <rand>
    4f76:	be 01       	movw	r22, r28
    4f78:	0e 94 a2 35 	call	0x6b44	; 0x6b44 <__divmodhi4>
    4f7c:	90 93 59 02 	sts	0x0259, r25
    4f80:	80 93 58 02 	sts	0x0258, r24
	}
	while (LED_0 == LED_2)
	{
		LED_0 = (rand() % 143)+0;
	}
	while (LED_0 == LED_3)
    4f84:	20 91 58 02 	lds	r18, 0x0258
    4f88:	30 91 59 02 	lds	r19, 0x0259
    4f8c:	80 91 34 02 	lds	r24, 0x0234
    4f90:	90 91 35 02 	lds	r25, 0x0235
    4f94:	28 17       	cp	r18, r24
    4f96:	39 07       	cpc	r19, r25
    4f98:	61 f3       	breq	.-40     	; 0x4f72 <LED_Blink+0x1d2>
	{
		LED_0 = (rand() % 143)+0;
	}
	while (LED_1 == LED_2)
    4f9a:	20 91 4a 02 	lds	r18, 0x024A
    4f9e:	30 91 4b 02 	lds	r19, 0x024B
    4fa2:	80 91 86 02 	lds	r24, 0x0286
    4fa6:	90 91 87 02 	lds	r25, 0x0287
    4faa:	28 17       	cp	r18, r24
    4fac:	39 07       	cpc	r19, r25
    4fae:	b1 f4       	brne	.+44     	; 0x4fdc <LED_Blink+0x23c>
	{
		LED_1 = (rand() % 143)+0;
    4fb0:	cf e8       	ldi	r28, 0x8F	; 143
    4fb2:	d0 e0       	ldi	r29, 0x00	; 0
    4fb4:	0e 94 1e 36 	call	0x6c3c	; 0x6c3c <rand>
    4fb8:	be 01       	movw	r22, r28
    4fba:	0e 94 a2 35 	call	0x6b44	; 0x6b44 <__divmodhi4>
    4fbe:	90 93 4b 02 	sts	0x024B, r25
    4fc2:	80 93 4a 02 	sts	0x024A, r24
	}
	while (LED_0 == LED_3)
	{
		LED_0 = (rand() % 143)+0;
	}
	while (LED_1 == LED_2)
    4fc6:	20 91 4a 02 	lds	r18, 0x024A
    4fca:	30 91 4b 02 	lds	r19, 0x024B
    4fce:	80 91 86 02 	lds	r24, 0x0286
    4fd2:	90 91 87 02 	lds	r25, 0x0287
    4fd6:	28 17       	cp	r18, r24
    4fd8:	39 07       	cpc	r19, r25
    4fda:	61 f3       	breq	.-40     	; 0x4fb4 <LED_Blink+0x214>
	{
		LED_1 = (rand() % 143)+0;
	}
	while (LED_1 == LED_3)
    4fdc:	20 91 4a 02 	lds	r18, 0x024A
    4fe0:	30 91 4b 02 	lds	r19, 0x024B
    4fe4:	80 91 34 02 	lds	r24, 0x0234
    4fe8:	90 91 35 02 	lds	r25, 0x0235
    4fec:	28 17       	cp	r18, r24
    4fee:	39 07       	cpc	r19, r25
    4ff0:	b1 f4       	brne	.+44     	; 0x501e <LED_Blink+0x27e>
	{
		LED_1 = (rand() % 143)+0;
    4ff2:	cf e8       	ldi	r28, 0x8F	; 143
    4ff4:	d0 e0       	ldi	r29, 0x00	; 0
    4ff6:	0e 94 1e 36 	call	0x6c3c	; 0x6c3c <rand>
    4ffa:	be 01       	movw	r22, r28
    4ffc:	0e 94 a2 35 	call	0x6b44	; 0x6b44 <__divmodhi4>
    5000:	90 93 4b 02 	sts	0x024B, r25
    5004:	80 93 4a 02 	sts	0x024A, r24
	}
	while (LED_1 == LED_2)
	{
		LED_1 = (rand() % 143)+0;
	}
	while (LED_1 == LED_3)
    5008:	20 91 4a 02 	lds	r18, 0x024A
    500c:	30 91 4b 02 	lds	r19, 0x024B
    5010:	80 91 34 02 	lds	r24, 0x0234
    5014:	90 91 35 02 	lds	r25, 0x0235
    5018:	28 17       	cp	r18, r24
    501a:	39 07       	cpc	r19, r25
    501c:	61 f3       	breq	.-40     	; 0x4ff6 <LED_Blink+0x256>
	{
		LED_1 = (rand() % 143)+0;
	}		
	while (LED_2 == LED_3)
    501e:	20 91 86 02 	lds	r18, 0x0286
    5022:	30 91 87 02 	lds	r19, 0x0287
    5026:	80 91 34 02 	lds	r24, 0x0234
    502a:	90 91 35 02 	lds	r25, 0x0235
    502e:	28 17       	cp	r18, r24
    5030:	39 07       	cpc	r19, r25
    5032:	b1 f4       	brne	.+44     	; 0x5060 <LED_Blink+0x2c0>
	{
		LED_2 = (rand() % 143)+0;
    5034:	cf e8       	ldi	r28, 0x8F	; 143
    5036:	d0 e0       	ldi	r29, 0x00	; 0
    5038:	0e 94 1e 36 	call	0x6c3c	; 0x6c3c <rand>
    503c:	be 01       	movw	r22, r28
    503e:	0e 94 a2 35 	call	0x6b44	; 0x6b44 <__divmodhi4>
    5042:	90 93 87 02 	sts	0x0287, r25
    5046:	80 93 86 02 	sts	0x0286, r24
	}
	while (LED_1 == LED_3)
	{
		LED_1 = (rand() % 143)+0;
	}		
	while (LED_2 == LED_3)
    504a:	40 91 86 02 	lds	r20, 0x0286
    504e:	50 91 87 02 	lds	r21, 0x0287
    5052:	20 91 34 02 	lds	r18, 0x0234
    5056:	30 91 35 02 	lds	r19, 0x0235
    505a:	42 17       	cp	r20, r18
    505c:	53 07       	cpc	r21, r19
    505e:	61 f3       	breq	.-40     	; 0x5038 <LED_Blink+0x298>
	{
		LED_2 = (rand() % 143)+0;
	}		
	
	
 	Counter ++;
    5060:	80 91 56 02 	lds	r24, 0x0256
    5064:	90 91 57 02 	lds	r25, 0x0257
    5068:	01 96       	adiw	r24, 0x01	; 1
    506a:	90 93 57 02 	sts	0x0257, r25
    506e:	80 93 56 02 	sts	0x0256, r24
 	Counter_1 ++;
    5072:	80 91 71 02 	lds	r24, 0x0271
    5076:	90 91 72 02 	lds	r25, 0x0272
    507a:	01 96       	adiw	r24, 0x01	; 1
    507c:	90 93 72 02 	sts	0x0272, r25
    5080:	80 93 71 02 	sts	0x0271, r24
 	Counter_2 ++;
    5084:	80 91 84 02 	lds	r24, 0x0284
    5088:	90 91 85 02 	lds	r25, 0x0285
    508c:	01 96       	adiw	r24, 0x01	; 1
    508e:	90 93 85 02 	sts	0x0285, r25
    5092:	80 93 84 02 	sts	0x0284, r24
  	Counter_3 ++;
    5096:	80 91 82 02 	lds	r24, 0x0282
    509a:	90 91 83 02 	lds	r25, 0x0283
    509e:	01 96       	adiw	r24, 0x01	; 1
    50a0:	90 93 83 02 	sts	0x0283, r25
    50a4:	80 93 82 02 	sts	0x0282, r24
 	
	Counter_For_Brightness_1 ++;
    50a8:	80 91 39 02 	lds	r24, 0x0239
    50ac:	90 91 3a 02 	lds	r25, 0x023A
    50b0:	01 96       	adiw	r24, 0x01	; 1
    50b2:	90 93 3a 02 	sts	0x023A, r25
    50b6:	80 93 39 02 	sts	0x0239, r24
	Counter_For_Brightness_2 ++;
    50ba:	80 91 52 02 	lds	r24, 0x0252
    50be:	90 91 53 02 	lds	r25, 0x0253
    50c2:	01 96       	adiw	r24, 0x01	; 1
    50c4:	90 93 53 02 	sts	0x0253, r25
    50c8:	80 93 52 02 	sts	0x0252, r24
	Counter_For_Brightness_3 ++;
    50cc:	80 91 4e 02 	lds	r24, 0x024E
    50d0:	90 91 4f 02 	lds	r25, 0x024F
    50d4:	01 96       	adiw	r24, 0x01	; 1
    50d6:	90 93 4f 02 	sts	0x024F, r25
    50da:	80 93 4e 02 	sts	0x024E, r24
 	Counter_For_Brightness_4 ++;
    50de:	80 91 7f 02 	lds	r24, 0x027F
    50e2:	90 91 80 02 	lds	r25, 0x0280
    50e6:	01 96       	adiw	r24, 0x01	; 1
    50e8:	90 93 80 02 	sts	0x0280, r25
    50ec:	80 93 7f 02 	sts	0x027F, r24
	
	
	if (Brightness_1 >= 12)
    50f0:	80 91 75 00 	lds	r24, 0x0075
    50f4:	8c 30       	cpi	r24, 0x0C	; 12
    50f6:	30 f0       	brcs	.+12     	; 0x5104 <LED_Blink+0x364>
	{
		Brightness_Flag_1 = 1;
    50f8:	81 e0       	ldi	r24, 0x01	; 1
    50fa:	90 e0       	ldi	r25, 0x00	; 0
    50fc:	90 93 64 02 	sts	0x0264, r25
    5100:	80 93 63 02 	sts	0x0263, r24
	
	
	
	
	/* fading "down" */
	if (Brightness_Flag_1 == 1)
    5104:	80 91 63 02 	lds	r24, 0x0263
    5108:	90 91 64 02 	lds	r25, 0x0264
    510c:	01 97       	sbiw	r24, 0x01	; 1
    510e:	81 f4       	brne	.+32     	; 0x5130 <LED_Blink+0x390>
	{
		if (Counter_For_Brightness_1 == speed)
    5110:	80 91 39 02 	lds	r24, 0x0239
    5114:	90 91 3a 02 	lds	r25, 0x023A
    5118:	80 17       	cp	r24, r16
    511a:	91 07       	cpc	r25, r17
    511c:	49 f4       	brne	.+18     	; 0x5130 <LED_Blink+0x390>
		{
			Counter_For_Brightness_1 = 0;
    511e:	10 92 3a 02 	sts	0x023A, r1
    5122:	10 92 39 02 	sts	0x0239, r1
			Brightness_1 --;
    5126:	80 91 75 00 	lds	r24, 0x0075
    512a:	81 50       	subi	r24, 0x01	; 1
    512c:	80 93 75 00 	sts	0x0075, r24
		}
	}
	
	
	/* fading "up" */
	if (Brightness_Flag_1 == 2)
    5130:	80 91 63 02 	lds	r24, 0x0263
    5134:	90 91 64 02 	lds	r25, 0x0264
    5138:	02 97       	sbiw	r24, 0x02	; 2
    513a:	81 f4       	brne	.+32     	; 0x515c <LED_Blink+0x3bc>
	{
		if (Counter_For_Brightness_1 == speed)
    513c:	80 91 39 02 	lds	r24, 0x0239
    5140:	90 91 3a 02 	lds	r25, 0x023A
    5144:	80 17       	cp	r24, r16
    5146:	91 07       	cpc	r25, r17
    5148:	49 f4       	brne	.+18     	; 0x515c <LED_Blink+0x3bc>
		{
			Counter_For_Brightness_1 = 0;
    514a:	10 92 3a 02 	sts	0x023A, r1
    514e:	10 92 39 02 	sts	0x0239, r1
			Brightness_1 ++;
    5152:	80 91 75 00 	lds	r24, 0x0075
    5156:	8f 5f       	subi	r24, 0xFF	; 255
    5158:	80 93 75 00 	sts	0x0075, r24
		}
	}

	/* PWM routine */
	if (Counter >= 80)
    515c:	80 91 56 02 	lds	r24, 0x0256
    5160:	90 91 57 02 	lds	r25, 0x0257
    5164:	80 35       	cpi	r24, 0x50	; 80
    5166:	91 05       	cpc	r25, r1
    5168:	78 f0       	brcs	.+30     	; 0x5188 <LED_Blink+0x3e8>
	{
		Counter = 0;
    516a:	10 92 57 02 	sts	0x0257, r1
    516e:	10 92 56 02 	sts	0x0256, r1
		
		if (Brightness_1 > 0)
    5172:	80 91 75 00 	lds	r24, 0x0075
    5176:	88 23       	and	r24, r24
    5178:	b9 f0       	breq	.+46     	; 0x51a8 <LED_Blink+0x408>
		{
			com74hc595_setBit(LED_0);			
    517a:	80 91 58 02 	lds	r24, 0x0258
    517e:	90 91 59 02 	lds	r25, 0x0259
    5182:	0e 94 99 01 	call	0x332	; 0x332 <com74hc595_setBit>
    5186:	10 c0       	rjmp	.+32     	; 0x51a8 <LED_Blink+0x408>
		}
	}
	else
	{
		if (Counter >= Brightness_1)
    5188:	20 91 75 00 	lds	r18, 0x0075
    518c:	80 91 56 02 	lds	r24, 0x0256
    5190:	90 91 57 02 	lds	r25, 0x0257
    5194:	30 e0       	ldi	r19, 0x00	; 0
    5196:	82 17       	cp	r24, r18
    5198:	93 07       	cpc	r25, r19
    519a:	30 f0       	brcs	.+12     	; 0x51a8 <LED_Blink+0x408>
		{
			com74hc595_unsetBit(LED_0);
    519c:	80 91 58 02 	lds	r24, 0x0258
    51a0:	90 91 59 02 	lds	r25, 0x0259
    51a4:	0e 94 ae 01 	call	0x35c	; 0x35c <com74hc595_unsetBit>
		}
	}


	if (Brightness_2 >= 12)
    51a8:	80 91 74 00 	lds	r24, 0x0074
    51ac:	8c 30       	cpi	r24, 0x0C	; 12
    51ae:	30 f0       	brcs	.+12     	; 0x51bc <LED_Blink+0x41c>
	{
		Brightness_Flag_2 = 1;
    51b0:	81 e0       	ldi	r24, 0x01	; 1
    51b2:	90 e0       	ldi	r25, 0x00	; 0
    51b4:	90 93 89 02 	sts	0x0289, r25
    51b8:	80 93 88 02 	sts	0x0288, r24
	}	
	
	
	
	/* fading "down" */
	if (Brightness_Flag_2 == 1)
    51bc:	80 91 88 02 	lds	r24, 0x0288
    51c0:	90 91 89 02 	lds	r25, 0x0289
    51c4:	01 97       	sbiw	r24, 0x01	; 1
    51c6:	81 f4       	brne	.+32     	; 0x51e8 <LED_Blink+0x448>
	{
		if (Counter_For_Brightness_2 == speed)
    51c8:	80 91 52 02 	lds	r24, 0x0252
    51cc:	90 91 53 02 	lds	r25, 0x0253
    51d0:	80 17       	cp	r24, r16
    51d2:	91 07       	cpc	r25, r17
    51d4:	49 f4       	brne	.+18     	; 0x51e8 <LED_Blink+0x448>
		{
			Counter_For_Brightness_2 = 0;
    51d6:	10 92 53 02 	sts	0x0253, r1
    51da:	10 92 52 02 	sts	0x0252, r1
			Brightness_2 --;
    51de:	80 91 74 00 	lds	r24, 0x0074
    51e2:	81 50       	subi	r24, 0x01	; 1
    51e4:	80 93 74 00 	sts	0x0074, r24
		}
	}
	
	
	/* fading "up" */
	if (Brightness_Flag_2 == 2)
    51e8:	80 91 88 02 	lds	r24, 0x0288
    51ec:	90 91 89 02 	lds	r25, 0x0289
    51f0:	02 97       	sbiw	r24, 0x02	; 2
    51f2:	81 f4       	brne	.+32     	; 0x5214 <LED_Blink+0x474>
	{
		if (Counter_For_Brightness_2 == speed)
    51f4:	80 91 52 02 	lds	r24, 0x0252
    51f8:	90 91 53 02 	lds	r25, 0x0253
    51fc:	80 17       	cp	r24, r16
    51fe:	91 07       	cpc	r25, r17
    5200:	49 f4       	brne	.+18     	; 0x5214 <LED_Blink+0x474>
		{
			Counter_For_Brightness_2 = 0;
    5202:	10 92 53 02 	sts	0x0253, r1
    5206:	10 92 52 02 	sts	0x0252, r1
			Brightness_2 ++;
    520a:	80 91 74 00 	lds	r24, 0x0074
    520e:	8f 5f       	subi	r24, 0xFF	; 255
    5210:	80 93 74 00 	sts	0x0074, r24
		}
	}

	/* PWM-routine */
	if (Counter_1 >= 80)
    5214:	80 91 71 02 	lds	r24, 0x0271
    5218:	90 91 72 02 	lds	r25, 0x0272
    521c:	80 35       	cpi	r24, 0x50	; 80
    521e:	91 05       	cpc	r25, r1
    5220:	78 f0       	brcs	.+30     	; 0x5240 <LED_Blink+0x4a0>
	{
		Counter_1 = 0;
    5222:	10 92 72 02 	sts	0x0272, r1
    5226:	10 92 71 02 	sts	0x0271, r1
		
		if (Brightness_2 > 0)
    522a:	80 91 74 00 	lds	r24, 0x0074
    522e:	88 23       	and	r24, r24
    5230:	b9 f0       	breq	.+46     	; 0x5260 <LED_Blink+0x4c0>
		{
			com74hc595_setBit(LED_1);
    5232:	80 91 4a 02 	lds	r24, 0x024A
    5236:	90 91 4b 02 	lds	r25, 0x024B
    523a:	0e 94 99 01 	call	0x332	; 0x332 <com74hc595_setBit>
    523e:	10 c0       	rjmp	.+32     	; 0x5260 <LED_Blink+0x4c0>
		}
	}
	else
	{
		if (Counter_1 >= Brightness_2)
    5240:	20 91 74 00 	lds	r18, 0x0074
    5244:	80 91 71 02 	lds	r24, 0x0271
    5248:	90 91 72 02 	lds	r25, 0x0272
    524c:	30 e0       	ldi	r19, 0x00	; 0
    524e:	82 17       	cp	r24, r18
    5250:	93 07       	cpc	r25, r19
    5252:	30 f0       	brcs	.+12     	; 0x5260 <LED_Blink+0x4c0>
		{
			com74hc595_unsetBit(LED_1);
    5254:	80 91 4a 02 	lds	r24, 0x024A
    5258:	90 91 4b 02 	lds	r25, 0x024B
    525c:	0e 94 ae 01 	call	0x35c	; 0x35c <com74hc595_unsetBit>
		}
	}

	
	if (Brightness_3 >= 12)
    5260:	80 91 73 00 	lds	r24, 0x0073
    5264:	8c 30       	cpi	r24, 0x0C	; 12
    5266:	30 f0       	brcs	.+12     	; 0x5274 <LED_Blink+0x4d4>
	{
		Brightness_flag_3 = 1;
    5268:	81 e0       	ldi	r24, 0x01	; 1
    526a:	90 e0       	ldi	r25, 0x00	; 0
    526c:	90 93 8f 02 	sts	0x028F, r25
    5270:	80 93 8e 02 	sts	0x028E, r24
	}

	
	/* fading "down" */
	if (Brightness_flag_3 == 1)
    5274:	80 91 8e 02 	lds	r24, 0x028E
    5278:	90 91 8f 02 	lds	r25, 0x028F
    527c:	01 97       	sbiw	r24, 0x01	; 1
    527e:	81 f4       	brne	.+32     	; 0x52a0 <LED_Blink+0x500>
	{
		if (Counter_For_Brightness_3 == speed)
    5280:	80 91 4e 02 	lds	r24, 0x024E
    5284:	90 91 4f 02 	lds	r25, 0x024F
    5288:	80 17       	cp	r24, r16
    528a:	91 07       	cpc	r25, r17
    528c:	49 f4       	brne	.+18     	; 0x52a0 <LED_Blink+0x500>
		{
			Counter_For_Brightness_3 = 0;
    528e:	10 92 4f 02 	sts	0x024F, r1
    5292:	10 92 4e 02 	sts	0x024E, r1
			Brightness_3 --;
    5296:	80 91 73 00 	lds	r24, 0x0073
    529a:	81 50       	subi	r24, 0x01	; 1
    529c:	80 93 73 00 	sts	0x0073, r24
		}
	}
	
	
	/* fading "up" */
	if (Brightness_flag_3 == 2)
    52a0:	80 91 8e 02 	lds	r24, 0x028E
    52a4:	90 91 8f 02 	lds	r25, 0x028F
    52a8:	02 97       	sbiw	r24, 0x02	; 2
    52aa:	81 f4       	brne	.+32     	; 0x52cc <LED_Blink+0x52c>
	{
		if (Counter_For_Brightness_3 == speed)
    52ac:	80 91 4e 02 	lds	r24, 0x024E
    52b0:	90 91 4f 02 	lds	r25, 0x024F
    52b4:	80 17       	cp	r24, r16
    52b6:	91 07       	cpc	r25, r17
    52b8:	49 f4       	brne	.+18     	; 0x52cc <LED_Blink+0x52c>
		{
			Counter_For_Brightness_3 = 0;
    52ba:	10 92 4f 02 	sts	0x024F, r1
    52be:	10 92 4e 02 	sts	0x024E, r1
			Brightness_3 ++;
    52c2:	80 91 73 00 	lds	r24, 0x0073
    52c6:	8f 5f       	subi	r24, 0xFF	; 255
    52c8:	80 93 73 00 	sts	0x0073, r24
		}
	}

	/* PWM routine */
	if (Counter_2 >= 80)
    52cc:	80 91 84 02 	lds	r24, 0x0284
    52d0:	90 91 85 02 	lds	r25, 0x0285
    52d4:	80 35       	cpi	r24, 0x50	; 80
    52d6:	91 05       	cpc	r25, r1
    52d8:	78 f0       	brcs	.+30     	; 0x52f8 <LED_Blink+0x558>
	{
		Counter_2 = 0;
    52da:	10 92 85 02 	sts	0x0285, r1
    52de:	10 92 84 02 	sts	0x0284, r1
		
		if (Brightness_3 > 0)
    52e2:	80 91 73 00 	lds	r24, 0x0073
    52e6:	88 23       	and	r24, r24
    52e8:	b9 f0       	breq	.+46     	; 0x5318 <LED_Blink+0x578>
		{
			com74hc595_setBit(LED_2);
    52ea:	80 91 86 02 	lds	r24, 0x0286
    52ee:	90 91 87 02 	lds	r25, 0x0287
    52f2:	0e 94 99 01 	call	0x332	; 0x332 <com74hc595_setBit>
    52f6:	10 c0       	rjmp	.+32     	; 0x5318 <LED_Blink+0x578>
		}
	}
	else
	{
		if (Counter_2 >= Brightness_3)
    52f8:	20 91 73 00 	lds	r18, 0x0073
    52fc:	80 91 84 02 	lds	r24, 0x0284
    5300:	90 91 85 02 	lds	r25, 0x0285
    5304:	30 e0       	ldi	r19, 0x00	; 0
    5306:	82 17       	cp	r24, r18
    5308:	93 07       	cpc	r25, r19
    530a:	30 f0       	brcs	.+12     	; 0x5318 <LED_Blink+0x578>
		{
			com74hc595_unsetBit(LED_2);
    530c:	80 91 86 02 	lds	r24, 0x0286
    5310:	90 91 87 02 	lds	r25, 0x0287
    5314:	0e 94 ae 01 	call	0x35c	; 0x35c <com74hc595_unsetBit>
		}
	}


	
	if (Brightness_4 >= 12)
    5318:	80 91 72 00 	lds	r24, 0x0072
    531c:	8c 30       	cpi	r24, 0x0C	; 12
    531e:	30 f0       	brcs	.+12     	; 0x532c <LED_Blink+0x58c>
	{
		Brightness_flag_4 = 1;
    5320:	81 e0       	ldi	r24, 0x01	; 1
    5322:	90 e0       	ldi	r25, 0x00	; 0
    5324:	90 93 6a 02 	sts	0x026A, r25
    5328:	80 93 69 02 	sts	0x0269, r24
	}
	
	
	
	/* fading "down" */
	if (Brightness_flag_4 == 1)
    532c:	80 91 69 02 	lds	r24, 0x0269
    5330:	90 91 6a 02 	lds	r25, 0x026A
    5334:	01 97       	sbiw	r24, 0x01	; 1
    5336:	81 f4       	brne	.+32     	; 0x5358 <LED_Blink+0x5b8>
	{
		if (Counter_For_Brightness_4 >= speed)
    5338:	80 91 7f 02 	lds	r24, 0x027F
    533c:	90 91 80 02 	lds	r25, 0x0280
    5340:	80 17       	cp	r24, r16
    5342:	91 07       	cpc	r25, r17
    5344:	48 f0       	brcs	.+18     	; 0x5358 <LED_Blink+0x5b8>
		{
			Counter_For_Brightness_4 = 0;
    5346:	10 92 80 02 	sts	0x0280, r1
    534a:	10 92 7f 02 	sts	0x027F, r1
			Brightness_4 --;
    534e:	80 91 72 00 	lds	r24, 0x0072
    5352:	81 50       	subi	r24, 0x01	; 1
    5354:	80 93 72 00 	sts	0x0072, r24
		}
	}
	
	
	/* fading "up" */
	if (Brightness_flag_4 == 2)
    5358:	80 91 69 02 	lds	r24, 0x0269
    535c:	90 91 6a 02 	lds	r25, 0x026A
    5360:	02 97       	sbiw	r24, 0x02	; 2
    5362:	81 f4       	brne	.+32     	; 0x5384 <LED_Blink+0x5e4>
	{
		if (Counter_For_Brightness_4 >= speed)
    5364:	80 91 7f 02 	lds	r24, 0x027F
    5368:	90 91 80 02 	lds	r25, 0x0280
    536c:	80 17       	cp	r24, r16
    536e:	91 07       	cpc	r25, r17
    5370:	48 f0       	brcs	.+18     	; 0x5384 <LED_Blink+0x5e4>
		{
			Counter_For_Brightness_4 = 0;
    5372:	10 92 80 02 	sts	0x0280, r1
    5376:	10 92 7f 02 	sts	0x027F, r1
			Brightness_4 ++;
    537a:	80 91 72 00 	lds	r24, 0x0072
    537e:	8f 5f       	subi	r24, 0xFF	; 255
    5380:	80 93 72 00 	sts	0x0072, r24
		}
	}

	/* PWM routine */
	if (Counter_3 >= 50)
    5384:	80 91 82 02 	lds	r24, 0x0282
    5388:	90 91 83 02 	lds	r25, 0x0283
    538c:	c2 97       	sbiw	r24, 0x32	; 50
    538e:	78 f0       	brcs	.+30     	; 0x53ae <LED_Blink+0x60e>
	{
		Counter_3 = 0;
    5390:	10 92 83 02 	sts	0x0283, r1
    5394:	10 92 82 02 	sts	0x0282, r1
		
		if (Brightness_4 > 0)
    5398:	80 91 72 00 	lds	r24, 0x0072
    539c:	88 23       	and	r24, r24
    539e:	b9 f0       	breq	.+46     	; 0x53ce <LED_Blink+0x62e>
		{
			com74hc595_setBit(LED_3);
    53a0:	80 91 34 02 	lds	r24, 0x0234
    53a4:	90 91 35 02 	lds	r25, 0x0235
    53a8:	0e 94 99 01 	call	0x332	; 0x332 <com74hc595_setBit>
    53ac:	10 c0       	rjmp	.+32     	; 0x53ce <LED_Blink+0x62e>
		}
	}
	else
	{
		if (Counter_3 >= Brightness_4)
    53ae:	20 91 72 00 	lds	r18, 0x0072
    53b2:	80 91 82 02 	lds	r24, 0x0282
    53b6:	90 91 83 02 	lds	r25, 0x0283
    53ba:	30 e0       	ldi	r19, 0x00	; 0
    53bc:	82 17       	cp	r24, r18
    53be:	93 07       	cpc	r25, r19
    53c0:	30 f0       	brcs	.+12     	; 0x53ce <LED_Blink+0x62e>
		{
			com74hc595_unsetBit(LED_3);
    53c2:	80 91 34 02 	lds	r24, 0x0234
    53c6:	90 91 35 02 	lds	r25, 0x0235
    53ca:	0e 94 ae 01 	call	0x35c	; 0x35c <com74hc595_unsetBit>
		}
	}
	
	com74hc595_out();
    53ce:	0e 94 e9 01 	call	0x3d2	; 0x3d2 <com74hc595_out>
	
			
	if (Brightness_1 == 0)
    53d2:	80 91 75 00 	lds	r24, 0x0075
    53d6:	81 11       	cpse	r24, r1
    53d8:	19 c0       	rjmp	.+50     	; 0x540c <LED_Blink+0x66c>
	{
		Brightness_1 = 1;
    53da:	81 e0       	ldi	r24, 0x01	; 1
    53dc:	80 93 75 00 	sts	0x0075, r24
		Brightness_Flag_1 = 2;
    53e0:	82 e0       	ldi	r24, 0x02	; 2
    53e2:	90 e0       	ldi	r25, 0x00	; 0
    53e4:	90 93 64 02 	sts	0x0264, r25
    53e8:	80 93 63 02 	sts	0x0263, r24
		com74hc595_unsetBit(LED_0);
    53ec:	80 91 58 02 	lds	r24, 0x0258
    53f0:	90 91 59 02 	lds	r25, 0x0259
    53f4:	0e 94 ae 01 	call	0x35c	; 0x35c <com74hc595_unsetBit>
		LED_0 = (rand() % 143)+0;
    53f8:	0e 94 1e 36 	call	0x6c3c	; 0x6c3c <rand>
    53fc:	6f e8       	ldi	r22, 0x8F	; 143
    53fe:	70 e0       	ldi	r23, 0x00	; 0
    5400:	0e 94 a2 35 	call	0x6b44	; 0x6b44 <__divmodhi4>
    5404:	90 93 59 02 	sts	0x0259, r25
    5408:	80 93 58 02 	sts	0x0258, r24
	}
	
	if (Brightness_2 == 0)
    540c:	80 91 74 00 	lds	r24, 0x0074
    5410:	81 11       	cpse	r24, r1
    5412:	19 c0       	rjmp	.+50     	; 0x5446 <LED_Blink+0x6a6>
	{
		Brightness_2 = 1;
    5414:	81 e0       	ldi	r24, 0x01	; 1
    5416:	80 93 74 00 	sts	0x0074, r24
		Brightness_Flag_2 = 2;
    541a:	82 e0       	ldi	r24, 0x02	; 2
    541c:	90 e0       	ldi	r25, 0x00	; 0
    541e:	90 93 89 02 	sts	0x0289, r25
    5422:	80 93 88 02 	sts	0x0288, r24
		com74hc595_unsetBit(LED_1);
    5426:	80 91 4a 02 	lds	r24, 0x024A
    542a:	90 91 4b 02 	lds	r25, 0x024B
    542e:	0e 94 ae 01 	call	0x35c	; 0x35c <com74hc595_unsetBit>
		LED_1 = (rand() % 143)+0;
    5432:	0e 94 1e 36 	call	0x6c3c	; 0x6c3c <rand>
    5436:	6f e8       	ldi	r22, 0x8F	; 143
    5438:	70 e0       	ldi	r23, 0x00	; 0
    543a:	0e 94 a2 35 	call	0x6b44	; 0x6b44 <__divmodhi4>
    543e:	90 93 4b 02 	sts	0x024B, r25
    5442:	80 93 4a 02 	sts	0x024A, r24
	}

	if (Brightness_3 == 0)
    5446:	80 91 73 00 	lds	r24, 0x0073
    544a:	81 11       	cpse	r24, r1
    544c:	19 c0       	rjmp	.+50     	; 0x5480 <LED_Blink+0x6e0>
	{
		Brightness_3 = 1;
    544e:	81 e0       	ldi	r24, 0x01	; 1
    5450:	80 93 73 00 	sts	0x0073, r24
		Brightness_flag_3 = 2;
    5454:	82 e0       	ldi	r24, 0x02	; 2
    5456:	90 e0       	ldi	r25, 0x00	; 0
    5458:	90 93 8f 02 	sts	0x028F, r25
    545c:	80 93 8e 02 	sts	0x028E, r24
		com74hc595_unsetBit(LED_2);
    5460:	80 91 86 02 	lds	r24, 0x0286
    5464:	90 91 87 02 	lds	r25, 0x0287
    5468:	0e 94 ae 01 	call	0x35c	; 0x35c <com74hc595_unsetBit>
		LED_2 = (rand() % 143)+0;
    546c:	0e 94 1e 36 	call	0x6c3c	; 0x6c3c <rand>
    5470:	6f e8       	ldi	r22, 0x8F	; 143
    5472:	70 e0       	ldi	r23, 0x00	; 0
    5474:	0e 94 a2 35 	call	0x6b44	; 0x6b44 <__divmodhi4>
    5478:	90 93 87 02 	sts	0x0287, r25
    547c:	80 93 86 02 	sts	0x0286, r24
	}
	
	if (Brightness_4 == 0)
    5480:	80 91 72 00 	lds	r24, 0x0072
    5484:	81 11       	cpse	r24, r1
    5486:	19 c0       	rjmp	.+50     	; 0x54ba <LED_Blink+0x71a>
	{
		Brightness_4 = 1;
    5488:	81 e0       	ldi	r24, 0x01	; 1
    548a:	80 93 72 00 	sts	0x0072, r24
		Brightness_flag_4 = 2;
    548e:	82 e0       	ldi	r24, 0x02	; 2
    5490:	90 e0       	ldi	r25, 0x00	; 0
    5492:	90 93 6a 02 	sts	0x026A, r25
    5496:	80 93 69 02 	sts	0x0269, r24
		com74hc595_unsetBit(LED_3);
    549a:	80 91 34 02 	lds	r24, 0x0234
    549e:	90 91 35 02 	lds	r25, 0x0235
    54a2:	0e 94 ae 01 	call	0x35c	; 0x35c <com74hc595_unsetBit>
		LED_3 = (rand() % 143)+0;
    54a6:	0e 94 1e 36 	call	0x6c3c	; 0x6c3c <rand>
    54aa:	6f e8       	ldi	r22, 0x8F	; 143
    54ac:	70 e0       	ldi	r23, 0x00	; 0
    54ae:	0e 94 a2 35 	call	0x6b44	; 0x6b44 <__divmodhi4>
    54b2:	90 93 35 02 	sts	0x0235, r25
    54b6:	80 93 34 02 	sts	0x0234, r24
	}
		
	
}
    54ba:	df 91       	pop	r29
    54bc:	cf 91       	pop	r28
    54be:	1f 91       	pop	r17
    54c0:	0f 91       	pop	r16
    54c2:	08 95       	ret

000054c4 <Average_from_Accu_Supply>:

/* form the Average from Accu Supply (ADC) */ 
void Average_from_Accu_Supply(void)
{
 	/* Ausleseroutine des ADC-Wertes des Akkus alle 1,5 s */
	if (Counter_For_Reading_ADC >= 100)
    54c4:	80 91 5d 02 	lds	r24, 0x025D
    54c8:	84 36       	cpi	r24, 0x64	; 100
    54ca:	38 f0       	brcs	.+14     	; 0x54da <Average_from_Accu_Supply+0x16>
	{
		Supply_ADC_Value = read_ADC(7);	
    54cc:	87 e0       	ldi	r24, 0x07	; 7
    54ce:	0e 94 11 02 	call	0x422	; 0x422 <read_ADC>
    54d2:	90 93 ef 01 	sts	0x01EF, r25
    54d6:	80 93 ee 01 	sts	0x01EE, r24
    54da:	08 95       	ret

000054dc <check_Accu>:

}

/* check Accu live */
void check_Accu(void)
{
    54dc:	af 92       	push	r10
    54de:	bf 92       	push	r11
    54e0:	df 92       	push	r13
    54e2:	ef 92       	push	r14
    54e4:	ff 92       	push	r15
    54e6:	0f 93       	push	r16
    54e8:	1f 93       	push	r17
    54ea:	cf 93       	push	r28
    54ec:	df 93       	push	r29
    54ee:	cd b7       	in	r28, 0x3d	; 61
    54f0:	de b7       	in	r29, 0x3e	; 62
    54f2:	2d 97       	sbiw	r28, 0x0d	; 13
    54f4:	0f b6       	in	r0, 0x3f	; 63
    54f6:	f8 94       	cli
    54f8:	de bf       	out	0x3e, r29	; 62
    54fa:	0f be       	out	0x3f, r0	; 63
    54fc:	cd bf       	out	0x3d, r28	; 61
	
	/* read the Supply Voltage from the Accu */	
	Average_from_Accu_Supply();
    54fe:	0e 94 62 2a 	call	0x54c4	; 0x54c4 <Average_from_Accu_Supply>
	
	
	if (!(ACCU_IS_CHARGING))
    5502:	ce 9b       	sbis	0x19, 6	; 25
    5504:	b6 c0       	rjmp	.+364    	; 0x5672 <check_Accu+0x196>
	{		
		if (Supply_ADC_Value <= 710)
    5506:	80 91 ee 01 	lds	r24, 0x01EE
    550a:	90 91 ef 01 	lds	r25, 0x01EF
    550e:	87 3c       	cpi	r24, 0xC7	; 199
    5510:	92 40       	sbci	r25, 0x02	; 2
    5512:	08 f0       	brcs	.+2      	; 0x5516 <check_Accu+0x3a>
    5514:	ae c0       	rjmp	.+348    	; 0x5672 <check_Accu+0x196>
		{
			DISABLE_25ms_ISR;
    5516:	89 b7       	in	r24, 0x39	; 57
    5518:	8f 7e       	andi	r24, 0xEF	; 239
    551a:	89 bf       	out	0x39, r24	; 57
 			all_LED_OFF();		
    551c:	0e 94 5a 05 	call	0xab4	; 0xab4 <all_LED_OFF>
 			Counter_For_Display = 0;	
    5520:	10 92 66 02 	sts	0x0266, r1
    5524:	10 92 65 02 	sts	0x0265, r1
 			Blinking_Accu_Symbol = 0;	
    5528:	10 92 31 02 	sts	0x0231, r1
    552c:	10 92 30 02 	sts	0x0230, r1
			Display_a_Character(65);	
    5530:	81 e4       	ldi	r24, 0x41	; 65
    5532:	0e 94 f3 04 	call	0x9e6	; 0x9e6 <Display_a_Character>
					Display_a_Character(65);
				}
				/* leave while, if accu is charging */
				if (ACCU_IS_CHARGING)
				{
					Supply_ADC_Value = 900;
    5536:	0f 2e       	mov	r0, r31
    5538:	f4 e8       	ldi	r31, 0x84	; 132
    553a:	ef 2e       	mov	r14, r31
    553c:	f3 e0       	ldi	r31, 0x03	; 3
    553e:	ff 2e       	mov	r15, r31
    5540:	f0 2d       	mov	r31, r0
				{
					DISABLE_25ms_ISR;
					all_LED_OFF();
					clear_screen();
					
					char s[] = " save energy";
    5542:	0f 2e       	mov	r0, r31
    5544:	fd e0       	ldi	r31, 0x0D	; 13
    5546:	df 2e       	mov	r13, r31
    5548:	f0 2d       	mov	r31, r0
    554a:	8e 01       	movw	r16, r28
    554c:	0f 5f       	subi	r16, 0xFF	; 255
    554e:	1f 4f       	sbci	r17, 0xFF	; 255
 			Blinking_Accu_Symbol = 0;	
			Display_a_Character(65);	
		
			/* generating a blink effect when the Accu has "3,35V" Power Supply */			
		
			while (Supply_ADC_Value <= 800)
    5550:	7b c0       	rjmp	.+246    	; 0x5648 <check_Accu+0x16c>
			{
				Counter_For_Reading_ADC ++;
    5552:	80 91 5d 02 	lds	r24, 0x025D
    5556:	8f 5f       	subi	r24, 0xFF	; 255
    5558:	80 93 5d 02 	sts	0x025D, r24
				Average_from_Accu_Supply();
    555c:	0e 94 62 2a 	call	0x54c4	; 0x54c4 <Average_from_Accu_Supply>
				Blinking_Accu_Symbol ++;
    5560:	80 91 30 02 	lds	r24, 0x0230
    5564:	90 91 31 02 	lds	r25, 0x0231
    5568:	01 96       	adiw	r24, 0x01	; 1
    556a:	90 93 31 02 	sts	0x0231, r25
    556e:	80 93 30 02 	sts	0x0230, r24
    5572:	8f e9       	ldi	r24, 0x9F	; 159
    5574:	9f e0       	ldi	r25, 0x0F	; 15
    5576:	01 97       	sbiw	r24, 0x01	; 1
    5578:	f1 f7       	brne	.-4      	; 0x5576 <check_Accu+0x9a>
    557a:	00 c0       	rjmp	.+0      	; 0x557c <check_Accu+0xa0>
    557c:	00 00       	nop
				_delay_ms(1);
			
				if (Blinking_Accu_Symbol == 300)
    557e:	80 91 30 02 	lds	r24, 0x0230
    5582:	90 91 31 02 	lds	r25, 0x0231
    5586:	8c 32       	cpi	r24, 0x2C	; 44
    5588:	91 40       	sbci	r25, 0x01	; 1
    558a:	11 f4       	brne	.+4      	; 0x5590 <check_Accu+0xb4>
				{
					clear_screen();
    558c:	0e 94 07 03 	call	0x60e	; 0x60e <clear_screen>
    5590:	8f e9       	ldi	r24, 0x9F	; 159
    5592:	9f e0       	ldi	r25, 0x0F	; 15
    5594:	01 97       	sbiw	r24, 0x01	; 1
    5596:	f1 f7       	brne	.-4      	; 0x5594 <check_Accu+0xb8>
    5598:	00 c0       	rjmp	.+0      	; 0x559a <check_Accu+0xbe>
    559a:	00 00       	nop
				}
				_delay_ms(1);
				if (Blinking_Accu_Symbol == 600)
    559c:	80 91 30 02 	lds	r24, 0x0230
    55a0:	90 91 31 02 	lds	r25, 0x0231
    55a4:	88 35       	cpi	r24, 0x58	; 88
    55a6:	92 40       	sbci	r25, 0x02	; 2
    55a8:	39 f4       	brne	.+14     	; 0x55b8 <check_Accu+0xdc>
				{
					Blinking_Accu_Symbol = 0;
    55aa:	10 92 31 02 	sts	0x0231, r1
    55ae:	10 92 30 02 	sts	0x0230, r1
					Display_a_Character(65);
    55b2:	81 e4       	ldi	r24, 0x41	; 65
    55b4:	0e 94 f3 04 	call	0x9e6	; 0x9e6 <Display_a_Character>
				}
				/* leave while, if accu is charging */
				if (ACCU_IS_CHARGING)
    55b8:	ce 99       	sbic	0x19, 6	; 25
    55ba:	04 c0       	rjmp	.+8      	; 0x55c4 <check_Accu+0xe8>
				{
					Supply_ADC_Value = 900;
    55bc:	f0 92 ef 01 	sts	0x01EF, r15
    55c0:	e0 92 ee 01 	sts	0x01EE, r14
				}		
				// sleep, when battery has "3,32V" Power Supply
				if (Supply_ADC_Value <= 700)
    55c4:	80 91 ee 01 	lds	r24, 0x01EE
    55c8:	90 91 ef 01 	lds	r25, 0x01EF
    55cc:	8d 3b       	cpi	r24, 0xBD	; 189
    55ce:	92 40       	sbci	r25, 0x02	; 2
    55d0:	d8 f5       	brcc	.+118    	; 0x5648 <check_Accu+0x16c>
				{
					DISABLE_25ms_ISR;
    55d2:	89 b7       	in	r24, 0x39	; 57
    55d4:	8f 7e       	andi	r24, 0xEF	; 239
    55d6:	89 bf       	out	0x39, r24	; 57
					all_LED_OFF();
    55d8:	0e 94 5a 05 	call	0xab4	; 0xab4 <all_LED_OFF>
					clear_screen();
    55dc:	0e 94 07 03 	call	0x60e	; 0x60e <clear_screen>
					
					char s[] = " save energy";
    55e0:	e7 ea       	ldi	r30, 0xA7	; 167
    55e2:	f0 e0       	ldi	r31, 0x00	; 0
    55e4:	d8 01       	movw	r26, r16
    55e6:	8d 2d       	mov	r24, r13
    55e8:	01 90       	ld	r0, Z+
    55ea:	0d 92       	st	X+, r0
    55ec:	8a 95       	dec	r24
    55ee:	e1 f7       	brne	.-8      	; 0x55e8 <check_Accu+0x10c>
					
					for (uint16_t x=0; x<(strlen(s)*8); x++)
    55f0:	a1 2c       	mov	r10, r1
    55f2:	b1 2c       	mov	r11, r1
    55f4:	10 c0       	rjmp	.+32     	; 0x5616 <check_Accu+0x13a>
					{
						DisplayString(x, s);
    55f6:	b8 01       	movw	r22, r16
    55f8:	c5 01       	movw	r24, r10
    55fa:	0e 94 4f 04 	call	0x89e	; 0x89e <DisplayString>
    55fe:	8f ef       	ldi	r24, 0xFF	; 255
    5600:	97 ee       	ldi	r25, 0xE7	; 231
    5602:	23 e0       	ldi	r18, 0x03	; 3
    5604:	81 50       	subi	r24, 0x01	; 1
    5606:	90 40       	sbci	r25, 0x00	; 0
    5608:	20 40       	sbci	r18, 0x00	; 0
    560a:	e1 f7       	brne	.-8      	; 0x5604 <check_Accu+0x128>
    560c:	00 c0       	rjmp	.+0      	; 0x560e <check_Accu+0x132>
    560e:	00 00       	nop
					all_LED_OFF();
					clear_screen();
					
					char s[] = " save energy";
					
					for (uint16_t x=0; x<(strlen(s)*8); x++)
    5610:	8f ef       	ldi	r24, 0xFF	; 255
    5612:	a8 1a       	sub	r10, r24
    5614:	b8 0a       	sbc	r11, r24
    5616:	f8 01       	movw	r30, r16
    5618:	01 90       	ld	r0, Z+
    561a:	00 20       	and	r0, r0
    561c:	e9 f7       	brne	.-6      	; 0x5618 <check_Accu+0x13c>
    561e:	31 97       	sbiw	r30, 0x01	; 1
    5620:	e0 1b       	sub	r30, r16
    5622:	f1 0b       	sbc	r31, r17
    5624:	cf 01       	movw	r24, r30
    5626:	88 0f       	add	r24, r24
    5628:	99 1f       	adc	r25, r25
    562a:	88 0f       	add	r24, r24
    562c:	99 1f       	adc	r25, r25
    562e:	88 0f       	add	r24, r24
    5630:	99 1f       	adc	r25, r25
    5632:	a8 16       	cp	r10, r24
    5634:	b9 06       	cpc	r11, r25
    5636:	f8 f2       	brcs	.-66     	; 0x55f6 <check_Accu+0x11a>
					{
						DisplayString(x, s);
						_delay_ms(80);
					}
					ENABLE_25ms_ISR;				
    5638:	89 b7       	in	r24, 0x39	; 57
    563a:	80 61       	ori	r24, 0x10	; 16
    563c:	89 bf       	out	0x39, r24	; 57
					go_sleep();
    563e:	0e 94 5d 07 	call	0xeba	; 0xeba <go_sleep>
					DISABLE_25ms_ISR;
    5642:	89 b7       	in	r24, 0x39	; 57
    5644:	8f 7e       	andi	r24, 0xEF	; 239
    5646:	89 bf       	out	0x39, r24	; 57
 			Blinking_Accu_Symbol = 0;	
			Display_a_Character(65);	
		
			/* generating a blink effect when the Accu has "3,35V" Power Supply */			
		
			while (Supply_ADC_Value <= 800)
    5648:	80 91 ee 01 	lds	r24, 0x01EE
    564c:	90 91 ef 01 	lds	r25, 0x01EF
    5650:	81 32       	cpi	r24, 0x21	; 33
    5652:	93 40       	sbci	r25, 0x03	; 3
    5654:	08 f4       	brcc	.+2      	; 0x5658 <check_Accu+0x17c>
    5656:	7d cf       	rjmp	.-262    	; 0x5552 <check_Accu+0x76>
					DISABLE_25ms_ISR;
				}
					
			}
		
		clear_screen();	
    5658:	0e 94 07 03 	call	0x60e	; 0x60e <clear_screen>
		Counter_For_Display = 0;
    565c:	10 92 66 02 	sts	0x0266, r1
    5660:	10 92 65 02 	sts	0x0265, r1
		Blinking_Accu_Symbol = 0;
    5664:	10 92 31 02 	sts	0x0231, r1
    5668:	10 92 30 02 	sts	0x0230, r1
		ENABLE_25ms_ISR;
    566c:	89 b7       	in	r24, 0x39	; 57
    566e:	80 61       	ori	r24, 0x10	; 16
    5670:	89 bf       	out	0x39, r24	; 57
	}




	if (ACCU_IS_CHARGING)
    5672:	ce 99       	sbic	0x19, 6	; 25
    5674:	46 c0       	rjmp	.+140    	; 0x5702 <check_Accu+0x226>
	{				
		counter_for_change_accu_symbol ++;
    5676:	80 91 42 02 	lds	r24, 0x0242
    567a:	90 91 43 02 	lds	r25, 0x0243
    567e:	01 96       	adiw	r24, 0x01	; 1
    5680:	90 93 43 02 	sts	0x0243, r25
    5684:	80 93 42 02 	sts	0x0242, r24
		if (counter_for_change_accu_symbol == 10)
    5688:	80 91 42 02 	lds	r24, 0x0242
    568c:	90 91 43 02 	lds	r25, 0x0243
    5690:	0a 97       	sbiw	r24, 0x0a	; 10
    5692:	19 f4       	brne	.+6      	; 0x569a <check_Accu+0x1be>
		{
			Display_a_Character(65);
    5694:	81 e4       	ldi	r24, 0x41	; 65
    5696:	0e 94 f3 04 	call	0x9e6	; 0x9e6 <Display_a_Character>
		}
		if (counter_for_change_accu_symbol == 20)
    569a:	80 91 42 02 	lds	r24, 0x0242
    569e:	90 91 43 02 	lds	r25, 0x0243
    56a2:	44 97       	sbiw	r24, 0x14	; 20
    56a4:	19 f4       	brne	.+6      	; 0x56ac <check_Accu+0x1d0>
		{
			Display_a_Character(66);
    56a6:	82 e4       	ldi	r24, 0x42	; 66
    56a8:	0e 94 f3 04 	call	0x9e6	; 0x9e6 <Display_a_Character>
		}
		if (counter_for_change_accu_symbol == 30)
    56ac:	80 91 42 02 	lds	r24, 0x0242
    56b0:	90 91 43 02 	lds	r25, 0x0243
    56b4:	4e 97       	sbiw	r24, 0x1e	; 30
    56b6:	19 f4       	brne	.+6      	; 0x56be <check_Accu+0x1e2>
		{
			Display_a_Character(67);
    56b8:	83 e4       	ldi	r24, 0x43	; 67
    56ba:	0e 94 f3 04 	call	0x9e6	; 0x9e6 <Display_a_Character>
		}
		if (counter_for_change_accu_symbol == 40)
    56be:	80 91 42 02 	lds	r24, 0x0242
    56c2:	90 91 43 02 	lds	r25, 0x0243
    56c6:	88 97       	sbiw	r24, 0x28	; 40
    56c8:	19 f4       	brne	.+6      	; 0x56d0 <check_Accu+0x1f4>
		{
			Display_a_Character(68);
    56ca:	84 e4       	ldi	r24, 0x44	; 68
    56cc:	0e 94 f3 04 	call	0x9e6	; 0x9e6 <Display_a_Character>
		}
		if (counter_for_change_accu_symbol >= 50)
    56d0:	80 91 42 02 	lds	r24, 0x0242
    56d4:	90 91 43 02 	lds	r25, 0x0243
    56d8:	c2 97       	sbiw	r24, 0x32	; 50
    56da:	38 f0       	brcs	.+14     	; 0x56ea <check_Accu+0x20e>
		{
			Display_a_Character(69);
    56dc:	85 e4       	ldi	r24, 0x45	; 69
    56de:	0e 94 f3 04 	call	0x9e6	; 0x9e6 <Display_a_Character>
			counter_for_change_accu_symbol = 0;
    56e2:	10 92 43 02 	sts	0x0243, r1
    56e6:	10 92 42 02 	sts	0x0242, r1
		}
			
		Sleep_Counter = 0;
    56ea:	10 92 7b 02 	sts	0x027B, r1
    56ee:	10 92 7c 02 	sts	0x027C, r1
    56f2:	10 92 7d 02 	sts	0x027D, r1
    56f6:	10 92 7e 02 	sts	0x027E, r1
		Counter_For_Display = 0;			
    56fa:	10 92 66 02 	sts	0x0266, r1
    56fe:	10 92 65 02 	sts	0x0265, r1
	}// Ende if		
	

	
	
	if (ACCU_FULL)
    5702:	cd 99       	sbic	0x19, 5	; 25
    5704:	5f c0       	rjmp	.+190    	; 0x57c4 <check_Accu+0x2e8>
	{
		DISABLE_25ms_ISR;
    5706:	89 b7       	in	r24, 0x39	; 57
    5708:	8f 7e       	andi	r24, 0xEF	; 239
    570a:	89 bf       	out	0x39, r24	; 57
		all_LED_OFF();
    570c:	0e 94 5a 05 	call	0xab4	; 0xab4 <all_LED_OFF>
		Counter_For_Display = 0;
    5710:	10 92 66 02 	sts	0x0266, r1
    5714:	10 92 65 02 	sts	0x0265, r1
		Blinking_Accu_Symbol = 0;
    5718:	10 92 31 02 	sts	0x0231, r1
    571c:	10 92 30 02 	sts	0x0230, r1
		Display_a_Character(69);
    5720:	85 e4       	ldi	r24, 0x45	; 69
    5722:	0e 94 f3 04 	call	0x9e6	; 0x9e6 <Display_a_Character>
	

		while (ACCU_FULL)
    5726:	0f 2e       	mov	r0, r31
    5728:	f9 e5       	ldi	r31, 0x59	; 89
    572a:	ef 2e       	mov	r14, r31
    572c:	f0 2d       	mov	r31, r0
    572e:	68 94       	set
    5730:	ff 24       	eor	r15, r15
    5732:	f1 f8       	bld	r15, 1
    5734:	35 c0       	rjmp	.+106    	; 0x57a0 <check_Accu+0x2c4>
		{
			for (uint16_t x = 0; x <= 600; x++)
			{
				Counter_For_Display = 0;
    5736:	10 92 66 02 	sts	0x0266, r1
    573a:	10 92 65 02 	sts	0x0265, r1
				Blinking_Accu_Symbol ++;
    573e:	80 91 30 02 	lds	r24, 0x0230
    5742:	90 91 31 02 	lds	r25, 0x0231
    5746:	01 96       	adiw	r24, 0x01	; 1
    5748:	90 93 31 02 	sts	0x0231, r25
    574c:	80 93 30 02 	sts	0x0230, r24
    5750:	8f e9       	ldi	r24, 0x9F	; 159
    5752:	9f e0       	ldi	r25, 0x0F	; 15
    5754:	01 97       	sbiw	r24, 0x01	; 1
    5756:	f1 f7       	brne	.-4      	; 0x5754 <check_Accu+0x278>
    5758:	00 c0       	rjmp	.+0      	; 0x575a <check_Accu+0x27e>
    575a:	00 00       	nop
				_delay_ms(1);
			
				if (Blinking_Accu_Symbol == 300)
    575c:	80 91 30 02 	lds	r24, 0x0230
    5760:	90 91 31 02 	lds	r25, 0x0231
    5764:	8c 32       	cpi	r24, 0x2C	; 44
    5766:	91 40       	sbci	r25, 0x01	; 1
    5768:	11 f4       	brne	.+4      	; 0x576e <check_Accu+0x292>
				{
					clear_screen();
    576a:	0e 94 07 03 	call	0x60e	; 0x60e <clear_screen>
    576e:	8f e9       	ldi	r24, 0x9F	; 159
    5770:	9f e0       	ldi	r25, 0x0F	; 15
    5772:	01 97       	sbiw	r24, 0x01	; 1
    5774:	f1 f7       	brne	.-4      	; 0x5772 <check_Accu+0x296>
    5776:	00 c0       	rjmp	.+0      	; 0x5778 <check_Accu+0x29c>
    5778:	00 00       	nop
				}
				_delay_ms(1);
				if (Blinking_Accu_Symbol == 600)
    577a:	80 91 30 02 	lds	r24, 0x0230
    577e:	90 91 31 02 	lds	r25, 0x0231
    5782:	88 35       	cpi	r24, 0x58	; 88
    5784:	92 40       	sbci	r25, 0x02	; 2
    5786:	39 f4       	brne	.+14     	; 0x5796 <check_Accu+0x2ba>
				{
					Blinking_Accu_Symbol = 0;
    5788:	10 92 31 02 	sts	0x0231, r1
    578c:	10 92 30 02 	sts	0x0230, r1
					Display_a_Character(69);
    5790:	85 e4       	ldi	r24, 0x45	; 69
    5792:	0e 94 f3 04 	call	0x9e6	; 0x9e6 <Display_a_Character>
    5796:	01 50       	subi	r16, 0x01	; 1
    5798:	11 09       	sbc	r17, r1
		Display_a_Character(69);
	

		while (ACCU_FULL)
		{
			for (uint16_t x = 0; x <= 600; x++)
    579a:	01 15       	cp	r16, r1
    579c:	11 05       	cpc	r17, r1
    579e:	59 f6       	brne	.-106    	; 0x5736 <check_Accu+0x25a>
		Counter_For_Display = 0;
		Blinking_Accu_Symbol = 0;
		Display_a_Character(69);
	

		while (ACCU_FULL)
    57a0:	cd 99       	sbic	0x19, 5	; 25
    57a2:	03 c0       	rjmp	.+6      	; 0x57aa <check_Accu+0x2ce>
    57a4:	0e 2d       	mov	r16, r14
    57a6:	1f 2d       	mov	r17, r15
    57a8:	c6 cf       	rjmp	.-116    	; 0x5736 <check_Accu+0x25a>
					Display_a_Character(69);
				}			
			}

		}
		clear_screen();
    57aa:	0e 94 07 03 	call	0x60e	; 0x60e <clear_screen>
		Counter_For_Display = 0;
    57ae:	10 92 66 02 	sts	0x0266, r1
    57b2:	10 92 65 02 	sts	0x0265, r1
		Blinking_Accu_Symbol = 0;
    57b6:	10 92 31 02 	sts	0x0231, r1
    57ba:	10 92 30 02 	sts	0x0230, r1
		ENABLE_25ms_ISR;
    57be:	89 b7       	in	r24, 0x39	; 57
    57c0:	80 61       	ori	r24, 0x10	; 16
    57c2:	89 bf       	out	0x39, r24	; 57
	}
	
}
    57c4:	2d 96       	adiw	r28, 0x0d	; 13
    57c6:	0f b6       	in	r0, 0x3f	; 63
    57c8:	f8 94       	cli
    57ca:	de bf       	out	0x3e, r29	; 62
    57cc:	0f be       	out	0x3f, r0	; 63
    57ce:	cd bf       	out	0x3d, r28	; 61
    57d0:	df 91       	pop	r29
    57d2:	cf 91       	pop	r28
    57d4:	1f 91       	pop	r17
    57d6:	0f 91       	pop	r16
    57d8:	ff 90       	pop	r15
    57da:	ef 90       	pop	r14
    57dc:	df 90       	pop	r13
    57de:	bf 90       	pop	r11
    57e0:	af 90       	pop	r10
    57e2:	08 95       	ret

000057e4 <sleep_after_long_press>:
}

/* If a Switch long pressed, then the µC go sleep */
void sleep_after_long_press(void)
{	
		if (Long_Key_Pressed >= 160)
    57e4:	80 91 26 02 	lds	r24, 0x0226
    57e8:	90 91 27 02 	lds	r25, 0x0227
    57ec:	80 3a       	cpi	r24, 0xA0	; 160
    57ee:	91 05       	cpc	r25, r1
    57f0:	30 f0       	brcs	.+12     	; 0x57fe <sleep_after_long_press+0x1a>
		{
			Long_Key_Pressed = 0;
    57f2:	10 92 27 02 	sts	0x0227, r1
    57f6:	10 92 26 02 	sts	0x0226, r1
			go_sleep();
    57fa:	0e 94 5d 07 	call	0xeba	; 0xeba <go_sleep>
    57fe:	08 95       	ret

00005800 <sleep_after_12h>:
		}	
}

/* if the µC >= 12 h at work the go sleep and show remaining Time */
void sleep_after_12h(void)
{
    5800:	ef 92       	push	r14
    5802:	ff 92       	push	r15
    5804:	0f 93       	push	r16
    5806:	1f 93       	push	r17
    5808:	cf 93       	push	r28
    580a:	df 93       	push	r29
    580c:	cd b7       	in	r28, 0x3d	; 61
    580e:	de b7       	in	r29, 0x3e	; 62
    5810:	a0 97       	sbiw	r28, 0x20	; 32
    5812:	0f b6       	in	r0, 0x3f	; 63
    5814:	f8 94       	cli
    5816:	de bf       	out	0x3e, r29	; 62
    5818:	0f be       	out	0x3f, r0	; 63
    581a:	cd bf       	out	0x3d, r28	; 61
	
#ifdef WITH_REMAINING

	
	/* 1 hour past */	
	if (Sleep_Counter == (144000))
    581c:	60 91 7b 02 	lds	r22, 0x027B
    5820:	70 91 7c 02 	lds	r23, 0x027C
    5824:	80 91 7d 02 	lds	r24, 0x027D
    5828:	90 91 7e 02 	lds	r25, 0x027E
    582c:	20 e0       	ldi	r18, 0x00	; 0
    582e:	30 ea       	ldi	r19, 0xA0	; 160
    5830:	4c e0       	ldi	r20, 0x0C	; 12
    5832:	58 e4       	ldi	r21, 0x48	; 72
    5834:	0e 94 25 35 	call	0x6a4a	; 0x6a4a <__cmpsf2>
    5838:	81 11       	cpse	r24, r1
    583a:	38 c0       	rjmp	.+112    	; 0x58ac <sleep_after_12h+0xac>
	{
		DISABLE_25ms_ISR;
    583c:	89 b7       	in	r24, 0x39	; 57
    583e:	8f 7e       	andi	r24, 0xEF	; 239
    5840:	89 bf       	out	0x39, r24	; 57
		all_LED_OFF();
    5842:	0e 94 5a 05 	call	0xab4	; 0xab4 <all_LED_OFF>
		clear_screen();
    5846:	0e 94 07 03 	call	0x60e	; 0x60e <clear_screen>
				
		char s[] = "  11 hour remaining";
    584a:	84 e1       	ldi	r24, 0x14	; 20
    584c:	e4 eb       	ldi	r30, 0xB4	; 180
    584e:	f0 e0       	ldi	r31, 0x00	; 0
    5850:	de 01       	movw	r26, r28
    5852:	11 96       	adiw	r26, 0x01	; 1
    5854:	01 90       	ld	r0, Z+
    5856:	0d 92       	st	X+, r0
    5858:	8a 95       	dec	r24
    585a:	e1 f7       	brne	.-8      	; 0x5854 <sleep_after_12h+0x54>
	
		for (uint16_t x=0; x<(strlen(s)*8); x++)
    585c:	00 e0       	ldi	r16, 0x00	; 0
    585e:	10 e0       	ldi	r17, 0x00	; 0
    5860:	ce 01       	movw	r24, r28
    5862:	01 96       	adiw	r24, 0x01	; 1
    5864:	7c 01       	movw	r14, r24
    5866:	0f c0       	rjmp	.+30     	; 0x5886 <sleep_after_12h+0x86>
		{
			DisplayString(x, s);
    5868:	b7 01       	movw	r22, r14
    586a:	c8 01       	movw	r24, r16
    586c:	0e 94 4f 04 	call	0x89e	; 0x89e <DisplayString>
    5870:	9f ef       	ldi	r25, 0xFF	; 255
    5872:	27 ee       	ldi	r18, 0xE7	; 231
    5874:	83 e0       	ldi	r24, 0x03	; 3
    5876:	91 50       	subi	r25, 0x01	; 1
    5878:	20 40       	sbci	r18, 0x00	; 0
    587a:	80 40       	sbci	r24, 0x00	; 0
    587c:	e1 f7       	brne	.-8      	; 0x5876 <sleep_after_12h+0x76>
    587e:	00 c0       	rjmp	.+0      	; 0x5880 <sleep_after_12h+0x80>
    5880:	00 00       	nop
		all_LED_OFF();
		clear_screen();
				
		char s[] = "  11 hour remaining";
	
		for (uint16_t x=0; x<(strlen(s)*8); x++)
    5882:	0f 5f       	subi	r16, 0xFF	; 255
    5884:	1f 4f       	sbci	r17, 0xFF	; 255
    5886:	f7 01       	movw	r30, r14
    5888:	01 90       	ld	r0, Z+
    588a:	00 20       	and	r0, r0
    588c:	e9 f7       	brne	.-6      	; 0x5888 <sleep_after_12h+0x88>
    588e:	31 97       	sbiw	r30, 0x01	; 1
    5890:	ee 19       	sub	r30, r14
    5892:	ff 09       	sbc	r31, r15
    5894:	ee 0f       	add	r30, r30
    5896:	ff 1f       	adc	r31, r31
    5898:	ee 0f       	add	r30, r30
    589a:	ff 1f       	adc	r31, r31
    589c:	ee 0f       	add	r30, r30
    589e:	ff 1f       	adc	r31, r31
    58a0:	0e 17       	cp	r16, r30
    58a2:	1f 07       	cpc	r17, r31
    58a4:	08 f3       	brcs	.-62     	; 0x5868 <sleep_after_12h+0x68>
		{
			DisplayString(x, s);
			_delay_ms(80);
		}
		    ENABLE_25ms_ISR;
    58a6:	89 b7       	in	r24, 0x39	; 57
    58a8:	80 61       	ori	r24, 0x10	; 16
    58aa:	89 bf       	out	0x39, r24	; 57

	}
	
	/* 2 hour past */
	if (Sleep_Counter == (144000*2))
    58ac:	60 91 7b 02 	lds	r22, 0x027B
    58b0:	70 91 7c 02 	lds	r23, 0x027C
    58b4:	80 91 7d 02 	lds	r24, 0x027D
    58b8:	90 91 7e 02 	lds	r25, 0x027E
    58bc:	20 e0       	ldi	r18, 0x00	; 0
    58be:	30 ea       	ldi	r19, 0xA0	; 160
    58c0:	4c e8       	ldi	r20, 0x8C	; 140
    58c2:	58 e4       	ldi	r21, 0x48	; 72
    58c4:	0e 94 25 35 	call	0x6a4a	; 0x6a4a <__cmpsf2>
    58c8:	81 11       	cpse	r24, r1
    58ca:	38 c0       	rjmp	.+112    	; 0x593c <sleep_after_12h+0x13c>
	{
		DISABLE_25ms_ISR;
    58cc:	89 b7       	in	r24, 0x39	; 57
    58ce:	8f 7e       	andi	r24, 0xEF	; 239
    58d0:	89 bf       	out	0x39, r24	; 57
		all_LED_OFF();
    58d2:	0e 94 5a 05 	call	0xab4	; 0xab4 <all_LED_OFF>
		clear_screen();
    58d6:	0e 94 07 03 	call	0x60e	; 0x60e <clear_screen>
				
		char s[] = "  10 hour remaining";
    58da:	84 e1       	ldi	r24, 0x14	; 20
    58dc:	e8 ec       	ldi	r30, 0xC8	; 200
    58de:	f0 e0       	ldi	r31, 0x00	; 0
    58e0:	de 01       	movw	r26, r28
    58e2:	11 96       	adiw	r26, 0x01	; 1
    58e4:	01 90       	ld	r0, Z+
    58e6:	0d 92       	st	X+, r0
    58e8:	8a 95       	dec	r24
    58ea:	e1 f7       	brne	.-8      	; 0x58e4 <sleep_after_12h+0xe4>
		
		for (uint16_t x=0; x<(strlen(s)*8); x++)
    58ec:	00 e0       	ldi	r16, 0x00	; 0
    58ee:	10 e0       	ldi	r17, 0x00	; 0
    58f0:	ce 01       	movw	r24, r28
    58f2:	01 96       	adiw	r24, 0x01	; 1
    58f4:	7c 01       	movw	r14, r24
    58f6:	0f c0       	rjmp	.+30     	; 0x5916 <sleep_after_12h+0x116>
		{
			DisplayString(x, s);
    58f8:	b7 01       	movw	r22, r14
    58fa:	c8 01       	movw	r24, r16
    58fc:	0e 94 4f 04 	call	0x89e	; 0x89e <DisplayString>
    5900:	9f ef       	ldi	r25, 0xFF	; 255
    5902:	27 ee       	ldi	r18, 0xE7	; 231
    5904:	83 e0       	ldi	r24, 0x03	; 3
    5906:	91 50       	subi	r25, 0x01	; 1
    5908:	20 40       	sbci	r18, 0x00	; 0
    590a:	80 40       	sbci	r24, 0x00	; 0
    590c:	e1 f7       	brne	.-8      	; 0x5906 <sleep_after_12h+0x106>
    590e:	00 c0       	rjmp	.+0      	; 0x5910 <sleep_after_12h+0x110>
    5910:	00 00       	nop
		all_LED_OFF();
		clear_screen();
				
		char s[] = "  10 hour remaining";
		
		for (uint16_t x=0; x<(strlen(s)*8); x++)
    5912:	0f 5f       	subi	r16, 0xFF	; 255
    5914:	1f 4f       	sbci	r17, 0xFF	; 255
    5916:	f7 01       	movw	r30, r14
    5918:	01 90       	ld	r0, Z+
    591a:	00 20       	and	r0, r0
    591c:	e9 f7       	brne	.-6      	; 0x5918 <sleep_after_12h+0x118>
    591e:	31 97       	sbiw	r30, 0x01	; 1
    5920:	ee 19       	sub	r30, r14
    5922:	ff 09       	sbc	r31, r15
    5924:	ee 0f       	add	r30, r30
    5926:	ff 1f       	adc	r31, r31
    5928:	ee 0f       	add	r30, r30
    592a:	ff 1f       	adc	r31, r31
    592c:	ee 0f       	add	r30, r30
    592e:	ff 1f       	adc	r31, r31
    5930:	0e 17       	cp	r16, r30
    5932:	1f 07       	cpc	r17, r31
    5934:	08 f3       	brcs	.-62     	; 0x58f8 <sleep_after_12h+0xf8>
		{
			DisplayString(x, s);
			_delay_ms(80);
		}
		ENABLE_25ms_ISR;
    5936:	89 b7       	in	r24, 0x39	; 57
    5938:	80 61       	ori	r24, 0x10	; 16
    593a:	89 bf       	out	0x39, r24	; 57
	}
	
	/* 3 hour past */
	if (Sleep_Counter == (144000*3))
    593c:	60 91 7b 02 	lds	r22, 0x027B
    5940:	70 91 7c 02 	lds	r23, 0x027C
    5944:	80 91 7d 02 	lds	r24, 0x027D
    5948:	90 91 7e 02 	lds	r25, 0x027E
    594c:	20 e0       	ldi	r18, 0x00	; 0
    594e:	30 ef       	ldi	r19, 0xF0	; 240
    5950:	42 ed       	ldi	r20, 0xD2	; 210
    5952:	58 e4       	ldi	r21, 0x48	; 72
    5954:	0e 94 25 35 	call	0x6a4a	; 0x6a4a <__cmpsf2>
    5958:	81 11       	cpse	r24, r1
    595a:	38 c0       	rjmp	.+112    	; 0x59cc <sleep_after_12h+0x1cc>
	{
		DISABLE_25ms_ISR;
    595c:	89 b7       	in	r24, 0x39	; 57
    595e:	8f 7e       	andi	r24, 0xEF	; 239
    5960:	89 bf       	out	0x39, r24	; 57
		all_LED_OFF();
    5962:	0e 94 5a 05 	call	0xab4	; 0xab4 <all_LED_OFF>
		clear_screen();
    5966:	0e 94 07 03 	call	0x60e	; 0x60e <clear_screen>
				
		char s[] = "  9 hour remaining";
    596a:	83 e1       	ldi	r24, 0x13	; 19
    596c:	ec ed       	ldi	r30, 0xDC	; 220
    596e:	f0 e0       	ldi	r31, 0x00	; 0
    5970:	de 01       	movw	r26, r28
    5972:	11 96       	adiw	r26, 0x01	; 1
    5974:	01 90       	ld	r0, Z+
    5976:	0d 92       	st	X+, r0
    5978:	8a 95       	dec	r24
    597a:	e1 f7       	brne	.-8      	; 0x5974 <sleep_after_12h+0x174>
		
		for (uint16_t x=0; x<(strlen(s)*8); x++)
    597c:	00 e0       	ldi	r16, 0x00	; 0
    597e:	10 e0       	ldi	r17, 0x00	; 0
    5980:	ce 01       	movw	r24, r28
    5982:	01 96       	adiw	r24, 0x01	; 1
    5984:	7c 01       	movw	r14, r24
    5986:	0f c0       	rjmp	.+30     	; 0x59a6 <sleep_after_12h+0x1a6>
		{
			DisplayString(x, s);
    5988:	b7 01       	movw	r22, r14
    598a:	c8 01       	movw	r24, r16
    598c:	0e 94 4f 04 	call	0x89e	; 0x89e <DisplayString>
    5990:	9f ef       	ldi	r25, 0xFF	; 255
    5992:	27 ee       	ldi	r18, 0xE7	; 231
    5994:	83 e0       	ldi	r24, 0x03	; 3
    5996:	91 50       	subi	r25, 0x01	; 1
    5998:	20 40       	sbci	r18, 0x00	; 0
    599a:	80 40       	sbci	r24, 0x00	; 0
    599c:	e1 f7       	brne	.-8      	; 0x5996 <sleep_after_12h+0x196>
    599e:	00 c0       	rjmp	.+0      	; 0x59a0 <sleep_after_12h+0x1a0>
    59a0:	00 00       	nop
		all_LED_OFF();
		clear_screen();
				
		char s[] = "  9 hour remaining";
		
		for (uint16_t x=0; x<(strlen(s)*8); x++)
    59a2:	0f 5f       	subi	r16, 0xFF	; 255
    59a4:	1f 4f       	sbci	r17, 0xFF	; 255
    59a6:	f7 01       	movw	r30, r14
    59a8:	01 90       	ld	r0, Z+
    59aa:	00 20       	and	r0, r0
    59ac:	e9 f7       	brne	.-6      	; 0x59a8 <sleep_after_12h+0x1a8>
    59ae:	31 97       	sbiw	r30, 0x01	; 1
    59b0:	ee 19       	sub	r30, r14
    59b2:	ff 09       	sbc	r31, r15
    59b4:	ee 0f       	add	r30, r30
    59b6:	ff 1f       	adc	r31, r31
    59b8:	ee 0f       	add	r30, r30
    59ba:	ff 1f       	adc	r31, r31
    59bc:	ee 0f       	add	r30, r30
    59be:	ff 1f       	adc	r31, r31
    59c0:	0e 17       	cp	r16, r30
    59c2:	1f 07       	cpc	r17, r31
    59c4:	08 f3       	brcs	.-62     	; 0x5988 <sleep_after_12h+0x188>
		{
			DisplayString(x, s);
			_delay_ms(80);
		}
		ENABLE_25ms_ISR;
    59c6:	89 b7       	in	r24, 0x39	; 57
    59c8:	80 61       	ori	r24, 0x10	; 16
    59ca:	89 bf       	out	0x39, r24	; 57
	}

	/* 4 hour past */
	if (Sleep_Counter == (144000*4))
    59cc:	60 91 7b 02 	lds	r22, 0x027B
    59d0:	70 91 7c 02 	lds	r23, 0x027C
    59d4:	80 91 7d 02 	lds	r24, 0x027D
    59d8:	90 91 7e 02 	lds	r25, 0x027E
    59dc:	20 e0       	ldi	r18, 0x00	; 0
    59de:	30 ea       	ldi	r19, 0xA0	; 160
    59e0:	4c e0       	ldi	r20, 0x0C	; 12
    59e2:	59 e4       	ldi	r21, 0x49	; 73
    59e4:	0e 94 25 35 	call	0x6a4a	; 0x6a4a <__cmpsf2>
    59e8:	81 11       	cpse	r24, r1
    59ea:	38 c0       	rjmp	.+112    	; 0x5a5c <sleep_after_12h+0x25c>
	{
		DISABLE_25ms_ISR;
    59ec:	89 b7       	in	r24, 0x39	; 57
    59ee:	8f 7e       	andi	r24, 0xEF	; 239
    59f0:	89 bf       	out	0x39, r24	; 57
		all_LED_OFF();
    59f2:	0e 94 5a 05 	call	0xab4	; 0xab4 <all_LED_OFF>
		clear_screen();
    59f6:	0e 94 07 03 	call	0x60e	; 0x60e <clear_screen>
				
		char s[] = "  8 hour remaining";
    59fa:	83 e1       	ldi	r24, 0x13	; 19
    59fc:	ef ee       	ldi	r30, 0xEF	; 239
    59fe:	f0 e0       	ldi	r31, 0x00	; 0
    5a00:	de 01       	movw	r26, r28
    5a02:	11 96       	adiw	r26, 0x01	; 1
    5a04:	01 90       	ld	r0, Z+
    5a06:	0d 92       	st	X+, r0
    5a08:	8a 95       	dec	r24
    5a0a:	e1 f7       	brne	.-8      	; 0x5a04 <sleep_after_12h+0x204>
		
		for (uint16_t x=0; x<(strlen(s)*8); x++)
    5a0c:	00 e0       	ldi	r16, 0x00	; 0
    5a0e:	10 e0       	ldi	r17, 0x00	; 0
    5a10:	ce 01       	movw	r24, r28
    5a12:	01 96       	adiw	r24, 0x01	; 1
    5a14:	7c 01       	movw	r14, r24
    5a16:	0f c0       	rjmp	.+30     	; 0x5a36 <sleep_after_12h+0x236>
		{
			DisplayString(x, s);
    5a18:	b7 01       	movw	r22, r14
    5a1a:	c8 01       	movw	r24, r16
    5a1c:	0e 94 4f 04 	call	0x89e	; 0x89e <DisplayString>
    5a20:	9f ef       	ldi	r25, 0xFF	; 255
    5a22:	27 ee       	ldi	r18, 0xE7	; 231
    5a24:	83 e0       	ldi	r24, 0x03	; 3
    5a26:	91 50       	subi	r25, 0x01	; 1
    5a28:	20 40       	sbci	r18, 0x00	; 0
    5a2a:	80 40       	sbci	r24, 0x00	; 0
    5a2c:	e1 f7       	brne	.-8      	; 0x5a26 <sleep_after_12h+0x226>
    5a2e:	00 c0       	rjmp	.+0      	; 0x5a30 <sleep_after_12h+0x230>
    5a30:	00 00       	nop
		all_LED_OFF();
		clear_screen();
				
		char s[] = "  8 hour remaining";
		
		for (uint16_t x=0; x<(strlen(s)*8); x++)
    5a32:	0f 5f       	subi	r16, 0xFF	; 255
    5a34:	1f 4f       	sbci	r17, 0xFF	; 255
    5a36:	f7 01       	movw	r30, r14
    5a38:	01 90       	ld	r0, Z+
    5a3a:	00 20       	and	r0, r0
    5a3c:	e9 f7       	brne	.-6      	; 0x5a38 <sleep_after_12h+0x238>
    5a3e:	31 97       	sbiw	r30, 0x01	; 1
    5a40:	ee 19       	sub	r30, r14
    5a42:	ff 09       	sbc	r31, r15
    5a44:	ee 0f       	add	r30, r30
    5a46:	ff 1f       	adc	r31, r31
    5a48:	ee 0f       	add	r30, r30
    5a4a:	ff 1f       	adc	r31, r31
    5a4c:	ee 0f       	add	r30, r30
    5a4e:	ff 1f       	adc	r31, r31
    5a50:	0e 17       	cp	r16, r30
    5a52:	1f 07       	cpc	r17, r31
    5a54:	08 f3       	brcs	.-62     	; 0x5a18 <sleep_after_12h+0x218>
		{
			DisplayString(x, s);
			_delay_ms(80);
		}
		ENABLE_25ms_ISR;
    5a56:	89 b7       	in	r24, 0x39	; 57
    5a58:	80 61       	ori	r24, 0x10	; 16
    5a5a:	89 bf       	out	0x39, r24	; 57
	}
	
	/* 5 hour past */
	if (Sleep_Counter == (144000*5))
    5a5c:	60 91 7b 02 	lds	r22, 0x027B
    5a60:	70 91 7c 02 	lds	r23, 0x027C
    5a64:	80 91 7d 02 	lds	r24, 0x027D
    5a68:	90 91 7e 02 	lds	r25, 0x027E
    5a6c:	20 e0       	ldi	r18, 0x00	; 0
    5a6e:	38 ec       	ldi	r19, 0xC8	; 200
    5a70:	4f e2       	ldi	r20, 0x2F	; 47
    5a72:	59 e4       	ldi	r21, 0x49	; 73
    5a74:	0e 94 25 35 	call	0x6a4a	; 0x6a4a <__cmpsf2>
    5a78:	81 11       	cpse	r24, r1
    5a7a:	38 c0       	rjmp	.+112    	; 0x5aec <sleep_after_12h+0x2ec>
	{
		DISABLE_25ms_ISR;
    5a7c:	89 b7       	in	r24, 0x39	; 57
    5a7e:	8f 7e       	andi	r24, 0xEF	; 239
    5a80:	89 bf       	out	0x39, r24	; 57
		all_LED_OFF();
    5a82:	0e 94 5a 05 	call	0xab4	; 0xab4 <all_LED_OFF>
		clear_screen();
    5a86:	0e 94 07 03 	call	0x60e	; 0x60e <clear_screen>
				
		char s[] = "  7 hour remaining";
    5a8a:	83 e1       	ldi	r24, 0x13	; 19
    5a8c:	e2 e0       	ldi	r30, 0x02	; 2
    5a8e:	f1 e0       	ldi	r31, 0x01	; 1
    5a90:	de 01       	movw	r26, r28
    5a92:	11 96       	adiw	r26, 0x01	; 1
    5a94:	01 90       	ld	r0, Z+
    5a96:	0d 92       	st	X+, r0
    5a98:	8a 95       	dec	r24
    5a9a:	e1 f7       	brne	.-8      	; 0x5a94 <sleep_after_12h+0x294>
		
		for (uint16_t x=0; x<(strlen(s)*8); x++)
    5a9c:	00 e0       	ldi	r16, 0x00	; 0
    5a9e:	10 e0       	ldi	r17, 0x00	; 0
    5aa0:	ce 01       	movw	r24, r28
    5aa2:	01 96       	adiw	r24, 0x01	; 1
    5aa4:	7c 01       	movw	r14, r24
    5aa6:	0f c0       	rjmp	.+30     	; 0x5ac6 <sleep_after_12h+0x2c6>
		{
			DisplayString(x, s);
    5aa8:	b7 01       	movw	r22, r14
    5aaa:	c8 01       	movw	r24, r16
    5aac:	0e 94 4f 04 	call	0x89e	; 0x89e <DisplayString>
    5ab0:	9f ef       	ldi	r25, 0xFF	; 255
    5ab2:	27 ee       	ldi	r18, 0xE7	; 231
    5ab4:	83 e0       	ldi	r24, 0x03	; 3
    5ab6:	91 50       	subi	r25, 0x01	; 1
    5ab8:	20 40       	sbci	r18, 0x00	; 0
    5aba:	80 40       	sbci	r24, 0x00	; 0
    5abc:	e1 f7       	brne	.-8      	; 0x5ab6 <sleep_after_12h+0x2b6>
    5abe:	00 c0       	rjmp	.+0      	; 0x5ac0 <sleep_after_12h+0x2c0>
    5ac0:	00 00       	nop
		all_LED_OFF();
		clear_screen();
				
		char s[] = "  7 hour remaining";
		
		for (uint16_t x=0; x<(strlen(s)*8); x++)
    5ac2:	0f 5f       	subi	r16, 0xFF	; 255
    5ac4:	1f 4f       	sbci	r17, 0xFF	; 255
    5ac6:	f7 01       	movw	r30, r14
    5ac8:	01 90       	ld	r0, Z+
    5aca:	00 20       	and	r0, r0
    5acc:	e9 f7       	brne	.-6      	; 0x5ac8 <sleep_after_12h+0x2c8>
    5ace:	31 97       	sbiw	r30, 0x01	; 1
    5ad0:	ee 19       	sub	r30, r14
    5ad2:	ff 09       	sbc	r31, r15
    5ad4:	ee 0f       	add	r30, r30
    5ad6:	ff 1f       	adc	r31, r31
    5ad8:	ee 0f       	add	r30, r30
    5ada:	ff 1f       	adc	r31, r31
    5adc:	ee 0f       	add	r30, r30
    5ade:	ff 1f       	adc	r31, r31
    5ae0:	0e 17       	cp	r16, r30
    5ae2:	1f 07       	cpc	r17, r31
    5ae4:	08 f3       	brcs	.-62     	; 0x5aa8 <sleep_after_12h+0x2a8>
		{
			DisplayString(x, s);
			_delay_ms(80);
		}
		ENABLE_25ms_ISR;
    5ae6:	89 b7       	in	r24, 0x39	; 57
    5ae8:	80 61       	ori	r24, 0x10	; 16
    5aea:	89 bf       	out	0x39, r24	; 57
	}
	
	/* 6 hour past */
	if (Sleep_Counter == (144000*6))
    5aec:	60 91 7b 02 	lds	r22, 0x027B
    5af0:	70 91 7c 02 	lds	r23, 0x027C
    5af4:	80 91 7d 02 	lds	r24, 0x027D
    5af8:	90 91 7e 02 	lds	r25, 0x027E
    5afc:	20 e0       	ldi	r18, 0x00	; 0
    5afe:	30 ef       	ldi	r19, 0xF0	; 240
    5b00:	42 e5       	ldi	r20, 0x52	; 82
    5b02:	59 e4       	ldi	r21, 0x49	; 73
    5b04:	0e 94 25 35 	call	0x6a4a	; 0x6a4a <__cmpsf2>
    5b08:	81 11       	cpse	r24, r1
    5b0a:	38 c0       	rjmp	.+112    	; 0x5b7c <sleep_after_12h+0x37c>
	{
		DISABLE_25ms_ISR;
    5b0c:	89 b7       	in	r24, 0x39	; 57
    5b0e:	8f 7e       	andi	r24, 0xEF	; 239
    5b10:	89 bf       	out	0x39, r24	; 57
		all_LED_OFF();
    5b12:	0e 94 5a 05 	call	0xab4	; 0xab4 <all_LED_OFF>
		clear_screen();
    5b16:	0e 94 07 03 	call	0x60e	; 0x60e <clear_screen>
				
		char s[] = "  6 hour remaining";
    5b1a:	83 e1       	ldi	r24, 0x13	; 19
    5b1c:	e5 e1       	ldi	r30, 0x15	; 21
    5b1e:	f1 e0       	ldi	r31, 0x01	; 1
    5b20:	de 01       	movw	r26, r28
    5b22:	11 96       	adiw	r26, 0x01	; 1
    5b24:	01 90       	ld	r0, Z+
    5b26:	0d 92       	st	X+, r0
    5b28:	8a 95       	dec	r24
    5b2a:	e1 f7       	brne	.-8      	; 0x5b24 <sleep_after_12h+0x324>
		
		for (uint16_t x=0; x<(strlen(s)*8); x++)
    5b2c:	00 e0       	ldi	r16, 0x00	; 0
    5b2e:	10 e0       	ldi	r17, 0x00	; 0
    5b30:	ce 01       	movw	r24, r28
    5b32:	01 96       	adiw	r24, 0x01	; 1
    5b34:	7c 01       	movw	r14, r24
    5b36:	0f c0       	rjmp	.+30     	; 0x5b56 <sleep_after_12h+0x356>
		{
			DisplayString(x, s);
    5b38:	b7 01       	movw	r22, r14
    5b3a:	c8 01       	movw	r24, r16
    5b3c:	0e 94 4f 04 	call	0x89e	; 0x89e <DisplayString>
    5b40:	9f ef       	ldi	r25, 0xFF	; 255
    5b42:	27 ee       	ldi	r18, 0xE7	; 231
    5b44:	83 e0       	ldi	r24, 0x03	; 3
    5b46:	91 50       	subi	r25, 0x01	; 1
    5b48:	20 40       	sbci	r18, 0x00	; 0
    5b4a:	80 40       	sbci	r24, 0x00	; 0
    5b4c:	e1 f7       	brne	.-8      	; 0x5b46 <sleep_after_12h+0x346>
    5b4e:	00 c0       	rjmp	.+0      	; 0x5b50 <sleep_after_12h+0x350>
    5b50:	00 00       	nop
		all_LED_OFF();
		clear_screen();
				
		char s[] = "  6 hour remaining";
		
		for (uint16_t x=0; x<(strlen(s)*8); x++)
    5b52:	0f 5f       	subi	r16, 0xFF	; 255
    5b54:	1f 4f       	sbci	r17, 0xFF	; 255
    5b56:	f7 01       	movw	r30, r14
    5b58:	01 90       	ld	r0, Z+
    5b5a:	00 20       	and	r0, r0
    5b5c:	e9 f7       	brne	.-6      	; 0x5b58 <sleep_after_12h+0x358>
    5b5e:	31 97       	sbiw	r30, 0x01	; 1
    5b60:	ee 19       	sub	r30, r14
    5b62:	ff 09       	sbc	r31, r15
    5b64:	ee 0f       	add	r30, r30
    5b66:	ff 1f       	adc	r31, r31
    5b68:	ee 0f       	add	r30, r30
    5b6a:	ff 1f       	adc	r31, r31
    5b6c:	ee 0f       	add	r30, r30
    5b6e:	ff 1f       	adc	r31, r31
    5b70:	0e 17       	cp	r16, r30
    5b72:	1f 07       	cpc	r17, r31
    5b74:	08 f3       	brcs	.-62     	; 0x5b38 <sleep_after_12h+0x338>
		{
			DisplayString(x, s);
			_delay_ms(80);
		}
		ENABLE_25ms_ISR;
    5b76:	89 b7       	in	r24, 0x39	; 57
    5b78:	80 61       	ori	r24, 0x10	; 16
    5b7a:	89 bf       	out	0x39, r24	; 57
	}
	
	/* 7 hour past */
	if (Sleep_Counter == (144000*7))
    5b7c:	60 91 7b 02 	lds	r22, 0x027B
    5b80:	70 91 7c 02 	lds	r23, 0x027C
    5b84:	80 91 7d 02 	lds	r24, 0x027D
    5b88:	90 91 7e 02 	lds	r25, 0x027E
    5b8c:	20 e0       	ldi	r18, 0x00	; 0
    5b8e:	38 e1       	ldi	r19, 0x18	; 24
    5b90:	46 e7       	ldi	r20, 0x76	; 118
    5b92:	59 e4       	ldi	r21, 0x49	; 73
    5b94:	0e 94 25 35 	call	0x6a4a	; 0x6a4a <__cmpsf2>
    5b98:	81 11       	cpse	r24, r1
    5b9a:	38 c0       	rjmp	.+112    	; 0x5c0c <sleep_after_12h+0x40c>
	{
		DISABLE_25ms_ISR;
    5b9c:	89 b7       	in	r24, 0x39	; 57
    5b9e:	8f 7e       	andi	r24, 0xEF	; 239
    5ba0:	89 bf       	out	0x39, r24	; 57
		all_LED_OFF();
    5ba2:	0e 94 5a 05 	call	0xab4	; 0xab4 <all_LED_OFF>
		clear_screen();
    5ba6:	0e 94 07 03 	call	0x60e	; 0x60e <clear_screen>
				
		char s[] = "  5 hour remaining";
    5baa:	83 e1       	ldi	r24, 0x13	; 19
    5bac:	e8 e2       	ldi	r30, 0x28	; 40
    5bae:	f1 e0       	ldi	r31, 0x01	; 1
    5bb0:	de 01       	movw	r26, r28
    5bb2:	11 96       	adiw	r26, 0x01	; 1
    5bb4:	01 90       	ld	r0, Z+
    5bb6:	0d 92       	st	X+, r0
    5bb8:	8a 95       	dec	r24
    5bba:	e1 f7       	brne	.-8      	; 0x5bb4 <sleep_after_12h+0x3b4>
		
		for (uint16_t x=0; x<(strlen(s)*8); x++)
    5bbc:	00 e0       	ldi	r16, 0x00	; 0
    5bbe:	10 e0       	ldi	r17, 0x00	; 0
    5bc0:	ce 01       	movw	r24, r28
    5bc2:	01 96       	adiw	r24, 0x01	; 1
    5bc4:	7c 01       	movw	r14, r24
    5bc6:	0f c0       	rjmp	.+30     	; 0x5be6 <sleep_after_12h+0x3e6>
		{
			DisplayString(x, s);
    5bc8:	b7 01       	movw	r22, r14
    5bca:	c8 01       	movw	r24, r16
    5bcc:	0e 94 4f 04 	call	0x89e	; 0x89e <DisplayString>
    5bd0:	9f ef       	ldi	r25, 0xFF	; 255
    5bd2:	27 ee       	ldi	r18, 0xE7	; 231
    5bd4:	83 e0       	ldi	r24, 0x03	; 3
    5bd6:	91 50       	subi	r25, 0x01	; 1
    5bd8:	20 40       	sbci	r18, 0x00	; 0
    5bda:	80 40       	sbci	r24, 0x00	; 0
    5bdc:	e1 f7       	brne	.-8      	; 0x5bd6 <sleep_after_12h+0x3d6>
    5bde:	00 c0       	rjmp	.+0      	; 0x5be0 <sleep_after_12h+0x3e0>
    5be0:	00 00       	nop
		all_LED_OFF();
		clear_screen();
				
		char s[] = "  5 hour remaining";
		
		for (uint16_t x=0; x<(strlen(s)*8); x++)
    5be2:	0f 5f       	subi	r16, 0xFF	; 255
    5be4:	1f 4f       	sbci	r17, 0xFF	; 255
    5be6:	f7 01       	movw	r30, r14
    5be8:	01 90       	ld	r0, Z+
    5bea:	00 20       	and	r0, r0
    5bec:	e9 f7       	brne	.-6      	; 0x5be8 <sleep_after_12h+0x3e8>
    5bee:	31 97       	sbiw	r30, 0x01	; 1
    5bf0:	ee 19       	sub	r30, r14
    5bf2:	ff 09       	sbc	r31, r15
    5bf4:	ee 0f       	add	r30, r30
    5bf6:	ff 1f       	adc	r31, r31
    5bf8:	ee 0f       	add	r30, r30
    5bfa:	ff 1f       	adc	r31, r31
    5bfc:	ee 0f       	add	r30, r30
    5bfe:	ff 1f       	adc	r31, r31
    5c00:	0e 17       	cp	r16, r30
    5c02:	1f 07       	cpc	r17, r31
    5c04:	08 f3       	brcs	.-62     	; 0x5bc8 <sleep_after_12h+0x3c8>
		{
			DisplayString(x, s);
			_delay_ms(80);
		}
		ENABLE_25ms_ISR;
    5c06:	89 b7       	in	r24, 0x39	; 57
    5c08:	80 61       	ori	r24, 0x10	; 16
    5c0a:	89 bf       	out	0x39, r24	; 57
	}
	
	/* 8 hour past */
	if (Sleep_Counter == (144000*8))
    5c0c:	60 91 7b 02 	lds	r22, 0x027B
    5c10:	70 91 7c 02 	lds	r23, 0x027C
    5c14:	80 91 7d 02 	lds	r24, 0x027D
    5c18:	90 91 7e 02 	lds	r25, 0x027E
    5c1c:	20 e0       	ldi	r18, 0x00	; 0
    5c1e:	30 ea       	ldi	r19, 0xA0	; 160
    5c20:	4c e8       	ldi	r20, 0x8C	; 140
    5c22:	59 e4       	ldi	r21, 0x49	; 73
    5c24:	0e 94 25 35 	call	0x6a4a	; 0x6a4a <__cmpsf2>
    5c28:	81 11       	cpse	r24, r1
    5c2a:	38 c0       	rjmp	.+112    	; 0x5c9c <sleep_after_12h+0x49c>
	{
		DISABLE_25ms_ISR;
    5c2c:	89 b7       	in	r24, 0x39	; 57
    5c2e:	8f 7e       	andi	r24, 0xEF	; 239
    5c30:	89 bf       	out	0x39, r24	; 57
		all_LED_OFF();
    5c32:	0e 94 5a 05 	call	0xab4	; 0xab4 <all_LED_OFF>
		clear_screen();
    5c36:	0e 94 07 03 	call	0x60e	; 0x60e <clear_screen>
				
		char s[] = "  4 hour remaining";
    5c3a:	83 e1       	ldi	r24, 0x13	; 19
    5c3c:	eb e3       	ldi	r30, 0x3B	; 59
    5c3e:	f1 e0       	ldi	r31, 0x01	; 1
    5c40:	de 01       	movw	r26, r28
    5c42:	11 96       	adiw	r26, 0x01	; 1
    5c44:	01 90       	ld	r0, Z+
    5c46:	0d 92       	st	X+, r0
    5c48:	8a 95       	dec	r24
    5c4a:	e1 f7       	brne	.-8      	; 0x5c44 <sleep_after_12h+0x444>
		
		for (uint16_t x=0; x<(strlen(s)*8); x++)
    5c4c:	00 e0       	ldi	r16, 0x00	; 0
    5c4e:	10 e0       	ldi	r17, 0x00	; 0
    5c50:	ce 01       	movw	r24, r28
    5c52:	01 96       	adiw	r24, 0x01	; 1
    5c54:	7c 01       	movw	r14, r24
    5c56:	0f c0       	rjmp	.+30     	; 0x5c76 <sleep_after_12h+0x476>
		{
			DisplayString(x, s);
    5c58:	b7 01       	movw	r22, r14
    5c5a:	c8 01       	movw	r24, r16
    5c5c:	0e 94 4f 04 	call	0x89e	; 0x89e <DisplayString>
    5c60:	9f ef       	ldi	r25, 0xFF	; 255
    5c62:	27 ee       	ldi	r18, 0xE7	; 231
    5c64:	83 e0       	ldi	r24, 0x03	; 3
    5c66:	91 50       	subi	r25, 0x01	; 1
    5c68:	20 40       	sbci	r18, 0x00	; 0
    5c6a:	80 40       	sbci	r24, 0x00	; 0
    5c6c:	e1 f7       	brne	.-8      	; 0x5c66 <sleep_after_12h+0x466>
    5c6e:	00 c0       	rjmp	.+0      	; 0x5c70 <sleep_after_12h+0x470>
    5c70:	00 00       	nop
		all_LED_OFF();
		clear_screen();
				
		char s[] = "  4 hour remaining";
		
		for (uint16_t x=0; x<(strlen(s)*8); x++)
    5c72:	0f 5f       	subi	r16, 0xFF	; 255
    5c74:	1f 4f       	sbci	r17, 0xFF	; 255
    5c76:	f7 01       	movw	r30, r14
    5c78:	01 90       	ld	r0, Z+
    5c7a:	00 20       	and	r0, r0
    5c7c:	e9 f7       	brne	.-6      	; 0x5c78 <sleep_after_12h+0x478>
    5c7e:	31 97       	sbiw	r30, 0x01	; 1
    5c80:	ee 19       	sub	r30, r14
    5c82:	ff 09       	sbc	r31, r15
    5c84:	ee 0f       	add	r30, r30
    5c86:	ff 1f       	adc	r31, r31
    5c88:	ee 0f       	add	r30, r30
    5c8a:	ff 1f       	adc	r31, r31
    5c8c:	ee 0f       	add	r30, r30
    5c8e:	ff 1f       	adc	r31, r31
    5c90:	0e 17       	cp	r16, r30
    5c92:	1f 07       	cpc	r17, r31
    5c94:	08 f3       	brcs	.-62     	; 0x5c58 <sleep_after_12h+0x458>
		{
			DisplayString(x, s);
			_delay_ms(80);
		}
		ENABLE_25ms_ISR;
    5c96:	89 b7       	in	r24, 0x39	; 57
    5c98:	80 61       	ori	r24, 0x10	; 16
    5c9a:	89 bf       	out	0x39, r24	; 57
	}
	
	/* 9 hour past */
	if (Sleep_Counter == (144000*9))
    5c9c:	60 91 7b 02 	lds	r22, 0x027B
    5ca0:	70 91 7c 02 	lds	r23, 0x027C
    5ca4:	80 91 7d 02 	lds	r24, 0x027D
    5ca8:	90 91 7e 02 	lds	r25, 0x027E
    5cac:	20 e0       	ldi	r18, 0x00	; 0
    5cae:	34 e3       	ldi	r19, 0x34	; 52
    5cb0:	4e e9       	ldi	r20, 0x9E	; 158
    5cb2:	59 e4       	ldi	r21, 0x49	; 73
    5cb4:	0e 94 25 35 	call	0x6a4a	; 0x6a4a <__cmpsf2>
    5cb8:	81 11       	cpse	r24, r1
    5cba:	38 c0       	rjmp	.+112    	; 0x5d2c <sleep_after_12h+0x52c>
	{
		DISABLE_25ms_ISR;
    5cbc:	89 b7       	in	r24, 0x39	; 57
    5cbe:	8f 7e       	andi	r24, 0xEF	; 239
    5cc0:	89 bf       	out	0x39, r24	; 57
		all_LED_OFF();
    5cc2:	0e 94 5a 05 	call	0xab4	; 0xab4 <all_LED_OFF>
		clear_screen();
    5cc6:	0e 94 07 03 	call	0x60e	; 0x60e <clear_screen>
				
		char s[] = "  3 hour remaining";
    5cca:	83 e1       	ldi	r24, 0x13	; 19
    5ccc:	ee e4       	ldi	r30, 0x4E	; 78
    5cce:	f1 e0       	ldi	r31, 0x01	; 1
    5cd0:	de 01       	movw	r26, r28
    5cd2:	11 96       	adiw	r26, 0x01	; 1
    5cd4:	01 90       	ld	r0, Z+
    5cd6:	0d 92       	st	X+, r0
    5cd8:	8a 95       	dec	r24
    5cda:	e1 f7       	brne	.-8      	; 0x5cd4 <sleep_after_12h+0x4d4>
		
		for (uint16_t x=0; x<(strlen(s)*8); x++)
    5cdc:	00 e0       	ldi	r16, 0x00	; 0
    5cde:	10 e0       	ldi	r17, 0x00	; 0
    5ce0:	ce 01       	movw	r24, r28
    5ce2:	01 96       	adiw	r24, 0x01	; 1
    5ce4:	7c 01       	movw	r14, r24
    5ce6:	0f c0       	rjmp	.+30     	; 0x5d06 <sleep_after_12h+0x506>
		{
			DisplayString(x, s);
    5ce8:	b7 01       	movw	r22, r14
    5cea:	c8 01       	movw	r24, r16
    5cec:	0e 94 4f 04 	call	0x89e	; 0x89e <DisplayString>
    5cf0:	9f ef       	ldi	r25, 0xFF	; 255
    5cf2:	27 ee       	ldi	r18, 0xE7	; 231
    5cf4:	83 e0       	ldi	r24, 0x03	; 3
    5cf6:	91 50       	subi	r25, 0x01	; 1
    5cf8:	20 40       	sbci	r18, 0x00	; 0
    5cfa:	80 40       	sbci	r24, 0x00	; 0
    5cfc:	e1 f7       	brne	.-8      	; 0x5cf6 <sleep_after_12h+0x4f6>
    5cfe:	00 c0       	rjmp	.+0      	; 0x5d00 <sleep_after_12h+0x500>
    5d00:	00 00       	nop
		all_LED_OFF();
		clear_screen();
				
		char s[] = "  3 hour remaining";
		
		for (uint16_t x=0; x<(strlen(s)*8); x++)
    5d02:	0f 5f       	subi	r16, 0xFF	; 255
    5d04:	1f 4f       	sbci	r17, 0xFF	; 255
    5d06:	f7 01       	movw	r30, r14
    5d08:	01 90       	ld	r0, Z+
    5d0a:	00 20       	and	r0, r0
    5d0c:	e9 f7       	brne	.-6      	; 0x5d08 <sleep_after_12h+0x508>
    5d0e:	31 97       	sbiw	r30, 0x01	; 1
    5d10:	ee 19       	sub	r30, r14
    5d12:	ff 09       	sbc	r31, r15
    5d14:	ee 0f       	add	r30, r30
    5d16:	ff 1f       	adc	r31, r31
    5d18:	ee 0f       	add	r30, r30
    5d1a:	ff 1f       	adc	r31, r31
    5d1c:	ee 0f       	add	r30, r30
    5d1e:	ff 1f       	adc	r31, r31
    5d20:	0e 17       	cp	r16, r30
    5d22:	1f 07       	cpc	r17, r31
    5d24:	08 f3       	brcs	.-62     	; 0x5ce8 <sleep_after_12h+0x4e8>
		{
			DisplayString(x, s);
			_delay_ms(80);
		}
		ENABLE_25ms_ISR;
    5d26:	89 b7       	in	r24, 0x39	; 57
    5d28:	80 61       	ori	r24, 0x10	; 16
    5d2a:	89 bf       	out	0x39, r24	; 57
	}
	
	/* 10 hour past */
	if (Sleep_Counter == (144000*10))
    5d2c:	60 91 7b 02 	lds	r22, 0x027B
    5d30:	70 91 7c 02 	lds	r23, 0x027C
    5d34:	80 91 7d 02 	lds	r24, 0x027D
    5d38:	90 91 7e 02 	lds	r25, 0x027E
    5d3c:	20 e0       	ldi	r18, 0x00	; 0
    5d3e:	38 ec       	ldi	r19, 0xC8	; 200
    5d40:	4f ea       	ldi	r20, 0xAF	; 175
    5d42:	59 e4       	ldi	r21, 0x49	; 73
    5d44:	0e 94 25 35 	call	0x6a4a	; 0x6a4a <__cmpsf2>
    5d48:	81 11       	cpse	r24, r1
    5d4a:	38 c0       	rjmp	.+112    	; 0x5dbc <sleep_after_12h+0x5bc>
	{
		DISABLE_25ms_ISR;
    5d4c:	89 b7       	in	r24, 0x39	; 57
    5d4e:	8f 7e       	andi	r24, 0xEF	; 239
    5d50:	89 bf       	out	0x39, r24	; 57
		all_LED_OFF();
    5d52:	0e 94 5a 05 	call	0xab4	; 0xab4 <all_LED_OFF>
		clear_screen();
    5d56:	0e 94 07 03 	call	0x60e	; 0x60e <clear_screen>
				
		char s[] = "  2 hour remaining";
    5d5a:	83 e1       	ldi	r24, 0x13	; 19
    5d5c:	e1 e6       	ldi	r30, 0x61	; 97
    5d5e:	f1 e0       	ldi	r31, 0x01	; 1
    5d60:	de 01       	movw	r26, r28
    5d62:	11 96       	adiw	r26, 0x01	; 1
    5d64:	01 90       	ld	r0, Z+
    5d66:	0d 92       	st	X+, r0
    5d68:	8a 95       	dec	r24
    5d6a:	e1 f7       	brne	.-8      	; 0x5d64 <sleep_after_12h+0x564>
		
		for (uint16_t x=0; x<(strlen(s)*8); x++)
    5d6c:	00 e0       	ldi	r16, 0x00	; 0
    5d6e:	10 e0       	ldi	r17, 0x00	; 0
    5d70:	ce 01       	movw	r24, r28
    5d72:	01 96       	adiw	r24, 0x01	; 1
    5d74:	7c 01       	movw	r14, r24
    5d76:	0f c0       	rjmp	.+30     	; 0x5d96 <sleep_after_12h+0x596>
		{
			DisplayString(x, s);
    5d78:	b7 01       	movw	r22, r14
    5d7a:	c8 01       	movw	r24, r16
    5d7c:	0e 94 4f 04 	call	0x89e	; 0x89e <DisplayString>
    5d80:	9f ef       	ldi	r25, 0xFF	; 255
    5d82:	27 ee       	ldi	r18, 0xE7	; 231
    5d84:	83 e0       	ldi	r24, 0x03	; 3
    5d86:	91 50       	subi	r25, 0x01	; 1
    5d88:	20 40       	sbci	r18, 0x00	; 0
    5d8a:	80 40       	sbci	r24, 0x00	; 0
    5d8c:	e1 f7       	brne	.-8      	; 0x5d86 <sleep_after_12h+0x586>
    5d8e:	00 c0       	rjmp	.+0      	; 0x5d90 <sleep_after_12h+0x590>
    5d90:	00 00       	nop
		all_LED_OFF();
		clear_screen();
				
		char s[] = "  2 hour remaining";
		
		for (uint16_t x=0; x<(strlen(s)*8); x++)
    5d92:	0f 5f       	subi	r16, 0xFF	; 255
    5d94:	1f 4f       	sbci	r17, 0xFF	; 255
    5d96:	f7 01       	movw	r30, r14
    5d98:	01 90       	ld	r0, Z+
    5d9a:	00 20       	and	r0, r0
    5d9c:	e9 f7       	brne	.-6      	; 0x5d98 <sleep_after_12h+0x598>
    5d9e:	31 97       	sbiw	r30, 0x01	; 1
    5da0:	ee 19       	sub	r30, r14
    5da2:	ff 09       	sbc	r31, r15
    5da4:	ee 0f       	add	r30, r30
    5da6:	ff 1f       	adc	r31, r31
    5da8:	ee 0f       	add	r30, r30
    5daa:	ff 1f       	adc	r31, r31
    5dac:	ee 0f       	add	r30, r30
    5dae:	ff 1f       	adc	r31, r31
    5db0:	0e 17       	cp	r16, r30
    5db2:	1f 07       	cpc	r17, r31
    5db4:	08 f3       	brcs	.-62     	; 0x5d78 <sleep_after_12h+0x578>
		{
			DisplayString(x, s);
			_delay_ms(80);
		}
		ENABLE_25ms_ISR;
    5db6:	89 b7       	in	r24, 0x39	; 57
    5db8:	80 61       	ori	r24, 0x10	; 16
    5dba:	89 bf       	out	0x39, r24	; 57
	}
	
	/* 11 hour past */
	if (Sleep_Counter == (144000*11))
    5dbc:	60 91 7b 02 	lds	r22, 0x027B
    5dc0:	70 91 7c 02 	lds	r23, 0x027C
    5dc4:	80 91 7d 02 	lds	r24, 0x027D
    5dc8:	90 91 7e 02 	lds	r25, 0x027E
    5dcc:	20 e0       	ldi	r18, 0x00	; 0
    5dce:	3c e5       	ldi	r19, 0x5C	; 92
    5dd0:	41 ec       	ldi	r20, 0xC1	; 193
    5dd2:	59 e4       	ldi	r21, 0x49	; 73
    5dd4:	0e 94 25 35 	call	0x6a4a	; 0x6a4a <__cmpsf2>
    5dd8:	81 11       	cpse	r24, r1
    5dda:	38 c0       	rjmp	.+112    	; 0x5e4c <sleep_after_12h+0x64c>
	{
		DISABLE_25ms_ISR;
    5ddc:	89 b7       	in	r24, 0x39	; 57
    5dde:	8f 7e       	andi	r24, 0xEF	; 239
    5de0:	89 bf       	out	0x39, r24	; 57
		all_LED_OFF();
    5de2:	0e 94 5a 05 	call	0xab4	; 0xab4 <all_LED_OFF>
		clear_screen();
    5de6:	0e 94 07 03 	call	0x60e	; 0x60e <clear_screen>
				
		char s[] = "  1 hour remaining";
    5dea:	83 e1       	ldi	r24, 0x13	; 19
    5dec:	e4 e7       	ldi	r30, 0x74	; 116
    5dee:	f1 e0       	ldi	r31, 0x01	; 1
    5df0:	de 01       	movw	r26, r28
    5df2:	11 96       	adiw	r26, 0x01	; 1
    5df4:	01 90       	ld	r0, Z+
    5df6:	0d 92       	st	X+, r0
    5df8:	8a 95       	dec	r24
    5dfa:	e1 f7       	brne	.-8      	; 0x5df4 <sleep_after_12h+0x5f4>
		
		for (uint16_t x=0; x<(strlen(s)*8); x++)
    5dfc:	00 e0       	ldi	r16, 0x00	; 0
    5dfe:	10 e0       	ldi	r17, 0x00	; 0
    5e00:	ce 01       	movw	r24, r28
    5e02:	01 96       	adiw	r24, 0x01	; 1
    5e04:	7c 01       	movw	r14, r24
    5e06:	0f c0       	rjmp	.+30     	; 0x5e26 <sleep_after_12h+0x626>
		{
			DisplayString(x, s);
    5e08:	b7 01       	movw	r22, r14
    5e0a:	c8 01       	movw	r24, r16
    5e0c:	0e 94 4f 04 	call	0x89e	; 0x89e <DisplayString>
    5e10:	9f ef       	ldi	r25, 0xFF	; 255
    5e12:	27 ee       	ldi	r18, 0xE7	; 231
    5e14:	83 e0       	ldi	r24, 0x03	; 3
    5e16:	91 50       	subi	r25, 0x01	; 1
    5e18:	20 40       	sbci	r18, 0x00	; 0
    5e1a:	80 40       	sbci	r24, 0x00	; 0
    5e1c:	e1 f7       	brne	.-8      	; 0x5e16 <sleep_after_12h+0x616>
    5e1e:	00 c0       	rjmp	.+0      	; 0x5e20 <sleep_after_12h+0x620>
    5e20:	00 00       	nop
		all_LED_OFF();
		clear_screen();
				
		char s[] = "  1 hour remaining";
		
		for (uint16_t x=0; x<(strlen(s)*8); x++)
    5e22:	0f 5f       	subi	r16, 0xFF	; 255
    5e24:	1f 4f       	sbci	r17, 0xFF	; 255
    5e26:	f7 01       	movw	r30, r14
    5e28:	01 90       	ld	r0, Z+
    5e2a:	00 20       	and	r0, r0
    5e2c:	e9 f7       	brne	.-6      	; 0x5e28 <sleep_after_12h+0x628>
    5e2e:	31 97       	sbiw	r30, 0x01	; 1
    5e30:	ee 19       	sub	r30, r14
    5e32:	ff 09       	sbc	r31, r15
    5e34:	ee 0f       	add	r30, r30
    5e36:	ff 1f       	adc	r31, r31
    5e38:	ee 0f       	add	r30, r30
    5e3a:	ff 1f       	adc	r31, r31
    5e3c:	ee 0f       	add	r30, r30
    5e3e:	ff 1f       	adc	r31, r31
    5e40:	0e 17       	cp	r16, r30
    5e42:	1f 07       	cpc	r17, r31
    5e44:	08 f3       	brcs	.-62     	; 0x5e08 <sleep_after_12h+0x608>
		{
			DisplayString(x, s);
			_delay_ms(80);
		}
		ENABLE_25ms_ISR;
    5e46:	89 b7       	in	r24, 0x39	; 57
    5e48:	80 61       	ori	r24, 0x10	; 16
    5e4a:	89 bf       	out	0x39, r24	; 57
	}
	
#endif
// Zählwert = 12 Stunden	
	if (Sleep_Counter >= 1728000)
    5e4c:	60 91 7b 02 	lds	r22, 0x027B
    5e50:	70 91 7c 02 	lds	r23, 0x027C
    5e54:	80 91 7d 02 	lds	r24, 0x027D
    5e58:	90 91 7e 02 	lds	r25, 0x027E
    5e5c:	20 e0       	ldi	r18, 0x00	; 0
    5e5e:	30 ef       	ldi	r19, 0xF0	; 240
    5e60:	42 ed       	ldi	r20, 0xD2	; 210
    5e62:	59 e4       	ldi	r21, 0x49	; 73
    5e64:	0e 94 9e 35 	call	0x6b3c	; 0x6b3c <__gesf2>
    5e68:	88 23       	and	r24, r24
    5e6a:	0c f4       	brge	.+2      	; 0x5e6e <sleep_after_12h+0x66e>
    5e6c:	42 c0       	rjmp	.+132    	; 0x5ef2 <sleep_after_12h+0x6f2>
	{
		DISABLE_25ms_ISR;
    5e6e:	89 b7       	in	r24, 0x39	; 57
    5e70:	8f 7e       	andi	r24, 0xEF	; 239
    5e72:	89 bf       	out	0x39, r24	; 57
		all_LED_OFF();
    5e74:	0e 94 5a 05 	call	0xab4	; 0xab4 <all_LED_OFF>
		clear_screen();
    5e78:	0e 94 07 03 	call	0x60e	; 0x60e <clear_screen>
		
		char s[] = "  sleep after 12 hour activated";
    5e7c:	80 e2       	ldi	r24, 0x20	; 32
    5e7e:	e7 e8       	ldi	r30, 0x87	; 135
    5e80:	f1 e0       	ldi	r31, 0x01	; 1
    5e82:	de 01       	movw	r26, r28
    5e84:	11 96       	adiw	r26, 0x01	; 1
    5e86:	01 90       	ld	r0, Z+
    5e88:	0d 92       	st	X+, r0
    5e8a:	8a 95       	dec	r24
    5e8c:	e1 f7       	brne	.-8      	; 0x5e86 <sleep_after_12h+0x686>
		
		for (uint16_t x=0; x<(strlen(s)*8); x++)
    5e8e:	00 e0       	ldi	r16, 0x00	; 0
    5e90:	10 e0       	ldi	r17, 0x00	; 0
    5e92:	ce 01       	movw	r24, r28
    5e94:	01 96       	adiw	r24, 0x01	; 1
    5e96:	7c 01       	movw	r14, r24
    5e98:	0f c0       	rjmp	.+30     	; 0x5eb8 <sleep_after_12h+0x6b8>
		{
			DisplayString(x, s);
    5e9a:	b7 01       	movw	r22, r14
    5e9c:	c8 01       	movw	r24, r16
    5e9e:	0e 94 4f 04 	call	0x89e	; 0x89e <DisplayString>
    5ea2:	9f ef       	ldi	r25, 0xFF	; 255
    5ea4:	27 ee       	ldi	r18, 0xE7	; 231
    5ea6:	83 e0       	ldi	r24, 0x03	; 3
    5ea8:	91 50       	subi	r25, 0x01	; 1
    5eaa:	20 40       	sbci	r18, 0x00	; 0
    5eac:	80 40       	sbci	r24, 0x00	; 0
    5eae:	e1 f7       	brne	.-8      	; 0x5ea8 <sleep_after_12h+0x6a8>
    5eb0:	00 c0       	rjmp	.+0      	; 0x5eb2 <sleep_after_12h+0x6b2>
    5eb2:	00 00       	nop
		all_LED_OFF();
		clear_screen();
		
		char s[] = "  sleep after 12 hour activated";
		
		for (uint16_t x=0; x<(strlen(s)*8); x++)
    5eb4:	0f 5f       	subi	r16, 0xFF	; 255
    5eb6:	1f 4f       	sbci	r17, 0xFF	; 255
    5eb8:	f7 01       	movw	r30, r14
    5eba:	01 90       	ld	r0, Z+
    5ebc:	00 20       	and	r0, r0
    5ebe:	e9 f7       	brne	.-6      	; 0x5eba <sleep_after_12h+0x6ba>
    5ec0:	31 97       	sbiw	r30, 0x01	; 1
    5ec2:	ee 19       	sub	r30, r14
    5ec4:	ff 09       	sbc	r31, r15
    5ec6:	ee 0f       	add	r30, r30
    5ec8:	ff 1f       	adc	r31, r31
    5eca:	ee 0f       	add	r30, r30
    5ecc:	ff 1f       	adc	r31, r31
    5ece:	ee 0f       	add	r30, r30
    5ed0:	ff 1f       	adc	r31, r31
    5ed2:	0e 17       	cp	r16, r30
    5ed4:	1f 07       	cpc	r17, r31
    5ed6:	08 f3       	brcs	.-62     	; 0x5e9a <sleep_after_12h+0x69a>
		{
			DisplayString(x, s);
			_delay_ms(80);
		}
		ENABLE_25ms_ISR;		
    5ed8:	89 b7       	in	r24, 0x39	; 57
    5eda:	80 61       	ori	r24, 0x10	; 16
    5edc:	89 bf       	out	0x39, r24	; 57
		Sleep_Counter = 0;
    5ede:	10 92 7b 02 	sts	0x027B, r1
    5ee2:	10 92 7c 02 	sts	0x027C, r1
    5ee6:	10 92 7d 02 	sts	0x027D, r1
    5eea:	10 92 7e 02 	sts	0x027E, r1
		go_sleep();
    5eee:	0e 94 5d 07 	call	0xeba	; 0xeba <go_sleep>
	}	
}
    5ef2:	a0 96       	adiw	r28, 0x20	; 32
    5ef4:	0f b6       	in	r0, 0x3f	; 63
    5ef6:	f8 94       	cli
    5ef8:	de bf       	out	0x3e, r29	; 62
    5efa:	0f be       	out	0x3f, r0	; 63
    5efc:	cd bf       	out	0x3d, r28	; 61
    5efe:	df 91       	pop	r29
    5f00:	cf 91       	pop	r28
    5f02:	1f 91       	pop	r17
    5f04:	0f 91       	pop	r16
    5f06:	ff 90       	pop	r15
    5f08:	ef 90       	pop	r14
    5f0a:	08 95       	ret

00005f0c <check_accu_after_100ms>:

/* check the accu after 100ms */
void check_accu_after_100ms(void)
{
	if (Counter_For_Reading_Accu >= 4)
    5f0c:	80 91 38 02 	lds	r24, 0x0238
    5f10:	84 30       	cpi	r24, 0x04	; 4
    5f12:	20 f0       	brcs	.+8      	; 0x5f1c <check_accu_after_100ms+0x10>
	{
		Counter_For_Reading_Accu = 0;
    5f14:	10 92 38 02 	sts	0x0238, r1
		check_Accu();
    5f18:	0e 94 6e 2a 	call	0x54dc	; 0x54dc <check_Accu>
    5f1c:	08 95       	ret

00005f1e <check_overflow>:
		
#endif

#ifdef MENUE_CHANGE_TWO

	if (LED_Status >= 13)
    5f1e:	80 91 28 02 	lds	r24, 0x0228
    5f22:	90 91 29 02 	lds	r25, 0x0229
    5f26:	0d 97       	sbiw	r24, 0x0d	; 13
    5f28:	30 f0       	brcs	.+12     	; 0x5f36 <check_overflow+0x18>
	{
		LED_Status = 1;
    5f2a:	81 e0       	ldi	r24, 0x01	; 1
    5f2c:	90 e0       	ldi	r25, 0x00	; 0
    5f2e:	90 93 29 02 	sts	0x0229, r25
    5f32:	80 93 28 02 	sts	0x0228, r24
	}

	if (LED_Status <= 0)
    5f36:	80 91 28 02 	lds	r24, 0x0228
    5f3a:	90 91 29 02 	lds	r25, 0x0229
    5f3e:	89 2b       	or	r24, r25
    5f40:	31 f4       	brne	.+12     	; 0x5f4e <check_overflow+0x30>
	{
		LED_Status = 12;
    5f42:	8c e0       	ldi	r24, 0x0C	; 12
    5f44:	90 e0       	ldi	r25, 0x00	; 0
    5f46:	90 93 29 02 	sts	0x0229, r25
    5f4a:	80 93 28 02 	sts	0x0228, r24
    5f4e:	08 95       	ret

00005f50 <Every_Third_LED_Down>:

/* testmode */
void Every_Third_LED_Down(void)
{

	if (LED_Status != LED_Status_Old)
    5f50:	20 91 28 02 	lds	r18, 0x0228
    5f54:	30 91 29 02 	lds	r19, 0x0229
    5f58:	80 91 5e 02 	lds	r24, 0x025E
    5f5c:	90 91 5f 02 	lds	r25, 0x025F
    5f60:	28 17       	cp	r18, r24
    5f62:	39 07       	cpc	r19, r25
    5f64:	09 f4       	brne	.+2      	; 0x5f68 <Every_Third_LED_Down+0x18>
    5f66:	5f c0       	rjmp	.+190    	; 0x6026 <Every_Third_LED_Down+0xd6>
	{
		LED_Status_Old = LED_Status;
    5f68:	80 91 28 02 	lds	r24, 0x0228
    5f6c:	90 91 29 02 	lds	r25, 0x0229
    5f70:	90 93 5f 02 	sts	0x025F, r25
    5f74:	80 93 5e 02 	sts	0x025E, r24
		eeprom_write_byte(&EEPROM_save_LED_Status, LED_Status);
    5f78:	60 91 28 02 	lds	r22, 0x0228
    5f7c:	70 91 29 02 	lds	r23, 0x0229
    5f80:	80 e0       	ldi	r24, 0x00	; 0
    5f82:	90 e0       	ldi	r25, 0x00	; 0
    5f84:	0e 94 36 36 	call	0x6c6c	; 0x6c6c <__eewr_byte_m32>
		all_LED_OFF();
    5f88:	0e 94 5a 05 	call	0xab4	; 0xab4 <all_LED_OFF>
		LED_0 = 0;
    5f8c:	10 92 59 02 	sts	0x0259, r1
    5f90:	10 92 58 02 	sts	0x0258, r1
		LED_1 = 1;
    5f94:	81 e0       	ldi	r24, 0x01	; 1
    5f96:	90 e0       	ldi	r25, 0x00	; 0
    5f98:	90 93 4b 02 	sts	0x024B, r25
    5f9c:	80 93 4a 02 	sts	0x024A, r24
		LED_2 = 2;
    5fa0:	82 e0       	ldi	r24, 0x02	; 2
    5fa2:	90 e0       	ldi	r25, 0x00	; 0
    5fa4:	90 93 87 02 	sts	0x0287, r25
    5fa8:	80 93 86 02 	sts	0x0286, r24
		LED_3 = 6;
    5fac:	86 e0       	ldi	r24, 0x06	; 6
    5fae:	90 e0       	ldi	r25, 0x00	; 0
    5fb0:	90 93 35 02 	sts	0x0235, r25
    5fb4:	80 93 34 02 	sts	0x0234, r24
		LED_4 = 7;
    5fb8:	87 e0       	ldi	r24, 0x07	; 7
    5fba:	90 e0       	ldi	r25, 0x00	; 0
    5fbc:	90 93 62 02 	sts	0x0262, r25
    5fc0:	80 93 61 02 	sts	0x0261, r24
		LED_5 = 8;
    5fc4:	88 e0       	ldi	r24, 0x08	; 8
    5fc6:	90 e0       	ldi	r25, 0x00	; 0
    5fc8:	90 93 8b 02 	sts	0x028B, r25
    5fcc:	80 93 8a 02 	sts	0x028A, r24
		LED_6 = 12;
    5fd0:	2c e0       	ldi	r18, 0x0C	; 12
    5fd2:	30 e0       	ldi	r19, 0x00	; 0
    5fd4:	30 93 49 02 	sts	0x0249, r19
    5fd8:	20 93 48 02 	sts	0x0248, r18
		LED_7 = 13;
    5fdc:	2d e0       	ldi	r18, 0x0D	; 13
    5fde:	30 e0       	ldi	r19, 0x00	; 0
    5fe0:	30 93 5b 02 	sts	0x025B, r19
    5fe4:	20 93 5a 02 	sts	0x025A, r18
		LED_8 = 14;
    5fe8:	2e e0       	ldi	r18, 0x0E	; 14
    5fea:	30 e0       	ldi	r19, 0x00	; 0
    5fec:	30 93 2b 02 	sts	0x022B, r19
    5ff0:	20 93 2a 02 	sts	0x022A, r18
		Counter = 0;
    5ff4:	10 92 57 02 	sts	0x0257, r1
    5ff8:	10 92 56 02 	sts	0x0256, r1
		Brightness = 8;
    5ffc:	90 93 71 00 	sts	0x0071, r25
    6000:	80 93 70 00 	sts	0x0070, r24
		Counter_For_Display = 0;
    6004:	10 92 66 02 	sts	0x0266, r1
    6008:	10 92 65 02 	sts	0x0265, r1
		counter_for_change_accu_symbol = 0;
    600c:	10 92 43 02 	sts	0x0243, r1
    6010:	10 92 42 02 	sts	0x0242, r1
		if (LED_Status != 12)
    6014:	80 91 28 02 	lds	r24, 0x0228
    6018:	90 91 29 02 	lds	r25, 0x0229
    601c:	0c 97       	sbiw	r24, 0x0c	; 12
    601e:	19 f0       	breq	.+6      	; 0x6026 <Every_Third_LED_Down+0xd6>
		{
			Display_a_Character(10);
    6020:	8a e0       	ldi	r24, 0x0A	; 10
    6022:	0e 94 f3 04 	call	0x9e6	; 0x9e6 <Display_a_Character>
		}
	}
	Counter ++;
    6026:	80 91 56 02 	lds	r24, 0x0256
    602a:	90 91 57 02 	lds	r25, 0x0257
    602e:	01 96       	adiw	r24, 0x01	; 1
    6030:	90 93 57 02 	sts	0x0257, r25
    6034:	80 93 56 02 	sts	0x0256, r24
	Counter_1 ++;
    6038:	80 91 71 02 	lds	r24, 0x0271
    603c:	90 91 72 02 	lds	r25, 0x0272
    6040:	01 96       	adiw	r24, 0x01	; 1
    6042:	90 93 72 02 	sts	0x0272, r25
    6046:	80 93 71 02 	sts	0x0271, r24



	if (Counter_1 <= 5000)
    604a:	80 91 71 02 	lds	r24, 0x0271
    604e:	90 91 72 02 	lds	r25, 0x0272
    6052:	89 38       	cpi	r24, 0x89	; 137
    6054:	93 41       	sbci	r25, 0x13	; 19
    6056:	08 f0       	brcs	.+2      	; 0x605a <Every_Third_LED_Down+0x10a>
    6058:	9f c0       	rjmp	.+318    	; 0x6198 <Every_Third_LED_Down+0x248>
	{
		
		/* PWM-Routine */
		if (Counter >= 80)
    605a:	80 91 56 02 	lds	r24, 0x0256
    605e:	90 91 57 02 	lds	r25, 0x0257
    6062:	80 35       	cpi	r24, 0x50	; 80
    6064:	91 05       	cpc	r25, r1
    6066:	08 f4       	brcc	.+2      	; 0x606a <Every_Third_LED_Down+0x11a>
    6068:	54 c0       	rjmp	.+168    	; 0x6112 <Every_Third_LED_Down+0x1c2>
		{
			Counter = 0;
    606a:	10 92 57 02 	sts	0x0257, r1
    606e:	10 92 56 02 	sts	0x0256, r1
			
			if (Brightness > 0)
    6072:	80 91 70 00 	lds	r24, 0x0070
    6076:	90 91 71 00 	lds	r25, 0x0071
    607a:	89 2b       	or	r24, r25
    607c:	09 f4       	brne	.+2      	; 0x6080 <Every_Third_LED_Down+0x130>
    607e:	8a c0       	rjmp	.+276    	; 0x6194 <Every_Third_LED_Down+0x244>
			{
				com74hc595_setPort(0,0b01001001);
    6080:	69 e4       	ldi	r22, 0x49	; 73
    6082:	80 e0       	ldi	r24, 0x00	; 0
    6084:	0e 94 dd 01 	call	0x3ba	; 0x3ba <com74hc595_setPort>
				com74hc595_setPort(1,0b10010010);
    6088:	62 e9       	ldi	r22, 0x92	; 146
    608a:	81 e0       	ldi	r24, 0x01	; 1
    608c:	0e 94 dd 01 	call	0x3ba	; 0x3ba <com74hc595_setPort>
				com74hc595_setPort(2,0b00100100);
    6090:	64 e2       	ldi	r22, 0x24	; 36
    6092:	82 e0       	ldi	r24, 0x02	; 2
    6094:	0e 94 dd 01 	call	0x3ba	; 0x3ba <com74hc595_setPort>
				com74hc595_setPort(3,0b01001001);
    6098:	69 e4       	ldi	r22, 0x49	; 73
    609a:	83 e0       	ldi	r24, 0x03	; 3
    609c:	0e 94 dd 01 	call	0x3ba	; 0x3ba <com74hc595_setPort>
				com74hc595_setPort(4,0b10010010);
    60a0:	62 e9       	ldi	r22, 0x92	; 146
    60a2:	84 e0       	ldi	r24, 0x04	; 4
    60a4:	0e 94 dd 01 	call	0x3ba	; 0x3ba <com74hc595_setPort>
				com74hc595_setPort(5,0b00100100);
    60a8:	64 e2       	ldi	r22, 0x24	; 36
    60aa:	85 e0       	ldi	r24, 0x05	; 5
    60ac:	0e 94 dd 01 	call	0x3ba	; 0x3ba <com74hc595_setPort>
				com74hc595_setPort(6,0b01001001);
    60b0:	69 e4       	ldi	r22, 0x49	; 73
    60b2:	86 e0       	ldi	r24, 0x06	; 6
    60b4:	0e 94 dd 01 	call	0x3ba	; 0x3ba <com74hc595_setPort>
				com74hc595_setPort(7,0b10010010);
    60b8:	62 e9       	ldi	r22, 0x92	; 146
    60ba:	87 e0       	ldi	r24, 0x07	; 7
    60bc:	0e 94 dd 01 	call	0x3ba	; 0x3ba <com74hc595_setPort>
				com74hc595_setPort(8,0b00100100);
    60c0:	64 e2       	ldi	r22, 0x24	; 36
    60c2:	88 e0       	ldi	r24, 0x08	; 8
    60c4:	0e 94 dd 01 	call	0x3ba	; 0x3ba <com74hc595_setPort>
				com74hc595_setPort(9,0b01001001);
    60c8:	69 e4       	ldi	r22, 0x49	; 73
    60ca:	89 e0       	ldi	r24, 0x09	; 9
    60cc:	0e 94 dd 01 	call	0x3ba	; 0x3ba <com74hc595_setPort>
				com74hc595_setPort(10,0b10010010);
    60d0:	62 e9       	ldi	r22, 0x92	; 146
    60d2:	8a e0       	ldi	r24, 0x0A	; 10
    60d4:	0e 94 dd 01 	call	0x3ba	; 0x3ba <com74hc595_setPort>
				com74hc595_setPort(11,0b00100100);
    60d8:	64 e2       	ldi	r22, 0x24	; 36
    60da:	8b e0       	ldi	r24, 0x0B	; 11
    60dc:	0e 94 dd 01 	call	0x3ba	; 0x3ba <com74hc595_setPort>
				com74hc595_setPort(12,0b01001001);
    60e0:	69 e4       	ldi	r22, 0x49	; 73
    60e2:	8c e0       	ldi	r24, 0x0C	; 12
    60e4:	0e 94 dd 01 	call	0x3ba	; 0x3ba <com74hc595_setPort>
				com74hc595_setPort(13,0b10010010);
    60e8:	62 e9       	ldi	r22, 0x92	; 146
    60ea:	8d e0       	ldi	r24, 0x0D	; 13
    60ec:	0e 94 dd 01 	call	0x3ba	; 0x3ba <com74hc595_setPort>
				com74hc595_setPort(14,0b00100100);
    60f0:	64 e2       	ldi	r22, 0x24	; 36
    60f2:	8e e0       	ldi	r24, 0x0E	; 14
    60f4:	0e 94 dd 01 	call	0x3ba	; 0x3ba <com74hc595_setPort>
				com74hc595_setPort(15,0b01001001);
    60f8:	69 e4       	ldi	r22, 0x49	; 73
    60fa:	8f e0       	ldi	r24, 0x0F	; 15
    60fc:	0e 94 dd 01 	call	0x3ba	; 0x3ba <com74hc595_setPort>
				com74hc595_setPort(16,0b10010010);
    6100:	62 e9       	ldi	r22, 0x92	; 146
    6102:	80 e1       	ldi	r24, 0x10	; 16
    6104:	0e 94 dd 01 	call	0x3ba	; 0x3ba <com74hc595_setPort>
				com74hc595_setPort(17,0b00100100);
    6108:	64 e2       	ldi	r22, 0x24	; 36
    610a:	81 e1       	ldi	r24, 0x11	; 17
    610c:	0e 94 dd 01 	call	0x3ba	; 0x3ba <com74hc595_setPort>
    6110:	41 c0       	rjmp	.+130    	; 0x6194 <Every_Third_LED_Down+0x244>
			}
		}
		else
		{
			if (Counter == Brightness)
    6112:	20 91 56 02 	lds	r18, 0x0256
    6116:	30 91 57 02 	lds	r19, 0x0257
    611a:	80 91 70 00 	lds	r24, 0x0070
    611e:	90 91 71 00 	lds	r25, 0x0071
    6122:	28 17       	cp	r18, r24
    6124:	39 07       	cpc	r19, r25
    6126:	b1 f5       	brne	.+108    	; 0x6194 <Every_Third_LED_Down+0x244>
			{
				com74hc595_unsetPort(0);
    6128:	80 e0       	ldi	r24, 0x00	; 0
    612a:	0e 94 e3 01 	call	0x3c6	; 0x3c6 <com74hc595_unsetPort>
				com74hc595_unsetPort(1);
    612e:	81 e0       	ldi	r24, 0x01	; 1
    6130:	0e 94 e3 01 	call	0x3c6	; 0x3c6 <com74hc595_unsetPort>
				com74hc595_unsetPort(2);
    6134:	82 e0       	ldi	r24, 0x02	; 2
    6136:	0e 94 e3 01 	call	0x3c6	; 0x3c6 <com74hc595_unsetPort>
				com74hc595_unsetPort(3);
    613a:	83 e0       	ldi	r24, 0x03	; 3
    613c:	0e 94 e3 01 	call	0x3c6	; 0x3c6 <com74hc595_unsetPort>
				com74hc595_unsetPort(4);
    6140:	84 e0       	ldi	r24, 0x04	; 4
    6142:	0e 94 e3 01 	call	0x3c6	; 0x3c6 <com74hc595_unsetPort>
				com74hc595_unsetPort(5);
    6146:	85 e0       	ldi	r24, 0x05	; 5
    6148:	0e 94 e3 01 	call	0x3c6	; 0x3c6 <com74hc595_unsetPort>
				com74hc595_unsetPort(6);
    614c:	86 e0       	ldi	r24, 0x06	; 6
    614e:	0e 94 e3 01 	call	0x3c6	; 0x3c6 <com74hc595_unsetPort>
				com74hc595_unsetPort(7);
    6152:	87 e0       	ldi	r24, 0x07	; 7
    6154:	0e 94 e3 01 	call	0x3c6	; 0x3c6 <com74hc595_unsetPort>
				com74hc595_unsetPort(8);
    6158:	88 e0       	ldi	r24, 0x08	; 8
    615a:	0e 94 e3 01 	call	0x3c6	; 0x3c6 <com74hc595_unsetPort>
				com74hc595_unsetPort(9);
    615e:	89 e0       	ldi	r24, 0x09	; 9
    6160:	0e 94 e3 01 	call	0x3c6	; 0x3c6 <com74hc595_unsetPort>
				com74hc595_unsetPort(10);
    6164:	8a e0       	ldi	r24, 0x0A	; 10
    6166:	0e 94 e3 01 	call	0x3c6	; 0x3c6 <com74hc595_unsetPort>
				com74hc595_unsetPort(11);
    616a:	8b e0       	ldi	r24, 0x0B	; 11
    616c:	0e 94 e3 01 	call	0x3c6	; 0x3c6 <com74hc595_unsetPort>
				com74hc595_unsetPort(12);
    6170:	8c e0       	ldi	r24, 0x0C	; 12
    6172:	0e 94 e3 01 	call	0x3c6	; 0x3c6 <com74hc595_unsetPort>
				com74hc595_unsetPort(13);
    6176:	8d e0       	ldi	r24, 0x0D	; 13
    6178:	0e 94 e3 01 	call	0x3c6	; 0x3c6 <com74hc595_unsetPort>
				com74hc595_unsetPort(14);
    617c:	8e e0       	ldi	r24, 0x0E	; 14
    617e:	0e 94 e3 01 	call	0x3c6	; 0x3c6 <com74hc595_unsetPort>
				com74hc595_unsetPort(15);
    6182:	8f e0       	ldi	r24, 0x0F	; 15
    6184:	0e 94 e3 01 	call	0x3c6	; 0x3c6 <com74hc595_unsetPort>
				com74hc595_unsetPort(16);
    6188:	80 e1       	ldi	r24, 0x10	; 16
    618a:	0e 94 e3 01 	call	0x3c6	; 0x3c6 <com74hc595_unsetPort>
				com74hc595_unsetPort(17);
    618e:	81 e1       	ldi	r24, 0x11	; 17
    6190:	0e 94 e3 01 	call	0x3c6	; 0x3c6 <com74hc595_unsetPort>
			}
		}
		com74hc595_out();
    6194:	0e 94 e9 01 	call	0x3d2	; 0x3d2 <com74hc595_out>





	if (Counter_1 <= 10000)
    6198:	80 91 71 02 	lds	r24, 0x0271
    619c:	90 91 72 02 	lds	r25, 0x0272
    61a0:	81 31       	cpi	r24, 0x11	; 17
    61a2:	97 42       	sbci	r25, 0x27	; 39
    61a4:	08 f0       	brcs	.+2      	; 0x61a8 <Every_Third_LED_Down+0x258>
    61a6:	a7 c0       	rjmp	.+334    	; 0x62f6 <Every_Third_LED_Down+0x3a6>
	{
		if (Counter_1 >= 5000)
    61a8:	80 91 71 02 	lds	r24, 0x0271
    61ac:	90 91 72 02 	lds	r25, 0x0272
    61b0:	88 38       	cpi	r24, 0x88	; 136
    61b2:	93 41       	sbci	r25, 0x13	; 19
    61b4:	08 f4       	brcc	.+2      	; 0x61b8 <Every_Third_LED_Down+0x268>
    61b6:	9f c0       	rjmp	.+318    	; 0x62f6 <Every_Third_LED_Down+0x3a6>
		{			
			/* PWM-Routine */
			if (Counter >= 80)
    61b8:	80 91 56 02 	lds	r24, 0x0256
    61bc:	90 91 57 02 	lds	r25, 0x0257
    61c0:	80 35       	cpi	r24, 0x50	; 80
    61c2:	91 05       	cpc	r25, r1
    61c4:	08 f4       	brcc	.+2      	; 0x61c8 <Every_Third_LED_Down+0x278>
    61c6:	54 c0       	rjmp	.+168    	; 0x6270 <Every_Third_LED_Down+0x320>
			{
				Counter = 0;
    61c8:	10 92 57 02 	sts	0x0257, r1
    61cc:	10 92 56 02 	sts	0x0256, r1
			
				if (Brightness > 0)
    61d0:	80 91 70 00 	lds	r24, 0x0070
    61d4:	90 91 71 00 	lds	r25, 0x0071
    61d8:	89 2b       	or	r24, r25
    61da:	09 f4       	brne	.+2      	; 0x61de <Every_Third_LED_Down+0x28e>
    61dc:	8a c0       	rjmp	.+276    	; 0x62f2 <Every_Third_LED_Down+0x3a2>
				{
					com74hc595_setPort(0,0b10010010);
    61de:	62 e9       	ldi	r22, 0x92	; 146
    61e0:	80 e0       	ldi	r24, 0x00	; 0
    61e2:	0e 94 dd 01 	call	0x3ba	; 0x3ba <com74hc595_setPort>
					com74hc595_setPort(1,0b00100100);
    61e6:	64 e2       	ldi	r22, 0x24	; 36
    61e8:	81 e0       	ldi	r24, 0x01	; 1
    61ea:	0e 94 dd 01 	call	0x3ba	; 0x3ba <com74hc595_setPort>
					com74hc595_setPort(2,0b01001001);
    61ee:	69 e4       	ldi	r22, 0x49	; 73
    61f0:	82 e0       	ldi	r24, 0x02	; 2
    61f2:	0e 94 dd 01 	call	0x3ba	; 0x3ba <com74hc595_setPort>
					com74hc595_setPort(3,0b10010010);
    61f6:	62 e9       	ldi	r22, 0x92	; 146
    61f8:	83 e0       	ldi	r24, 0x03	; 3
    61fa:	0e 94 dd 01 	call	0x3ba	; 0x3ba <com74hc595_setPort>
					com74hc595_setPort(4,0b00100100);
    61fe:	64 e2       	ldi	r22, 0x24	; 36
    6200:	84 e0       	ldi	r24, 0x04	; 4
    6202:	0e 94 dd 01 	call	0x3ba	; 0x3ba <com74hc595_setPort>
					com74hc595_setPort(5,0b01001001);
    6206:	69 e4       	ldi	r22, 0x49	; 73
    6208:	85 e0       	ldi	r24, 0x05	; 5
    620a:	0e 94 dd 01 	call	0x3ba	; 0x3ba <com74hc595_setPort>
					com74hc595_setPort(6,0b10010010);
    620e:	62 e9       	ldi	r22, 0x92	; 146
    6210:	86 e0       	ldi	r24, 0x06	; 6
    6212:	0e 94 dd 01 	call	0x3ba	; 0x3ba <com74hc595_setPort>
					com74hc595_setPort(7,0b00100100);
    6216:	64 e2       	ldi	r22, 0x24	; 36
    6218:	87 e0       	ldi	r24, 0x07	; 7
    621a:	0e 94 dd 01 	call	0x3ba	; 0x3ba <com74hc595_setPort>
					com74hc595_setPort(8,0b01001001);
    621e:	69 e4       	ldi	r22, 0x49	; 73
    6220:	88 e0       	ldi	r24, 0x08	; 8
    6222:	0e 94 dd 01 	call	0x3ba	; 0x3ba <com74hc595_setPort>
					com74hc595_setPort(9,0b10010010);
    6226:	62 e9       	ldi	r22, 0x92	; 146
    6228:	89 e0       	ldi	r24, 0x09	; 9
    622a:	0e 94 dd 01 	call	0x3ba	; 0x3ba <com74hc595_setPort>
					com74hc595_setPort(10,0b00100100);
    622e:	64 e2       	ldi	r22, 0x24	; 36
    6230:	8a e0       	ldi	r24, 0x0A	; 10
    6232:	0e 94 dd 01 	call	0x3ba	; 0x3ba <com74hc595_setPort>
					com74hc595_setPort(11,0b01001001);
    6236:	69 e4       	ldi	r22, 0x49	; 73
    6238:	8b e0       	ldi	r24, 0x0B	; 11
    623a:	0e 94 dd 01 	call	0x3ba	; 0x3ba <com74hc595_setPort>
					com74hc595_setPort(12,0b10010010);
    623e:	62 e9       	ldi	r22, 0x92	; 146
    6240:	8c e0       	ldi	r24, 0x0C	; 12
    6242:	0e 94 dd 01 	call	0x3ba	; 0x3ba <com74hc595_setPort>
					com74hc595_setPort(13,0b00100100);
    6246:	64 e2       	ldi	r22, 0x24	; 36
    6248:	8d e0       	ldi	r24, 0x0D	; 13
    624a:	0e 94 dd 01 	call	0x3ba	; 0x3ba <com74hc595_setPort>
					com74hc595_setPort(14,0b01001001);
    624e:	69 e4       	ldi	r22, 0x49	; 73
    6250:	8e e0       	ldi	r24, 0x0E	; 14
    6252:	0e 94 dd 01 	call	0x3ba	; 0x3ba <com74hc595_setPort>
					com74hc595_setPort(15,0b10010010);
    6256:	62 e9       	ldi	r22, 0x92	; 146
    6258:	8f e0       	ldi	r24, 0x0F	; 15
    625a:	0e 94 dd 01 	call	0x3ba	; 0x3ba <com74hc595_setPort>
					com74hc595_setPort(16,0b00100100);
    625e:	64 e2       	ldi	r22, 0x24	; 36
    6260:	80 e1       	ldi	r24, 0x10	; 16
    6262:	0e 94 dd 01 	call	0x3ba	; 0x3ba <com74hc595_setPort>
					com74hc595_setPort(17,0b01001001);
    6266:	69 e4       	ldi	r22, 0x49	; 73
    6268:	81 e1       	ldi	r24, 0x11	; 17
    626a:	0e 94 dd 01 	call	0x3ba	; 0x3ba <com74hc595_setPort>
    626e:	41 c0       	rjmp	.+130    	; 0x62f2 <Every_Third_LED_Down+0x3a2>
				}
			}
			else
			{
				if (Counter == Brightness)
    6270:	20 91 56 02 	lds	r18, 0x0256
    6274:	30 91 57 02 	lds	r19, 0x0257
    6278:	80 91 70 00 	lds	r24, 0x0070
    627c:	90 91 71 00 	lds	r25, 0x0071
    6280:	28 17       	cp	r18, r24
    6282:	39 07       	cpc	r19, r25
    6284:	b1 f5       	brne	.+108    	; 0x62f2 <Every_Third_LED_Down+0x3a2>
				{
					com74hc595_unsetPort(0);
    6286:	80 e0       	ldi	r24, 0x00	; 0
    6288:	0e 94 e3 01 	call	0x3c6	; 0x3c6 <com74hc595_unsetPort>
					com74hc595_unsetPort(1);
    628c:	81 e0       	ldi	r24, 0x01	; 1
    628e:	0e 94 e3 01 	call	0x3c6	; 0x3c6 <com74hc595_unsetPort>
					com74hc595_unsetPort(2);
    6292:	82 e0       	ldi	r24, 0x02	; 2
    6294:	0e 94 e3 01 	call	0x3c6	; 0x3c6 <com74hc595_unsetPort>
					com74hc595_unsetPort(3);
    6298:	83 e0       	ldi	r24, 0x03	; 3
    629a:	0e 94 e3 01 	call	0x3c6	; 0x3c6 <com74hc595_unsetPort>
					com74hc595_unsetPort(4);
    629e:	84 e0       	ldi	r24, 0x04	; 4
    62a0:	0e 94 e3 01 	call	0x3c6	; 0x3c6 <com74hc595_unsetPort>
					com74hc595_unsetPort(5);
    62a4:	85 e0       	ldi	r24, 0x05	; 5
    62a6:	0e 94 e3 01 	call	0x3c6	; 0x3c6 <com74hc595_unsetPort>
					com74hc595_unsetPort(6);
    62aa:	86 e0       	ldi	r24, 0x06	; 6
    62ac:	0e 94 e3 01 	call	0x3c6	; 0x3c6 <com74hc595_unsetPort>
					com74hc595_unsetPort(7);
    62b0:	87 e0       	ldi	r24, 0x07	; 7
    62b2:	0e 94 e3 01 	call	0x3c6	; 0x3c6 <com74hc595_unsetPort>
					com74hc595_unsetPort(8);
    62b6:	88 e0       	ldi	r24, 0x08	; 8
    62b8:	0e 94 e3 01 	call	0x3c6	; 0x3c6 <com74hc595_unsetPort>
					com74hc595_unsetPort(9);
    62bc:	89 e0       	ldi	r24, 0x09	; 9
    62be:	0e 94 e3 01 	call	0x3c6	; 0x3c6 <com74hc595_unsetPort>
					com74hc595_unsetPort(10);
    62c2:	8a e0       	ldi	r24, 0x0A	; 10
    62c4:	0e 94 e3 01 	call	0x3c6	; 0x3c6 <com74hc595_unsetPort>
					com74hc595_unsetPort(11);
    62c8:	8b e0       	ldi	r24, 0x0B	; 11
    62ca:	0e 94 e3 01 	call	0x3c6	; 0x3c6 <com74hc595_unsetPort>
					com74hc595_unsetPort(12);
    62ce:	8c e0       	ldi	r24, 0x0C	; 12
    62d0:	0e 94 e3 01 	call	0x3c6	; 0x3c6 <com74hc595_unsetPort>
					com74hc595_unsetPort(13);
    62d4:	8d e0       	ldi	r24, 0x0D	; 13
    62d6:	0e 94 e3 01 	call	0x3c6	; 0x3c6 <com74hc595_unsetPort>
					com74hc595_unsetPort(14);
    62da:	8e e0       	ldi	r24, 0x0E	; 14
    62dc:	0e 94 e3 01 	call	0x3c6	; 0x3c6 <com74hc595_unsetPort>
					com74hc595_unsetPort(15);
    62e0:	8f e0       	ldi	r24, 0x0F	; 15
    62e2:	0e 94 e3 01 	call	0x3c6	; 0x3c6 <com74hc595_unsetPort>
					com74hc595_unsetPort(16);
    62e6:	80 e1       	ldi	r24, 0x10	; 16
    62e8:	0e 94 e3 01 	call	0x3c6	; 0x3c6 <com74hc595_unsetPort>
					com74hc595_unsetPort(17);
    62ec:	81 e1       	ldi	r24, 0x11	; 17
    62ee:	0e 94 e3 01 	call	0x3c6	; 0x3c6 <com74hc595_unsetPort>
				}
			}
			com74hc595_out();
    62f2:	0e 94 e9 01 	call	0x3d2	; 0x3d2 <com74hc595_out>





	if (Counter_1 <= 15000)
    62f6:	80 91 71 02 	lds	r24, 0x0271
    62fa:	90 91 72 02 	lds	r25, 0x0272
    62fe:	89 39       	cpi	r24, 0x99	; 153
    6300:	9a 43       	sbci	r25, 0x3A	; 58
    6302:	08 f0       	brcs	.+2      	; 0x6306 <Every_Third_LED_Down+0x3b6>
    6304:	a7 c0       	rjmp	.+334    	; 0x6454 <Every_Third_LED_Down+0x504>
	{
		if (Counter_1 >= 10000)
    6306:	80 91 71 02 	lds	r24, 0x0271
    630a:	90 91 72 02 	lds	r25, 0x0272
    630e:	80 31       	cpi	r24, 0x10	; 16
    6310:	97 42       	sbci	r25, 0x27	; 39
    6312:	08 f4       	brcc	.+2      	; 0x6316 <Every_Third_LED_Down+0x3c6>
    6314:	9f c0       	rjmp	.+318    	; 0x6454 <Every_Third_LED_Down+0x504>
		{
			/* PWM-Routine */
			if (Counter >= 80)
    6316:	80 91 56 02 	lds	r24, 0x0256
    631a:	90 91 57 02 	lds	r25, 0x0257
    631e:	80 35       	cpi	r24, 0x50	; 80
    6320:	91 05       	cpc	r25, r1
    6322:	08 f4       	brcc	.+2      	; 0x6326 <Every_Third_LED_Down+0x3d6>
    6324:	54 c0       	rjmp	.+168    	; 0x63ce <Every_Third_LED_Down+0x47e>
			{
				Counter = 0;
    6326:	10 92 57 02 	sts	0x0257, r1
    632a:	10 92 56 02 	sts	0x0256, r1
				
				if (Brightness > 0)
    632e:	80 91 70 00 	lds	r24, 0x0070
    6332:	90 91 71 00 	lds	r25, 0x0071
    6336:	89 2b       	or	r24, r25
    6338:	09 f4       	brne	.+2      	; 0x633c <Every_Third_LED_Down+0x3ec>
    633a:	8a c0       	rjmp	.+276    	; 0x6450 <Every_Third_LED_Down+0x500>
				{
					com74hc595_setPort(0,0b00100100);
    633c:	64 e2       	ldi	r22, 0x24	; 36
    633e:	80 e0       	ldi	r24, 0x00	; 0
    6340:	0e 94 dd 01 	call	0x3ba	; 0x3ba <com74hc595_setPort>
					com74hc595_setPort(1,0b01001001);
    6344:	69 e4       	ldi	r22, 0x49	; 73
    6346:	81 e0       	ldi	r24, 0x01	; 1
    6348:	0e 94 dd 01 	call	0x3ba	; 0x3ba <com74hc595_setPort>
					com74hc595_setPort(2,0b10010010);
    634c:	62 e9       	ldi	r22, 0x92	; 146
    634e:	82 e0       	ldi	r24, 0x02	; 2
    6350:	0e 94 dd 01 	call	0x3ba	; 0x3ba <com74hc595_setPort>
					com74hc595_setPort(3,0b00100100);
    6354:	64 e2       	ldi	r22, 0x24	; 36
    6356:	83 e0       	ldi	r24, 0x03	; 3
    6358:	0e 94 dd 01 	call	0x3ba	; 0x3ba <com74hc595_setPort>
					com74hc595_setPort(4,0b01001001);
    635c:	69 e4       	ldi	r22, 0x49	; 73
    635e:	84 e0       	ldi	r24, 0x04	; 4
    6360:	0e 94 dd 01 	call	0x3ba	; 0x3ba <com74hc595_setPort>
					com74hc595_setPort(5,0b10010010);
    6364:	62 e9       	ldi	r22, 0x92	; 146
    6366:	85 e0       	ldi	r24, 0x05	; 5
    6368:	0e 94 dd 01 	call	0x3ba	; 0x3ba <com74hc595_setPort>
					com74hc595_setPort(6,0b00100100);
    636c:	64 e2       	ldi	r22, 0x24	; 36
    636e:	86 e0       	ldi	r24, 0x06	; 6
    6370:	0e 94 dd 01 	call	0x3ba	; 0x3ba <com74hc595_setPort>
					com74hc595_setPort(7,0b01001001);
    6374:	69 e4       	ldi	r22, 0x49	; 73
    6376:	87 e0       	ldi	r24, 0x07	; 7
    6378:	0e 94 dd 01 	call	0x3ba	; 0x3ba <com74hc595_setPort>
					com74hc595_setPort(8,0b10010010);
    637c:	62 e9       	ldi	r22, 0x92	; 146
    637e:	88 e0       	ldi	r24, 0x08	; 8
    6380:	0e 94 dd 01 	call	0x3ba	; 0x3ba <com74hc595_setPort>
					com74hc595_setPort(9,0b00100100);
    6384:	64 e2       	ldi	r22, 0x24	; 36
    6386:	89 e0       	ldi	r24, 0x09	; 9
    6388:	0e 94 dd 01 	call	0x3ba	; 0x3ba <com74hc595_setPort>
					com74hc595_setPort(10,0b01001001);
    638c:	69 e4       	ldi	r22, 0x49	; 73
    638e:	8a e0       	ldi	r24, 0x0A	; 10
    6390:	0e 94 dd 01 	call	0x3ba	; 0x3ba <com74hc595_setPort>
					com74hc595_setPort(11,0b10010010);
    6394:	62 e9       	ldi	r22, 0x92	; 146
    6396:	8b e0       	ldi	r24, 0x0B	; 11
    6398:	0e 94 dd 01 	call	0x3ba	; 0x3ba <com74hc595_setPort>
					com74hc595_setPort(12,0b00100100);
    639c:	64 e2       	ldi	r22, 0x24	; 36
    639e:	8c e0       	ldi	r24, 0x0C	; 12
    63a0:	0e 94 dd 01 	call	0x3ba	; 0x3ba <com74hc595_setPort>
					com74hc595_setPort(13,0b01001001);
    63a4:	69 e4       	ldi	r22, 0x49	; 73
    63a6:	8d e0       	ldi	r24, 0x0D	; 13
    63a8:	0e 94 dd 01 	call	0x3ba	; 0x3ba <com74hc595_setPort>
					com74hc595_setPort(14,0b10010010);
    63ac:	62 e9       	ldi	r22, 0x92	; 146
    63ae:	8e e0       	ldi	r24, 0x0E	; 14
    63b0:	0e 94 dd 01 	call	0x3ba	; 0x3ba <com74hc595_setPort>
					com74hc595_setPort(15,0b00100100);
    63b4:	64 e2       	ldi	r22, 0x24	; 36
    63b6:	8f e0       	ldi	r24, 0x0F	; 15
    63b8:	0e 94 dd 01 	call	0x3ba	; 0x3ba <com74hc595_setPort>
					com74hc595_setPort(16,0b01001001);
    63bc:	69 e4       	ldi	r22, 0x49	; 73
    63be:	80 e1       	ldi	r24, 0x10	; 16
    63c0:	0e 94 dd 01 	call	0x3ba	; 0x3ba <com74hc595_setPort>
					com74hc595_setPort(17,0b10010010);
    63c4:	62 e9       	ldi	r22, 0x92	; 146
    63c6:	81 e1       	ldi	r24, 0x11	; 17
    63c8:	0e 94 dd 01 	call	0x3ba	; 0x3ba <com74hc595_setPort>
    63cc:	41 c0       	rjmp	.+130    	; 0x6450 <Every_Third_LED_Down+0x500>
				}
			}
			else
			{
				if (Counter == Brightness)
    63ce:	20 91 56 02 	lds	r18, 0x0256
    63d2:	30 91 57 02 	lds	r19, 0x0257
    63d6:	80 91 70 00 	lds	r24, 0x0070
    63da:	90 91 71 00 	lds	r25, 0x0071
    63de:	28 17       	cp	r18, r24
    63e0:	39 07       	cpc	r19, r25
    63e2:	b1 f5       	brne	.+108    	; 0x6450 <Every_Third_LED_Down+0x500>
				{
					com74hc595_unsetPort(0);
    63e4:	80 e0       	ldi	r24, 0x00	; 0
    63e6:	0e 94 e3 01 	call	0x3c6	; 0x3c6 <com74hc595_unsetPort>
					com74hc595_unsetPort(1);
    63ea:	81 e0       	ldi	r24, 0x01	; 1
    63ec:	0e 94 e3 01 	call	0x3c6	; 0x3c6 <com74hc595_unsetPort>
					com74hc595_unsetPort(2);
    63f0:	82 e0       	ldi	r24, 0x02	; 2
    63f2:	0e 94 e3 01 	call	0x3c6	; 0x3c6 <com74hc595_unsetPort>
					com74hc595_unsetPort(3);
    63f6:	83 e0       	ldi	r24, 0x03	; 3
    63f8:	0e 94 e3 01 	call	0x3c6	; 0x3c6 <com74hc595_unsetPort>
					com74hc595_unsetPort(4);
    63fc:	84 e0       	ldi	r24, 0x04	; 4
    63fe:	0e 94 e3 01 	call	0x3c6	; 0x3c6 <com74hc595_unsetPort>
					com74hc595_unsetPort(5);
    6402:	85 e0       	ldi	r24, 0x05	; 5
    6404:	0e 94 e3 01 	call	0x3c6	; 0x3c6 <com74hc595_unsetPort>
					com74hc595_unsetPort(6);
    6408:	86 e0       	ldi	r24, 0x06	; 6
    640a:	0e 94 e3 01 	call	0x3c6	; 0x3c6 <com74hc595_unsetPort>
					com74hc595_unsetPort(7);
    640e:	87 e0       	ldi	r24, 0x07	; 7
    6410:	0e 94 e3 01 	call	0x3c6	; 0x3c6 <com74hc595_unsetPort>
					com74hc595_unsetPort(8);
    6414:	88 e0       	ldi	r24, 0x08	; 8
    6416:	0e 94 e3 01 	call	0x3c6	; 0x3c6 <com74hc595_unsetPort>
					com74hc595_unsetPort(9);
    641a:	89 e0       	ldi	r24, 0x09	; 9
    641c:	0e 94 e3 01 	call	0x3c6	; 0x3c6 <com74hc595_unsetPort>
					com74hc595_unsetPort(10);
    6420:	8a e0       	ldi	r24, 0x0A	; 10
    6422:	0e 94 e3 01 	call	0x3c6	; 0x3c6 <com74hc595_unsetPort>
					com74hc595_unsetPort(11);
    6426:	8b e0       	ldi	r24, 0x0B	; 11
    6428:	0e 94 e3 01 	call	0x3c6	; 0x3c6 <com74hc595_unsetPort>
					com74hc595_unsetPort(12);
    642c:	8c e0       	ldi	r24, 0x0C	; 12
    642e:	0e 94 e3 01 	call	0x3c6	; 0x3c6 <com74hc595_unsetPort>
					com74hc595_unsetPort(13);
    6432:	8d e0       	ldi	r24, 0x0D	; 13
    6434:	0e 94 e3 01 	call	0x3c6	; 0x3c6 <com74hc595_unsetPort>
					com74hc595_unsetPort(14);
    6438:	8e e0       	ldi	r24, 0x0E	; 14
    643a:	0e 94 e3 01 	call	0x3c6	; 0x3c6 <com74hc595_unsetPort>
					com74hc595_unsetPort(15);
    643e:	8f e0       	ldi	r24, 0x0F	; 15
    6440:	0e 94 e3 01 	call	0x3c6	; 0x3c6 <com74hc595_unsetPort>
					com74hc595_unsetPort(16);
    6444:	80 e1       	ldi	r24, 0x10	; 16
    6446:	0e 94 e3 01 	call	0x3c6	; 0x3c6 <com74hc595_unsetPort>
					com74hc595_unsetPort(17);
    644a:	81 e1       	ldi	r24, 0x11	; 17
    644c:	0e 94 e3 01 	call	0x3c6	; 0x3c6 <com74hc595_unsetPort>
				}
			}
			com74hc595_out();
    6450:	0e 94 e9 01 	call	0x3d2	; 0x3d2 <com74hc595_out>



		

	if (Counter_1 == 15000)
    6454:	80 91 71 02 	lds	r24, 0x0271
    6458:	90 91 72 02 	lds	r25, 0x0272
    645c:	88 39       	cpi	r24, 0x98	; 152
    645e:	9a 43       	sbci	r25, 0x3A	; 58
    6460:	21 f4       	brne	.+8      	; 0x646a <Every_Third_LED_Down+0x51a>
	{
		Counter_1 = 0;
    6462:	10 92 72 02 	sts	0x0272, r1
    6466:	10 92 71 02 	sts	0x0271, r1
    646a:	08 95       	ret

0000646c <check_Test_Mode>:

void check_Test_Mode()
{
	/* if the first switch is pressed for 8 sec and the second switch is pressed the first 5 second, change to Test_Mode */

	if (variable_for_check_test_mode >= 100)
    646c:	80 91 74 02 	lds	r24, 0x0274
    6470:	90 91 75 02 	lds	r25, 0x0275
    6474:	84 36       	cpi	r24, 0x64	; 100
    6476:	91 05       	cpc	r25, r1
    6478:	50 f0       	brcs	.+20     	; 0x648e <check_Test_Mode+0x22>
	{
		variable_for_check_test_mode = 0;
    647a:	10 92 75 02 	sts	0x0275, r1
    647e:	10 92 74 02 	sts	0x0274, r1
		counter_for_Test_Mode = 0;
    6482:	10 92 8d 02 	sts	0x028D, r1
    6486:	10 92 8c 02 	sts	0x028C, r1
		Test_Mode();
    648a:	0e 94 5f 05 	call	0xabe	; 0xabe <Test_Mode>
    648e:	08 95       	ret

00006490 <Auto_Change_Simulation>:
	
}

/* change automatic the simulation every one minute */
void Auto_Change_Simulation()
{
    6490:	2f 92       	push	r2
    6492:	3f 92       	push	r3
    6494:	4f 92       	push	r4
    6496:	5f 92       	push	r5
    6498:	6f 92       	push	r6
    649a:	7f 92       	push	r7
    649c:	8f 92       	push	r8
    649e:	9f 92       	push	r9
    64a0:	af 92       	push	r10
    64a2:	cf 92       	push	r12
    64a4:	ef 92       	push	r14
    64a6:	0f 93       	push	r16
    64a8:	cf 93       	push	r28
    64aa:	df 93       	push	r29
		if (LED_Status != LED_Status_Old)
    64ac:	20 91 28 02 	lds	r18, 0x0228
    64b0:	30 91 29 02 	lds	r19, 0x0229
    64b4:	80 91 5e 02 	lds	r24, 0x025E
    64b8:	90 91 5f 02 	lds	r25, 0x025F
    64bc:	28 17       	cp	r18, r24
    64be:	39 07       	cpc	r19, r25
    64c0:	59 f1       	breq	.+86     	; 0x6518 <Auto_Change_Simulation+0x88>
		{
			Counter_For_Display = 0;
    64c2:	10 92 66 02 	sts	0x0266, r1
    64c6:	10 92 65 02 	sts	0x0265, r1
			counter_for_change_accu_symbol = 0;
    64ca:	10 92 43 02 	sts	0x0243, r1
    64ce:	10 92 42 02 	sts	0x0242, r1
			eeprom_write_byte(&EEPROM_save_LED_Status, LED_Status);
    64d2:	60 91 28 02 	lds	r22, 0x0228
    64d6:	70 91 29 02 	lds	r23, 0x0229
    64da:	80 e0       	ldi	r24, 0x00	; 0
    64dc:	90 e0       	ldi	r25, 0x00	; 0
    64de:	0e 94 36 36 	call	0x6c6c	; 0x6c6c <__eewr_byte_m32>
			Auto_Change = 0;
    64e2:	10 92 f1 01 	sts	0x01F1, r1
    64e6:	10 92 f0 01 	sts	0x01F0, r1
			Auto_Change_ISR = 0;
    64ea:	10 92 f3 01 	sts	0x01F3, r1
    64ee:	10 92 f2 01 	sts	0x01F2, r1
			all_LED_OFF();
    64f2:	0e 94 5a 05 	call	0xab4	; 0xab4 <all_LED_OFF>
			Display_a_Character(75);
    64f6:	8b e4       	ldi	r24, 0x4B	; 75
    64f8:	0e 94 f3 04 	call	0x9e6	; 0x9e6 <Display_a_Character>
			LED_Status_Old = LED_Status;
    64fc:	80 91 28 02 	lds	r24, 0x0228
    6500:	90 91 29 02 	lds	r25, 0x0229
    6504:	90 93 5f 02 	sts	0x025F, r25
    6508:	80 93 5e 02 	sts	0x025E, r24
			Auto_Change_Old = 100;
    650c:	84 e6       	ldi	r24, 0x64	; 100
    650e:	90 e0       	ldi	r25, 0x00	; 0
    6510:	90 93 70 02 	sts	0x0270, r25
    6514:	80 93 6f 02 	sts	0x026F, r24
				case 10:
				{
					if (Auto_Change != Auto_Change_Old)
					{
						Auto_Change_Old = Auto_Change;
						LED_Status_Old = 32;
    6518:	68 94       	set
    651a:	44 24       	eor	r4, r4
    651c:	45 f8       	bld	r4, 5
    651e:	51 2c       	mov	r5, r1
				case 9:
				{
					if (Auto_Change != Auto_Change_Old)
					{
						Auto_Change_Old = Auto_Change;
						LED_Status_Old = 31;
    6520:	0f 2e       	mov	r0, r31
    6522:	ff e1       	ldi	r31, 0x1F	; 31
    6524:	6f 2e       	mov	r6, r31
    6526:	71 2c       	mov	r7, r1
    6528:	f0 2d       	mov	r31, r0
				case 8:
				{
					if (Auto_Change != Auto_Change_Old)
					{
						Auto_Change_Old = Auto_Change;
						LED_Status_Old = 30;
    652a:	0f 2e       	mov	r0, r31
    652c:	fe e1       	ldi	r31, 0x1E	; 30
    652e:	8f 2e       	mov	r8, r31
    6530:	91 2c       	mov	r9, r1
    6532:	f0 2d       	mov	r31, r0
				case 7: 
				{
					if (Auto_Change != Auto_Change_Old)
					{
						Auto_Change_Old = Auto_Change;						
						LED_Status_Old = 29;
    6534:	cd e1       	ldi	r28, 0x1D	; 29
    6536:	d0 e0       	ldi	r29, 0x00	; 0
				case 6: 
				{
					if (Auto_Change != Auto_Change_Old)
					{
						Auto_Change_Old = Auto_Change;						
						LED_Status_Old = 28;
    6538:	0f 2e       	mov	r0, r31
    653a:	fc e1       	ldi	r31, 0x1C	; 28
    653c:	2f 2e       	mov	r2, r31
    653e:	31 2c       	mov	r3, r1
    6540:	f0 2d       	mov	r31, r0
    6542:	67 c1       	rjmp	.+718    	; 0x6812 <Auto_Change_Simulation+0x382>
		
		while (LED_Status == 12)
		{
			
			/* If a Switch long pressed, then the µC go sleep */
			sleep_after_long_press();
    6544:	0e 94 f2 2b 	call	0x57e4	; 0x57e4 <sleep_after_long_press>
			
			/* if the µC >= 12 h at work the go sleep */
			sleep_after_12h();
    6548:	0e 94 00 2c 	call	0x5800	; 0x5800 <sleep_after_12h>
			
			check_accu_after_100ms();	
    654c:	0e 94 86 2f 	call	0x5f0c	; 0x5f0c <check_accu_after_100ms>
			
			check_Test_Mode();	
    6550:	0e 94 36 32 	call	0x646c	; 0x646c <check_Test_Mode>
			
			
	 		switch(Auto_Change)
    6554:	e0 91 f0 01 	lds	r30, 0x01F0
    6558:	f0 91 f1 01 	lds	r31, 0x01F1
    655c:	ec 30       	cpi	r30, 0x0C	; 12
    655e:	f1 05       	cpc	r31, r1
    6560:	08 f0       	brcs	.+2      	; 0x6564 <Auto_Change_Simulation+0xd4>
    6562:	57 c1       	rjmp	.+686    	; 0x6812 <Auto_Change_Simulation+0x382>
    6564:	ee 5c       	subi	r30, 0xCE	; 206
    6566:	ff 4f       	sbci	r31, 0xFF	; 255
    6568:	0c 94 b6 35 	jmp	0x6b6c	; 0x6b6c <__tablejump2__>
			{
				case 0: 
				{
					if (Auto_Change != Auto_Change_Old)
    656c:	20 91 f0 01 	lds	r18, 0x01F0
    6570:	30 91 f1 01 	lds	r19, 0x01F1
    6574:	80 91 6f 02 	lds	r24, 0x026F
    6578:	90 91 70 02 	lds	r25, 0x0270
    657c:	28 17       	cp	r18, r24
    657e:	39 07       	cpc	r19, r25
    6580:	71 f0       	breq	.+28     	; 0x659e <Auto_Change_Simulation+0x10e>
					{
						Auto_Change_Old = Auto_Change;
    6582:	80 91 f0 01 	lds	r24, 0x01F0
    6586:	90 91 f1 01 	lds	r25, 0x01F1
    658a:	90 93 70 02 	sts	0x0270, r25
    658e:	80 93 6f 02 	sts	0x026F, r24
						LED_Status_Old = 22;					
    6592:	86 e1       	ldi	r24, 0x16	; 22
    6594:	90 e0       	ldi	r25, 0x00	; 0
    6596:	90 93 5f 02 	sts	0x025F, r25
    659a:	80 93 5e 02 	sts	0x025E, r24
					}
					LED_Blink(300);
    659e:	8c e2       	ldi	r24, 0x2C	; 44
    65a0:	91 e0       	ldi	r25, 0x01	; 1
    65a2:	0e 94 d0 26 	call	0x4da0	; 0x4da0 <LED_Blink>
				}
				break;
    65a6:	35 c1       	rjmp	.+618    	; 0x6812 <Auto_Change_Simulation+0x382>
			
				case 1: 
				{	
 					if (Auto_Change != Auto_Change_Old)
    65a8:	20 91 f0 01 	lds	r18, 0x01F0
    65ac:	30 91 f1 01 	lds	r19, 0x01F1
    65b0:	80 91 6f 02 	lds	r24, 0x026F
    65b4:	90 91 70 02 	lds	r25, 0x0270
    65b8:	28 17       	cp	r18, r24
    65ba:	39 07       	cpc	r19, r25
    65bc:	71 f0       	breq	.+28     	; 0x65da <Auto_Change_Simulation+0x14a>
 					{
						Auto_Change_Old = Auto_Change;
    65be:	80 91 f0 01 	lds	r24, 0x01F0
    65c2:	90 91 f1 01 	lds	r25, 0x01F1
    65c6:	90 93 70 02 	sts	0x0270, r25
    65ca:	80 93 6f 02 	sts	0x026F, r24
						LED_Status_Old = 23;			
    65ce:	87 e1       	ldi	r24, 0x17	; 23
    65d0:	90 e0       	ldi	r25, 0x00	; 0
    65d2:	90 93 5f 02 	sts	0x025F, r25
    65d6:	80 93 5e 02 	sts	0x025E, r24
 					}
					LED_Sparkle();
    65da:	0e 94 1b 17 	call	0x2e36	; 0x2e36 <LED_Sparkle>
				}
				break;
    65de:	19 c1       	rjmp	.+562    	; 0x6812 <Auto_Change_Simulation+0x382>
			
				case 2:
				{	
					if (Auto_Change != Auto_Change_Old)
    65e0:	20 91 f0 01 	lds	r18, 0x01F0
    65e4:	30 91 f1 01 	lds	r19, 0x01F1
    65e8:	80 91 6f 02 	lds	r24, 0x026F
    65ec:	90 91 70 02 	lds	r25, 0x0270
    65f0:	28 17       	cp	r18, r24
    65f2:	39 07       	cpc	r19, r25
    65f4:	71 f0       	breq	.+28     	; 0x6612 <Auto_Change_Simulation+0x182>
					{
						Auto_Change_Old = Auto_Change;
    65f6:	80 91 f0 01 	lds	r24, 0x01F0
    65fa:	90 91 f1 01 	lds	r25, 0x01F1
    65fe:	90 93 70 02 	sts	0x0270, r25
    6602:	80 93 6f 02 	sts	0x026F, r24
						LED_Status_Old = 24;
    6606:	88 e1       	ldi	r24, 0x18	; 24
    6608:	90 e0       	ldi	r25, 0x00	; 0
    660a:	90 93 5f 02 	sts	0x025F, r25
    660e:	80 93 5e 02 	sts	0x025E, r24
 					}
					Raindrop_Simulation_1(40,10,4,2,40,10,4,2);
    6612:	68 94       	set
    6614:	aa 24       	eor	r10, r10
    6616:	a1 f8       	bld	r10, 1
    6618:	68 94       	set
    661a:	cc 24       	eor	r12, r12
    661c:	c2 f8       	bld	r12, 2
    661e:	0f 2e       	mov	r0, r31
    6620:	fa e0       	ldi	r31, 0x0A	; 10
    6622:	ef 2e       	mov	r14, r31
    6624:	f0 2d       	mov	r31, r0
    6626:	08 e2       	ldi	r16, 0x28	; 40
    6628:	22 e0       	ldi	r18, 0x02	; 2
    662a:	44 e0       	ldi	r20, 0x04	; 4
    662c:	6a e0       	ldi	r22, 0x0A	; 10
    662e:	88 e2       	ldi	r24, 0x28	; 40
    6630:	0e 94 18 09 	call	0x1230	; 0x1230 <Raindrop_Simulation_1>
					Raindrop_Simulation_2(40,10,4,2,40,10,4,2);
    6634:	22 e0       	ldi	r18, 0x02	; 2
    6636:	44 e0       	ldi	r20, 0x04	; 4
    6638:	6a e0       	ldi	r22, 0x0A	; 10
    663a:	88 e2       	ldi	r24, 0x28	; 40
    663c:	0e 94 83 10 	call	0x2106	; 0x2106 <Raindrop_Simulation_2>
				}
				break;
    6640:	e8 c0       	rjmp	.+464    	; 0x6812 <Auto_Change_Simulation+0x382>
			
				case 3: 
				{
					if (Auto_Change != Auto_Change_Old)
    6642:	20 91 f0 01 	lds	r18, 0x01F0
    6646:	30 91 f1 01 	lds	r19, 0x01F1
    664a:	80 91 6f 02 	lds	r24, 0x026F
    664e:	90 91 70 02 	lds	r25, 0x0270
    6652:	28 17       	cp	r18, r24
    6654:	39 07       	cpc	r19, r25
    6656:	71 f0       	breq	.+28     	; 0x6674 <Auto_Change_Simulation+0x1e4>
					{
						Auto_Change_Old = Auto_Change;
    6658:	80 91 f0 01 	lds	r24, 0x01F0
    665c:	90 91 f1 01 	lds	r25, 0x01F1
    6660:	90 93 70 02 	sts	0x0270, r25
    6664:	80 93 6f 02 	sts	0x026F, r24
						LED_Status_Old = 25;
    6668:	89 e1       	ldi	r24, 0x19	; 25
    666a:	90 e0       	ldi	r25, 0x00	; 0
    666c:	90 93 5f 02 	sts	0x025F, r25
    6670:	80 93 5e 02 	sts	0x025E, r24
					}
					LED_Flare();
    6674:	0e 94 0c 1d 	call	0x3a18	; 0x3a18 <LED_Flare>
				}
				break;
    6678:	cc c0       	rjmp	.+408    	; 0x6812 <Auto_Change_Simulation+0x382>
			
				case 4: 
				{
					if (Auto_Change != Auto_Change_Old)
    667a:	20 91 f0 01 	lds	r18, 0x01F0
    667e:	30 91 f1 01 	lds	r19, 0x01F1
    6682:	80 91 6f 02 	lds	r24, 0x026F
    6686:	90 91 70 02 	lds	r25, 0x0270
    668a:	28 17       	cp	r18, r24
    668c:	39 07       	cpc	r19, r25
    668e:	71 f0       	breq	.+28     	; 0x66ac <Auto_Change_Simulation+0x21c>
					{
						Auto_Change_Old = Auto_Change;						
    6690:	80 91 f0 01 	lds	r24, 0x01F0
    6694:	90 91 f1 01 	lds	r25, 0x01F1
    6698:	90 93 70 02 	sts	0x0270, r25
    669c:	80 93 6f 02 	sts	0x026F, r24
						LED_Status_Old = 26;
    66a0:	8a e1       	ldi	r24, 0x1A	; 26
    66a2:	90 e0       	ldi	r25, 0x00	; 0
    66a4:	90 93 5f 02 	sts	0x025F, r25
    66a8:	80 93 5e 02 	sts	0x025E, r24
					}					
					LED_Circle_Down(5000,8);
    66ac:	68 e0       	ldi	r22, 0x08	; 8
    66ae:	88 e8       	ldi	r24, 0x88	; 136
    66b0:	93 e1       	ldi	r25, 0x13	; 19
    66b2:	0e 94 38 1e 	call	0x3c70	; 0x3c70 <LED_Circle_Down>
				}
				break;
    66b6:	ad c0       	rjmp	.+346    	; 0x6812 <Auto_Change_Simulation+0x382>
			
				case 5: 
				{
					if (Auto_Change != Auto_Change_Old)
    66b8:	20 91 f0 01 	lds	r18, 0x01F0
    66bc:	30 91 f1 01 	lds	r19, 0x01F1
    66c0:	80 91 6f 02 	lds	r24, 0x026F
    66c4:	90 91 70 02 	lds	r25, 0x0270
    66c8:	28 17       	cp	r18, r24
    66ca:	39 07       	cpc	r19, r25
    66cc:	71 f0       	breq	.+28     	; 0x66ea <Auto_Change_Simulation+0x25a>
					{
						Auto_Change_Old = Auto_Change;						
    66ce:	80 91 f0 01 	lds	r24, 0x01F0
    66d2:	90 91 f1 01 	lds	r25, 0x01F1
    66d6:	90 93 70 02 	sts	0x0270, r25
    66da:	80 93 6f 02 	sts	0x026F, r24
						LED_Status_Old = 27;
    66de:	8b e1       	ldi	r24, 0x1B	; 27
    66e0:	90 e0       	ldi	r25, 0x00	; 0
    66e2:	90 93 5f 02 	sts	0x025F, r25
    66e6:	80 93 5e 02 	sts	0x025E, r24
					}					
					LED_Fading(800,800);
    66ea:	60 e2       	ldi	r22, 0x20	; 32
    66ec:	73 e0       	ldi	r23, 0x03	; 3
    66ee:	80 e2       	ldi	r24, 0x20	; 32
    66f0:	93 e0       	ldi	r25, 0x03	; 3
    66f2:	0e 94 4c 08 	call	0x1098	; 0x1098 <LED_Fading>
				}
				break;
    66f6:	8d c0       	rjmp	.+282    	; 0x6812 <Auto_Change_Simulation+0x382>
			
				case 6: 
				{
					if (Auto_Change != Auto_Change_Old)
    66f8:	20 91 f0 01 	lds	r18, 0x01F0
    66fc:	30 91 f1 01 	lds	r19, 0x01F1
    6700:	80 91 6f 02 	lds	r24, 0x026F
    6704:	90 91 70 02 	lds	r25, 0x0270
    6708:	28 17       	cp	r18, r24
    670a:	39 07       	cpc	r19, r25
    670c:	61 f0       	breq	.+24     	; 0x6726 <Auto_Change_Simulation+0x296>
					{
						Auto_Change_Old = Auto_Change;						
    670e:	80 91 f0 01 	lds	r24, 0x01F0
    6712:	90 91 f1 01 	lds	r25, 0x01F1
    6716:	90 93 70 02 	sts	0x0270, r25
    671a:	80 93 6f 02 	sts	0x026F, r24
						LED_Status_Old = 28;
    671e:	30 92 5f 02 	sts	0x025F, r3
    6722:	20 92 5e 02 	sts	0x025E, r2
					}					
					Every_Third_LED_Down();
    6726:	0e 94 a8 2f 	call	0x5f50	; 0x5f50 <Every_Third_LED_Down>
				}
				break;
    672a:	73 c0       	rjmp	.+230    	; 0x6812 <Auto_Change_Simulation+0x382>
			
				case 7: 
				{
					if (Auto_Change != Auto_Change_Old)
    672c:	20 91 f0 01 	lds	r18, 0x01F0
    6730:	30 91 f1 01 	lds	r19, 0x01F1
    6734:	80 91 6f 02 	lds	r24, 0x026F
    6738:	90 91 70 02 	lds	r25, 0x0270
    673c:	28 17       	cp	r18, r24
    673e:	39 07       	cpc	r19, r25
    6740:	61 f0       	breq	.+24     	; 0x675a <Auto_Change_Simulation+0x2ca>
					{
						Auto_Change_Old = Auto_Change;						
    6742:	80 91 f0 01 	lds	r24, 0x01F0
    6746:	90 91 f1 01 	lds	r25, 0x01F1
    674a:	90 93 70 02 	sts	0x0270, r25
    674e:	80 93 6f 02 	sts	0x026F, r24
						LED_Status_Old = 29;
    6752:	d0 93 5f 02 	sts	0x025F, r29
    6756:	c0 93 5e 02 	sts	0x025E, r28
					}					
					LED_Round(5000);
    675a:	88 e8       	ldi	r24, 0x88	; 136
    675c:	93 e1       	ldi	r25, 0x13	; 19
    675e:	0e 94 e6 21 	call	0x43cc	; 0x43cc <LED_Round>
				}
				break;
    6762:	57 c0       	rjmp	.+174    	; 0x6812 <Auto_Change_Simulation+0x382>
				
				case 8:
				{
					if (Auto_Change != Auto_Change_Old)
    6764:	20 91 f0 01 	lds	r18, 0x01F0
    6768:	30 91 f1 01 	lds	r19, 0x01F1
    676c:	80 91 6f 02 	lds	r24, 0x026F
    6770:	90 91 70 02 	lds	r25, 0x0270
    6774:	28 17       	cp	r18, r24
    6776:	39 07       	cpc	r19, r25
    6778:	61 f0       	breq	.+24     	; 0x6792 <Auto_Change_Simulation+0x302>
					{
						Auto_Change_Old = Auto_Change;
    677a:	80 91 f0 01 	lds	r24, 0x01F0
    677e:	90 91 f1 01 	lds	r25, 0x01F1
    6782:	90 93 70 02 	sts	0x0270, r25
    6786:	80 93 6f 02 	sts	0x026F, r24
						LED_Status_Old = 30;
    678a:	90 92 5f 02 	sts	0x025F, r9
    678e:	80 92 5e 02 	sts	0x025E, r8
					}
					LED_Down(1000);
    6792:	88 ee       	ldi	r24, 0xE8	; 232
    6794:	93 e0       	ldi	r25, 0x03	; 3
    6796:	0e 94 47 20 	call	0x408e	; 0x408e <LED_Down>
				}
				break;
    679a:	3b c0       	rjmp	.+118    	; 0x6812 <Auto_Change_Simulation+0x382>
				
				case 9:
				{
					if (Auto_Change != Auto_Change_Old)
    679c:	20 91 f0 01 	lds	r18, 0x01F0
    67a0:	30 91 f1 01 	lds	r19, 0x01F1
    67a4:	80 91 6f 02 	lds	r24, 0x026F
    67a8:	90 91 70 02 	lds	r25, 0x0270
    67ac:	28 17       	cp	r18, r24
    67ae:	39 07       	cpc	r19, r25
    67b0:	61 f0       	breq	.+24     	; 0x67ca <Auto_Change_Simulation+0x33a>
					{
						Auto_Change_Old = Auto_Change;
    67b2:	80 91 f0 01 	lds	r24, 0x01F0
    67b6:	90 91 f1 01 	lds	r25, 0x01F1
    67ba:	90 93 70 02 	sts	0x0270, r25
    67be:	80 93 6f 02 	sts	0x026F, r24
						LED_Status_Old = 31;
    67c2:	70 92 5f 02 	sts	0x025F, r7
    67c6:	60 92 5e 02 	sts	0x025E, r6
					}
					LED_Change(2000,8);
    67ca:	68 e0       	ldi	r22, 0x08	; 8
    67cc:	80 ed       	ldi	r24, 0xD0	; 208
    67ce:	97 e0       	ldi	r25, 0x07	; 7
    67d0:	0e 94 e9 24 	call	0x49d2	; 0x49d2 <LED_Change>
				}	
				break;
    67d4:	1e c0       	rjmp	.+60     	; 0x6812 <Auto_Change_Simulation+0x382>
				
				case 10:
				{
					if (Auto_Change != Auto_Change_Old)
    67d6:	20 91 f0 01 	lds	r18, 0x01F0
    67da:	30 91 f1 01 	lds	r19, 0x01F1
    67de:	80 91 6f 02 	lds	r24, 0x026F
    67e2:	90 91 70 02 	lds	r25, 0x0270
    67e6:	28 17       	cp	r18, r24
    67e8:	39 07       	cpc	r19, r25
    67ea:	61 f0       	breq	.+24     	; 0x6804 <Auto_Change_Simulation+0x374>
					{
						Auto_Change_Old = Auto_Change;
    67ec:	80 91 f0 01 	lds	r24, 0x01F0
    67f0:	90 91 f1 01 	lds	r25, 0x01F1
    67f4:	90 93 70 02 	sts	0x0270, r25
    67f8:	80 93 6f 02 	sts	0x026F, r24
						LED_Status_Old = 32;
    67fc:	50 92 5f 02 	sts	0x025F, r5
    6800:	40 92 5e 02 	sts	0x025E, r4
					}
					LED_Round_Test();
    6804:	0e 94 3f 23 	call	0x467e	; 0x467e <LED_Round_Test>
				}
				break;				
    6808:	04 c0       	rjmp	.+8      	; 0x6812 <Auto_Change_Simulation+0x382>
				
									
				case 11: 
				{Auto_Change = 0;}
    680a:	10 92 f1 01 	sts	0x01F1, r1
    680e:	10 92 f0 01 	sts	0x01F0, r1
			Display_a_Character(75);
			LED_Status_Old = LED_Status;
			Auto_Change_Old = 100;
		}
		
		while (LED_Status == 12)
    6812:	80 91 28 02 	lds	r24, 0x0228
    6816:	90 91 29 02 	lds	r25, 0x0229
    681a:	0c 97       	sbiw	r24, 0x0c	; 12
    681c:	09 f4       	brne	.+2      	; 0x6820 <Auto_Change_Simulation+0x390>
    681e:	92 ce       	rjmp	.-732    	; 0x6544 <Auto_Change_Simulation+0xb4>
			}		
		}
		


}
    6820:	df 91       	pop	r29
    6822:	cf 91       	pop	r28
    6824:	0f 91       	pop	r16
    6826:	ef 90       	pop	r14
    6828:	cf 90       	pop	r12
    682a:	af 90       	pop	r10
    682c:	9f 90       	pop	r9
    682e:	8f 90       	pop	r8
    6830:	7f 90       	pop	r7
    6832:	6f 90       	pop	r6
    6834:	5f 90       	pop	r5
    6836:	4f 90       	pop	r4
    6838:	3f 90       	pop	r3
    683a:	2f 90       	pop	r2
    683c:	08 95       	ret

0000683e <main>:
	#define UART_BAUD_RATE      9600  
#endif
int main(void)
{
	/* Config the DDRx Register */
	DDRA |= ((1<<PA1) | (1<<PA4));
    683e:	8a b3       	in	r24, 0x1a	; 26
    6840:	82 61       	ori	r24, 0x12	; 18
    6842:	8a bb       	out	0x1a, r24	; 26
	DDRC |= ((1<<PC0) | (1<<PC1) | (1<<PC2) | (1<<PC3) | (1<<PC4) | (1<<PC5) | (1<<PC6) | (1<<PC7));
    6844:	84 b3       	in	r24, 0x14	; 20
    6846:	8f ef       	ldi	r24, 0xFF	; 255
    6848:	84 bb       	out	0x14, r24	; 20
	DDRB |= ((1<<PB0) | (1<<PB1) | (1<<PB2) | (1<<PB3) | (1<<PB4) | (1<<PB5) | (1<<PB6) | (1<<PB7));
    684a:	97 b3       	in	r25, 0x17	; 23
    684c:	87 bb       	out	0x17, r24	; 23
	DDRD |= (1<<PD7);
    684e:	8f 9a       	sbi	0x11, 7	; 17
	
	/* set internal PullUps for ACCU_FULL, ACCU_CHARGING and free Pin*/
	PORTA |= (1<<PA5) | (1<<PA6) | (1<<PA0);
    6850:	8b b3       	in	r24, 0x1b	; 27
    6852:	81 66       	ori	r24, 0x61	; 97
    6854:	8b bb       	out	0x1b, r24	; 27
	
    /* Prescaler from TIMER0 set at "0"  ! ( PWM & Multiplexing ) */
    TCCR0 |= (1<<CS01)  | (1<<CS00) | (1<<WGM00) | (1<<WGM01);
    6856:	83 b7       	in	r24, 0x33	; 51
    6858:	8b 64       	ori	r24, 0x4B	; 75
    685a:	83 bf       	out	0x33, r24	; 51
    
    /* Prescaler set at "64" ( 25 ms base ) */
    TCCR1B |= (1<<CS11) | (1<<CS10) | (1<<WGM12);
    685c:	8e b5       	in	r24, 0x2e	; 46
    685e:	8b 60       	ori	r24, 0x0B	; 11
    6860:	8e bd       	out	0x2e, r24	; 46
	
    /* CountRegister set at "6249" ( set Interrupt at 25 ms base) */
    OCR1A = 6249;
    6862:	89 e6       	ldi	r24, 0x69	; 105
    6864:	98 e1       	ldi	r25, 0x18	; 24
    6866:	9b bd       	out	0x2b, r25	; 43
    6868:	8a bd       	out	0x2a, r24	; 42
    	
	/* Initialize the ADC Unit */			
	init_ADC();	
    686a:	0e 94 0a 02 	call	0x414	; 0x414 <init_ADC>




	/* Initialize the Pins for the 595´ ers */			
	com74hc595_init();
    686e:	0e 94 ff 01 	call	0x3fe	; 0x3fe <com74hc595_init>
	
	
    /* Interrupts global enable */
    sei();
    6872:	78 94       	sei
	
	INTERRUPT_TIMER0_ENABLE;  	
    6874:	89 b7       	in	r24, 0x39	; 57
    6876:	82 60       	ori	r24, 0x02	; 2
    6878:	89 bf       	out	0x39, r24	; 57
	
#ifdef WITH_START_TEXT
	
	/* show start string */

	Display_Start_String();
    687a:	0e 94 10 05 	call	0xa20	; 0xa20 <Display_Start_String>
    687e:	2f ef       	ldi	r18, 0xFF	; 255
    6880:	81 ee       	ldi	r24, 0xE1	; 225
    6882:	94 e0       	ldi	r25, 0x04	; 4
    6884:	21 50       	subi	r18, 0x01	; 1
    6886:	80 40       	sbci	r24, 0x00	; 0
    6888:	90 40       	sbci	r25, 0x00	; 0
    688a:	e1 f7       	brne	.-8      	; 0x6884 <main+0x46>
    688c:	00 c0       	rjmp	.+0      	; 0x688e <main+0x50>
    688e:	00 00       	nop
	_delay_ms(100);
	
#endif	
	
	/* Interrupt "CompareMatch (OCIE1A)" enable */
	TIMSK |= (1<<OCIE1A);
    6890:	89 b7       	in	r24, 0x39	; 57
    6892:	80 61       	ori	r24, 0x10	; 16
    6894:	89 bf       	out	0x39, r24	; 57
		
	/* Connect 595´ er GND to Central GND */
	SWITCH_ON_595;
    6896:	dc 9a       	sbi	0x1b, 4	; 27
	
    /* read the last Effect */
	LED_Status = eeprom_read_byte (&EEPROM_save_LED_Status);
    6898:	80 e0       	ldi	r24, 0x00	; 0
    689a:	90 e0       	ldi	r25, 0x00	; 0
    689c:	0e 94 2e 36 	call	0x6c5c	; 0x6c5c <__eerd_byte_m32>
    68a0:	90 e0       	ldi	r25, 0x00	; 0
    68a2:	90 93 29 02 	sts	0x0229, r25
    68a6:	80 93 28 02 	sts	0x0228, r24
	
	/* Initialize the UART Unit */ 
	uart_init( UART_BAUD_SELECT(UART_BAUD_RATE,F_CPU) );
    68aa:	87 e6       	ldi	r24, 0x67	; 103
    68ac:	90 e0       	ldi	r25, 0x00	; 0
    68ae:	0e 94 73 02 	call	0x4e6	; 0x4e6 <uart_init>
	
	
 	/* Was hat das für einen Sinn ? */
 	Supply_ADC_Value = 900;
    68b2:	84 e8       	ldi	r24, 0x84	; 132
    68b4:	93 e0       	ldi	r25, 0x03	; 3
    68b6:	90 93 ef 01 	sts	0x01EF, r25
    68ba:	80 93 ee 01 	sts	0x01EE, r24

	/* set PORTD.7 @ high */
	MR_HIGH;
    68be:	97 9a       	sbi	0x12, 7	; 18

	
 while(1)
 {			
	
		check_Test_Mode();
    68c0:	0e 94 36 32 	call	0x646c	; 0x646c <check_Test_Mode>
		
		/* If a Switch long pressed, then the µC go sleep */
		sleep_after_long_press();
    68c4:	0e 94 f2 2b 	call	0x57e4	; 0x57e4 <sleep_after_long_press>
		
		/* if the µC >= 12 h at work the go sleep */
		sleep_after_12h();
    68c8:	0e 94 00 2c 	call	0x5800	; 0x5800 <sleep_after_12h>
		
		check_accu_after_100ms();	
    68cc:	0e 94 86 2f 	call	0x5f0c	; 0x5f0c <check_accu_after_100ms>

									
		switch (LED_Status)
    68d0:	e0 91 28 02 	lds	r30, 0x0228
    68d4:	f0 91 29 02 	lds	r31, 0x0229
    68d8:	31 97       	sbiw	r30, 0x01	; 1
    68da:	ec 30       	cpi	r30, 0x0C	; 12
    68dc:	f1 05       	cpc	r31, r1
    68de:	08 f0       	brcs	.+2      	; 0x68e2 <main+0xa4>
    68e0:	4c c0       	rjmp	.+152    	; 0x697a <main+0x13c>
    68e2:	e2 5c       	subi	r30, 0xC2	; 194
    68e4:	ff 4f       	sbci	r31, 0xFF	; 255
    68e6:	0c 94 b6 35 	jmp	0x6b6c	; 0x6b6c <__tablejump2__>
		{
			case 1:
			{
				LED_Sparkle();				
    68ea:	0e 94 1b 17 	call	0x2e36	; 0x2e36 <LED_Sparkle>
			}
			break;
    68ee:	45 c0       	rjmp	.+138    	; 0x697a <main+0x13c>
			
			case 2:
			{
				LED_Flare();
    68f0:	0e 94 0c 1d 	call	0x3a18	; 0x3a18 <LED_Flare>
			}
			break;
    68f4:	42 c0       	rjmp	.+132    	; 0x697a <main+0x13c>
			
			case 3:
			{
				Raindrop_Simulation_1(40,10,4,2,40,10,4,2);
    68f6:	68 94       	set
    68f8:	aa 24       	eor	r10, r10
    68fa:	a1 f8       	bld	r10, 1
    68fc:	68 94       	set
    68fe:	cc 24       	eor	r12, r12
    6900:	c2 f8       	bld	r12, 2
    6902:	0f 2e       	mov	r0, r31
    6904:	fa e0       	ldi	r31, 0x0A	; 10
    6906:	ef 2e       	mov	r14, r31
    6908:	f0 2d       	mov	r31, r0
    690a:	08 e2       	ldi	r16, 0x28	; 40
    690c:	22 e0       	ldi	r18, 0x02	; 2
    690e:	44 e0       	ldi	r20, 0x04	; 4
    6910:	6a e0       	ldi	r22, 0x0A	; 10
    6912:	88 e2       	ldi	r24, 0x28	; 40
    6914:	0e 94 18 09 	call	0x1230	; 0x1230 <Raindrop_Simulation_1>
				Raindrop_Simulation_2(40,10,4,2,40,10,4,2);						
    6918:	22 e0       	ldi	r18, 0x02	; 2
    691a:	44 e0       	ldi	r20, 0x04	; 4
    691c:	6a e0       	ldi	r22, 0x0A	; 10
    691e:	88 e2       	ldi	r24, 0x28	; 40
    6920:	0e 94 83 10 	call	0x2106	; 0x2106 <Raindrop_Simulation_2>
			}
			break;	
    6924:	2a c0       	rjmp	.+84     	; 0x697a <main+0x13c>
			
			case 4:
			{
				LED_Fading(800,800);
    6926:	60 e2       	ldi	r22, 0x20	; 32
    6928:	73 e0       	ldi	r23, 0x03	; 3
    692a:	80 e2       	ldi	r24, 0x20	; 32
    692c:	93 e0       	ldi	r25, 0x03	; 3
    692e:	0e 94 4c 08 	call	0x1098	; 0x1098 <LED_Fading>
			}
			break;	
    6932:	23 c0       	rjmp	.+70     	; 0x697a <main+0x13c>
			
			case 5:
			{
				LED_Circle_Down(5000,8);
    6934:	68 e0       	ldi	r22, 0x08	; 8
    6936:	88 e8       	ldi	r24, 0x88	; 136
    6938:	93 e1       	ldi	r25, 0x13	; 19
    693a:	0e 94 38 1e 	call	0x3c70	; 0x3c70 <LED_Circle_Down>
			}
			break;	
    693e:	1d c0       	rjmp	.+58     	; 0x697a <main+0x13c>
			
			case 6:
			{
				LED_Down(1000);
    6940:	88 ee       	ldi	r24, 0xE8	; 232
    6942:	93 e0       	ldi	r25, 0x03	; 3
    6944:	0e 94 47 20 	call	0x408e	; 0x408e <LED_Down>
			}
			break;	
    6948:	18 c0       	rjmp	.+48     	; 0x697a <main+0x13c>

			case 7:
			{
				LED_Round(4000);
    694a:	80 ea       	ldi	r24, 0xA0	; 160
    694c:	9f e0       	ldi	r25, 0x0F	; 15
    694e:	0e 94 e6 21 	call	0x43cc	; 0x43cc <LED_Round>
			}
			break;											
    6952:	13 c0       	rjmp	.+38     	; 0x697a <main+0x13c>

			case 8:
			{
				Every_Third_LED_Down();
    6954:	0e 94 a8 2f 	call	0x5f50	; 0x5f50 <Every_Third_LED_Down>
			}
			break;
    6958:	10 c0       	rjmp	.+32     	; 0x697a <main+0x13c>
		
			case 9:
			{
				LED_Change(2000,8);		
    695a:	68 e0       	ldi	r22, 0x08	; 8
    695c:	80 ed       	ldi	r24, 0xD0	; 208
    695e:	97 e0       	ldi	r25, 0x07	; 7
    6960:	0e 94 e9 24 	call	0x49d2	; 0x49d2 <LED_Change>
			}
			break;
    6964:	0a c0       	rjmp	.+20     	; 0x697a <main+0x13c>
			
			case 10:
			{
				LED_Round_Test();
    6966:	0e 94 3f 23 	call	0x467e	; 0x467e <LED_Round_Test>
			}
			break;		
    696a:	07 c0       	rjmp	.+14     	; 0x697a <main+0x13c>
	
			case 11:
			{
				LED_Blink(300);	
    696c:	8c e2       	ldi	r24, 0x2C	; 44
    696e:	91 e0       	ldi	r25, 0x01	; 1
    6970:	0e 94 d0 26 	call	0x4da0	; 0x4da0 <LED_Blink>
			}
			break;			
    6974:	02 c0       	rjmp	.+4      	; 0x697a <main+0x13c>
			
			case 12:
			{
				Auto_Change_Simulation();
    6976:	0e 94 48 32 	call	0x6490	; 0x6490 <Auto_Change_Simulation>
			
			
			
		}	
									
		check_overflow();
    697a:	0e 94 8f 2f 	call	0x5f1e	; 0x5f1e <check_overflow>

 
     }// End while
    697e:	a0 cf       	rjmp	.-192    	; 0x68c0 <main+0x82>

00006980 <__subsf3>:
    6980:	50 58       	subi	r21, 0x80	; 128

00006982 <__addsf3>:
    6982:	bb 27       	eor	r27, r27
    6984:	aa 27       	eor	r26, r26
    6986:	0e d0       	rcall	.+28     	; 0x69a4 <__addsf3x>
    6988:	9f c0       	rjmp	.+318    	; 0x6ac8 <__fp_round>
    698a:	90 d0       	rcall	.+288    	; 0x6aac <__fp_pscA>
    698c:	30 f0       	brcs	.+12     	; 0x699a <__addsf3+0x18>
    698e:	95 d0       	rcall	.+298    	; 0x6aba <__fp_pscB>
    6990:	20 f0       	brcs	.+8      	; 0x699a <__addsf3+0x18>
    6992:	31 f4       	brne	.+12     	; 0x69a0 <__addsf3+0x1e>
    6994:	9f 3f       	cpi	r25, 0xFF	; 255
    6996:	11 f4       	brne	.+4      	; 0x699c <__addsf3+0x1a>
    6998:	1e f4       	brtc	.+6      	; 0x69a0 <__addsf3+0x1e>
    699a:	85 c0       	rjmp	.+266    	; 0x6aa6 <__fp_nan>
    699c:	0e f4       	brtc	.+2      	; 0x69a0 <__addsf3+0x1e>
    699e:	e0 95       	com	r30
    69a0:	e7 fb       	bst	r30, 7
    69a2:	7b c0       	rjmp	.+246    	; 0x6a9a <__fp_inf>

000069a4 <__addsf3x>:
    69a4:	e9 2f       	mov	r30, r25
    69a6:	a1 d0       	rcall	.+322    	; 0x6aea <__fp_split3>
    69a8:	80 f3       	brcs	.-32     	; 0x698a <__addsf3+0x8>
    69aa:	ba 17       	cp	r27, r26
    69ac:	62 07       	cpc	r22, r18
    69ae:	73 07       	cpc	r23, r19
    69b0:	84 07       	cpc	r24, r20
    69b2:	95 07       	cpc	r25, r21
    69b4:	18 f0       	brcs	.+6      	; 0x69bc <__addsf3x+0x18>
    69b6:	71 f4       	brne	.+28     	; 0x69d4 <__addsf3x+0x30>
    69b8:	9e f5       	brtc	.+102    	; 0x6a20 <__addsf3x+0x7c>
    69ba:	b9 c0       	rjmp	.+370    	; 0x6b2e <__fp_zero>
    69bc:	0e f4       	brtc	.+2      	; 0x69c0 <__addsf3x+0x1c>
    69be:	e0 95       	com	r30
    69c0:	0b 2e       	mov	r0, r27
    69c2:	ba 2f       	mov	r27, r26
    69c4:	a0 2d       	mov	r26, r0
    69c6:	0b 01       	movw	r0, r22
    69c8:	b9 01       	movw	r22, r18
    69ca:	90 01       	movw	r18, r0
    69cc:	0c 01       	movw	r0, r24
    69ce:	ca 01       	movw	r24, r20
    69d0:	a0 01       	movw	r20, r0
    69d2:	11 24       	eor	r1, r1
    69d4:	ff 27       	eor	r31, r31
    69d6:	59 1b       	sub	r21, r25
    69d8:	99 f0       	breq	.+38     	; 0x6a00 <__addsf3x+0x5c>
    69da:	59 3f       	cpi	r21, 0xF9	; 249
    69dc:	50 f4       	brcc	.+20     	; 0x69f2 <__addsf3x+0x4e>
    69de:	50 3e       	cpi	r21, 0xE0	; 224
    69e0:	68 f1       	brcs	.+90     	; 0x6a3c <__addsf3x+0x98>
    69e2:	1a 16       	cp	r1, r26
    69e4:	f0 40       	sbci	r31, 0x00	; 0
    69e6:	a2 2f       	mov	r26, r18
    69e8:	23 2f       	mov	r18, r19
    69ea:	34 2f       	mov	r19, r20
    69ec:	44 27       	eor	r20, r20
    69ee:	58 5f       	subi	r21, 0xF8	; 248
    69f0:	f3 cf       	rjmp	.-26     	; 0x69d8 <__addsf3x+0x34>
    69f2:	46 95       	lsr	r20
    69f4:	37 95       	ror	r19
    69f6:	27 95       	ror	r18
    69f8:	a7 95       	ror	r26
    69fa:	f0 40       	sbci	r31, 0x00	; 0
    69fc:	53 95       	inc	r21
    69fe:	c9 f7       	brne	.-14     	; 0x69f2 <__addsf3x+0x4e>
    6a00:	7e f4       	brtc	.+30     	; 0x6a20 <__addsf3x+0x7c>
    6a02:	1f 16       	cp	r1, r31
    6a04:	ba 0b       	sbc	r27, r26
    6a06:	62 0b       	sbc	r22, r18
    6a08:	73 0b       	sbc	r23, r19
    6a0a:	84 0b       	sbc	r24, r20
    6a0c:	ba f0       	brmi	.+46     	; 0x6a3c <__addsf3x+0x98>
    6a0e:	91 50       	subi	r25, 0x01	; 1
    6a10:	a1 f0       	breq	.+40     	; 0x6a3a <__addsf3x+0x96>
    6a12:	ff 0f       	add	r31, r31
    6a14:	bb 1f       	adc	r27, r27
    6a16:	66 1f       	adc	r22, r22
    6a18:	77 1f       	adc	r23, r23
    6a1a:	88 1f       	adc	r24, r24
    6a1c:	c2 f7       	brpl	.-16     	; 0x6a0e <__addsf3x+0x6a>
    6a1e:	0e c0       	rjmp	.+28     	; 0x6a3c <__addsf3x+0x98>
    6a20:	ba 0f       	add	r27, r26
    6a22:	62 1f       	adc	r22, r18
    6a24:	73 1f       	adc	r23, r19
    6a26:	84 1f       	adc	r24, r20
    6a28:	48 f4       	brcc	.+18     	; 0x6a3c <__addsf3x+0x98>
    6a2a:	87 95       	ror	r24
    6a2c:	77 95       	ror	r23
    6a2e:	67 95       	ror	r22
    6a30:	b7 95       	ror	r27
    6a32:	f7 95       	ror	r31
    6a34:	9e 3f       	cpi	r25, 0xFE	; 254
    6a36:	08 f0       	brcs	.+2      	; 0x6a3a <__addsf3x+0x96>
    6a38:	b3 cf       	rjmp	.-154    	; 0x69a0 <__addsf3+0x1e>
    6a3a:	93 95       	inc	r25
    6a3c:	88 0f       	add	r24, r24
    6a3e:	08 f0       	brcs	.+2      	; 0x6a42 <__addsf3x+0x9e>
    6a40:	99 27       	eor	r25, r25
    6a42:	ee 0f       	add	r30, r30
    6a44:	97 95       	ror	r25
    6a46:	87 95       	ror	r24
    6a48:	08 95       	ret

00006a4a <__cmpsf2>:
    6a4a:	03 d0       	rcall	.+6      	; 0x6a52 <__fp_cmp>
    6a4c:	08 f4       	brcc	.+2      	; 0x6a50 <__cmpsf2+0x6>
    6a4e:	81 e0       	ldi	r24, 0x01	; 1
    6a50:	08 95       	ret

00006a52 <__fp_cmp>:
    6a52:	99 0f       	add	r25, r25
    6a54:	00 08       	sbc	r0, r0
    6a56:	55 0f       	add	r21, r21
    6a58:	aa 0b       	sbc	r26, r26
    6a5a:	e0 e8       	ldi	r30, 0x80	; 128
    6a5c:	fe ef       	ldi	r31, 0xFE	; 254
    6a5e:	16 16       	cp	r1, r22
    6a60:	17 06       	cpc	r1, r23
    6a62:	e8 07       	cpc	r30, r24
    6a64:	f9 07       	cpc	r31, r25
    6a66:	c0 f0       	brcs	.+48     	; 0x6a98 <__fp_cmp+0x46>
    6a68:	12 16       	cp	r1, r18
    6a6a:	13 06       	cpc	r1, r19
    6a6c:	e4 07       	cpc	r30, r20
    6a6e:	f5 07       	cpc	r31, r21
    6a70:	98 f0       	brcs	.+38     	; 0x6a98 <__fp_cmp+0x46>
    6a72:	62 1b       	sub	r22, r18
    6a74:	73 0b       	sbc	r23, r19
    6a76:	84 0b       	sbc	r24, r20
    6a78:	95 0b       	sbc	r25, r21
    6a7a:	39 f4       	brne	.+14     	; 0x6a8a <__fp_cmp+0x38>
    6a7c:	0a 26       	eor	r0, r26
    6a7e:	61 f0       	breq	.+24     	; 0x6a98 <__fp_cmp+0x46>
    6a80:	23 2b       	or	r18, r19
    6a82:	24 2b       	or	r18, r20
    6a84:	25 2b       	or	r18, r21
    6a86:	21 f4       	brne	.+8      	; 0x6a90 <__fp_cmp+0x3e>
    6a88:	08 95       	ret
    6a8a:	0a 26       	eor	r0, r26
    6a8c:	09 f4       	brne	.+2      	; 0x6a90 <__fp_cmp+0x3e>
    6a8e:	a1 40       	sbci	r26, 0x01	; 1
    6a90:	a6 95       	lsr	r26
    6a92:	8f ef       	ldi	r24, 0xFF	; 255
    6a94:	81 1d       	adc	r24, r1
    6a96:	81 1d       	adc	r24, r1
    6a98:	08 95       	ret

00006a9a <__fp_inf>:
    6a9a:	97 f9       	bld	r25, 7
    6a9c:	9f 67       	ori	r25, 0x7F	; 127
    6a9e:	80 e8       	ldi	r24, 0x80	; 128
    6aa0:	70 e0       	ldi	r23, 0x00	; 0
    6aa2:	60 e0       	ldi	r22, 0x00	; 0
    6aa4:	08 95       	ret

00006aa6 <__fp_nan>:
    6aa6:	9f ef       	ldi	r25, 0xFF	; 255
    6aa8:	80 ec       	ldi	r24, 0xC0	; 192
    6aaa:	08 95       	ret

00006aac <__fp_pscA>:
    6aac:	00 24       	eor	r0, r0
    6aae:	0a 94       	dec	r0
    6ab0:	16 16       	cp	r1, r22
    6ab2:	17 06       	cpc	r1, r23
    6ab4:	18 06       	cpc	r1, r24
    6ab6:	09 06       	cpc	r0, r25
    6ab8:	08 95       	ret

00006aba <__fp_pscB>:
    6aba:	00 24       	eor	r0, r0
    6abc:	0a 94       	dec	r0
    6abe:	12 16       	cp	r1, r18
    6ac0:	13 06       	cpc	r1, r19
    6ac2:	14 06       	cpc	r1, r20
    6ac4:	05 06       	cpc	r0, r21
    6ac6:	08 95       	ret

00006ac8 <__fp_round>:
    6ac8:	09 2e       	mov	r0, r25
    6aca:	03 94       	inc	r0
    6acc:	00 0c       	add	r0, r0
    6ace:	11 f4       	brne	.+4      	; 0x6ad4 <__fp_round+0xc>
    6ad0:	88 23       	and	r24, r24
    6ad2:	52 f0       	brmi	.+20     	; 0x6ae8 <__fp_round+0x20>
    6ad4:	bb 0f       	add	r27, r27
    6ad6:	40 f4       	brcc	.+16     	; 0x6ae8 <__fp_round+0x20>
    6ad8:	bf 2b       	or	r27, r31
    6ada:	11 f4       	brne	.+4      	; 0x6ae0 <__fp_round+0x18>
    6adc:	60 ff       	sbrs	r22, 0
    6ade:	04 c0       	rjmp	.+8      	; 0x6ae8 <__fp_round+0x20>
    6ae0:	6f 5f       	subi	r22, 0xFF	; 255
    6ae2:	7f 4f       	sbci	r23, 0xFF	; 255
    6ae4:	8f 4f       	sbci	r24, 0xFF	; 255
    6ae6:	9f 4f       	sbci	r25, 0xFF	; 255
    6ae8:	08 95       	ret

00006aea <__fp_split3>:
    6aea:	57 fd       	sbrc	r21, 7
    6aec:	90 58       	subi	r25, 0x80	; 128
    6aee:	44 0f       	add	r20, r20
    6af0:	55 1f       	adc	r21, r21
    6af2:	59 f0       	breq	.+22     	; 0x6b0a <__fp_splitA+0x10>
    6af4:	5f 3f       	cpi	r21, 0xFF	; 255
    6af6:	71 f0       	breq	.+28     	; 0x6b14 <__fp_splitA+0x1a>
    6af8:	47 95       	ror	r20

00006afa <__fp_splitA>:
    6afa:	88 0f       	add	r24, r24
    6afc:	97 fb       	bst	r25, 7
    6afe:	99 1f       	adc	r25, r25
    6b00:	61 f0       	breq	.+24     	; 0x6b1a <__fp_splitA+0x20>
    6b02:	9f 3f       	cpi	r25, 0xFF	; 255
    6b04:	79 f0       	breq	.+30     	; 0x6b24 <__fp_splitA+0x2a>
    6b06:	87 95       	ror	r24
    6b08:	08 95       	ret
    6b0a:	12 16       	cp	r1, r18
    6b0c:	13 06       	cpc	r1, r19
    6b0e:	14 06       	cpc	r1, r20
    6b10:	55 1f       	adc	r21, r21
    6b12:	f2 cf       	rjmp	.-28     	; 0x6af8 <__fp_split3+0xe>
    6b14:	46 95       	lsr	r20
    6b16:	f1 df       	rcall	.-30     	; 0x6afa <__fp_splitA>
    6b18:	08 c0       	rjmp	.+16     	; 0x6b2a <__fp_splitA+0x30>
    6b1a:	16 16       	cp	r1, r22
    6b1c:	17 06       	cpc	r1, r23
    6b1e:	18 06       	cpc	r1, r24
    6b20:	99 1f       	adc	r25, r25
    6b22:	f1 cf       	rjmp	.-30     	; 0x6b06 <__fp_splitA+0xc>
    6b24:	86 95       	lsr	r24
    6b26:	71 05       	cpc	r23, r1
    6b28:	61 05       	cpc	r22, r1
    6b2a:	08 94       	sec
    6b2c:	08 95       	ret

00006b2e <__fp_zero>:
    6b2e:	e8 94       	clt

00006b30 <__fp_szero>:
    6b30:	bb 27       	eor	r27, r27
    6b32:	66 27       	eor	r22, r22
    6b34:	77 27       	eor	r23, r23
    6b36:	cb 01       	movw	r24, r22
    6b38:	97 f9       	bld	r25, 7
    6b3a:	08 95       	ret

00006b3c <__gesf2>:
    6b3c:	8a df       	rcall	.-236    	; 0x6a52 <__fp_cmp>
    6b3e:	08 f4       	brcc	.+2      	; 0x6b42 <__gesf2+0x6>
    6b40:	8f ef       	ldi	r24, 0xFF	; 255
    6b42:	08 95       	ret

00006b44 <__divmodhi4>:
    6b44:	97 fb       	bst	r25, 7
    6b46:	07 2e       	mov	r0, r23
    6b48:	16 f4       	brtc	.+4      	; 0x6b4e <__divmodhi4+0xa>
    6b4a:	00 94       	com	r0
    6b4c:	07 d0       	rcall	.+14     	; 0x6b5c <__divmodhi4_neg1>
    6b4e:	77 fd       	sbrc	r23, 7
    6b50:	09 d0       	rcall	.+18     	; 0x6b64 <__divmodhi4_neg2>
    6b52:	0e 94 bc 35 	call	0x6b78	; 0x6b78 <__udivmodhi4>
    6b56:	07 fc       	sbrc	r0, 7
    6b58:	05 d0       	rcall	.+10     	; 0x6b64 <__divmodhi4_neg2>
    6b5a:	3e f4       	brtc	.+14     	; 0x6b6a <__divmodhi4_exit>

00006b5c <__divmodhi4_neg1>:
    6b5c:	90 95       	com	r25
    6b5e:	81 95       	neg	r24
    6b60:	9f 4f       	sbci	r25, 0xFF	; 255
    6b62:	08 95       	ret

00006b64 <__divmodhi4_neg2>:
    6b64:	70 95       	com	r23
    6b66:	61 95       	neg	r22
    6b68:	7f 4f       	sbci	r23, 0xFF	; 255

00006b6a <__divmodhi4_exit>:
    6b6a:	08 95       	ret

00006b6c <__tablejump2__>:
    6b6c:	ee 0f       	add	r30, r30
    6b6e:	ff 1f       	adc	r31, r31

00006b70 <__tablejump__>:
    6b70:	05 90       	lpm	r0, Z+
    6b72:	f4 91       	lpm	r31, Z
    6b74:	e0 2d       	mov	r30, r0
    6b76:	09 94       	ijmp

00006b78 <__udivmodhi4>:
    6b78:	aa 1b       	sub	r26, r26
    6b7a:	bb 1b       	sub	r27, r27
    6b7c:	51 e1       	ldi	r21, 0x11	; 17
    6b7e:	07 c0       	rjmp	.+14     	; 0x6b8e <__udivmodhi4_ep>

00006b80 <__udivmodhi4_loop>:
    6b80:	aa 1f       	adc	r26, r26
    6b82:	bb 1f       	adc	r27, r27
    6b84:	a6 17       	cp	r26, r22
    6b86:	b7 07       	cpc	r27, r23
    6b88:	10 f0       	brcs	.+4      	; 0x6b8e <__udivmodhi4_ep>
    6b8a:	a6 1b       	sub	r26, r22
    6b8c:	b7 0b       	sbc	r27, r23

00006b8e <__udivmodhi4_ep>:
    6b8e:	88 1f       	adc	r24, r24
    6b90:	99 1f       	adc	r25, r25
    6b92:	5a 95       	dec	r21
    6b94:	a9 f7       	brne	.-22     	; 0x6b80 <__udivmodhi4_loop>
    6b96:	80 95       	com	r24
    6b98:	90 95       	com	r25
    6b9a:	bc 01       	movw	r22, r24
    6b9c:	cd 01       	movw	r24, r26
    6b9e:	08 95       	ret

00006ba0 <do_rand>:
    6ba0:	8f 92       	push	r8
    6ba2:	9f 92       	push	r9
    6ba4:	af 92       	push	r10
    6ba6:	bf 92       	push	r11
    6ba8:	cf 92       	push	r12
    6baa:	df 92       	push	r13
    6bac:	ef 92       	push	r14
    6bae:	ff 92       	push	r15
    6bb0:	cf 93       	push	r28
    6bb2:	df 93       	push	r29
    6bb4:	ec 01       	movw	r28, r24
    6bb6:	68 81       	ld	r22, Y
    6bb8:	79 81       	ldd	r23, Y+1	; 0x01
    6bba:	8a 81       	ldd	r24, Y+2	; 0x02
    6bbc:	9b 81       	ldd	r25, Y+3	; 0x03
    6bbe:	61 15       	cp	r22, r1
    6bc0:	71 05       	cpc	r23, r1
    6bc2:	81 05       	cpc	r24, r1
    6bc4:	91 05       	cpc	r25, r1
    6bc6:	21 f4       	brne	.+8      	; 0x6bd0 <do_rand+0x30>
    6bc8:	64 e2       	ldi	r22, 0x24	; 36
    6bca:	79 ed       	ldi	r23, 0xD9	; 217
    6bcc:	8b e5       	ldi	r24, 0x5B	; 91
    6bce:	97 e0       	ldi	r25, 0x07	; 7
    6bd0:	2d e1       	ldi	r18, 0x1D	; 29
    6bd2:	33 ef       	ldi	r19, 0xF3	; 243
    6bd4:	41 e0       	ldi	r20, 0x01	; 1
    6bd6:	50 e0       	ldi	r21, 0x00	; 0
    6bd8:	0e 94 43 36 	call	0x6c86	; 0x6c86 <__divmodsi4>
    6bdc:	49 01       	movw	r8, r18
    6bde:	5a 01       	movw	r10, r20
    6be0:	9b 01       	movw	r18, r22
    6be2:	ac 01       	movw	r20, r24
    6be4:	a7 ea       	ldi	r26, 0xA7	; 167
    6be6:	b1 e4       	ldi	r27, 0x41	; 65
    6be8:	0e 94 62 36 	call	0x6cc4	; 0x6cc4 <__muluhisi3>
    6bec:	6b 01       	movw	r12, r22
    6bee:	7c 01       	movw	r14, r24
    6bf0:	ac ee       	ldi	r26, 0xEC	; 236
    6bf2:	b4 ef       	ldi	r27, 0xF4	; 244
    6bf4:	a5 01       	movw	r20, r10
    6bf6:	94 01       	movw	r18, r8
    6bf8:	0e 94 70 36 	call	0x6ce0	; 0x6ce0 <__mulohisi3>
    6bfc:	c6 0e       	add	r12, r22
    6bfe:	d7 1e       	adc	r13, r23
    6c00:	e8 1e       	adc	r14, r24
    6c02:	f9 1e       	adc	r15, r25
    6c04:	f7 fe       	sbrs	r15, 7
    6c06:	06 c0       	rjmp	.+12     	; 0x6c14 <do_rand+0x74>
    6c08:	81 e0       	ldi	r24, 0x01	; 1
    6c0a:	c8 1a       	sub	r12, r24
    6c0c:	d1 08       	sbc	r13, r1
    6c0e:	e1 08       	sbc	r14, r1
    6c10:	80 e8       	ldi	r24, 0x80	; 128
    6c12:	f8 0a       	sbc	r15, r24
    6c14:	c8 82       	st	Y, r12
    6c16:	d9 82       	std	Y+1, r13	; 0x01
    6c18:	ea 82       	std	Y+2, r14	; 0x02
    6c1a:	fb 82       	std	Y+3, r15	; 0x03
    6c1c:	c6 01       	movw	r24, r12
    6c1e:	9f 77       	andi	r25, 0x7F	; 127
    6c20:	df 91       	pop	r29
    6c22:	cf 91       	pop	r28
    6c24:	ff 90       	pop	r15
    6c26:	ef 90       	pop	r14
    6c28:	df 90       	pop	r13
    6c2a:	cf 90       	pop	r12
    6c2c:	bf 90       	pop	r11
    6c2e:	af 90       	pop	r10
    6c30:	9f 90       	pop	r9
    6c32:	8f 90       	pop	r8
    6c34:	08 95       	ret

00006c36 <rand_r>:
    6c36:	0e 94 d0 35 	call	0x6ba0	; 0x6ba0 <do_rand>
    6c3a:	08 95       	ret

00006c3c <rand>:
    6c3c:	80 e6       	ldi	r24, 0x60	; 96
    6c3e:	90 e0       	ldi	r25, 0x00	; 0
    6c40:	0e 94 d0 35 	call	0x6ba0	; 0x6ba0 <do_rand>
    6c44:	08 95       	ret

00006c46 <srand>:
    6c46:	a0 e0       	ldi	r26, 0x00	; 0
    6c48:	b0 e0       	ldi	r27, 0x00	; 0
    6c4a:	80 93 60 00 	sts	0x0060, r24
    6c4e:	90 93 61 00 	sts	0x0061, r25
    6c52:	a0 93 62 00 	sts	0x0062, r26
    6c56:	b0 93 63 00 	sts	0x0063, r27
    6c5a:	08 95       	ret

00006c5c <__eerd_byte_m32>:
    6c5c:	e1 99       	sbic	0x1c, 1	; 28
    6c5e:	fe cf       	rjmp	.-4      	; 0x6c5c <__eerd_byte_m32>
    6c60:	9f bb       	out	0x1f, r25	; 31
    6c62:	8e bb       	out	0x1e, r24	; 30
    6c64:	e0 9a       	sbi	0x1c, 0	; 28
    6c66:	99 27       	eor	r25, r25
    6c68:	8d b3       	in	r24, 0x1d	; 29
    6c6a:	08 95       	ret

00006c6c <__eewr_byte_m32>:
    6c6c:	26 2f       	mov	r18, r22

00006c6e <__eewr_r18_m32>:
    6c6e:	e1 99       	sbic	0x1c, 1	; 28
    6c70:	fe cf       	rjmp	.-4      	; 0x6c6e <__eewr_r18_m32>
    6c72:	9f bb       	out	0x1f, r25	; 31
    6c74:	8e bb       	out	0x1e, r24	; 30
    6c76:	2d bb       	out	0x1d, r18	; 29
    6c78:	0f b6       	in	r0, 0x3f	; 63
    6c7a:	f8 94       	cli
    6c7c:	e2 9a       	sbi	0x1c, 2	; 28
    6c7e:	e1 9a       	sbi	0x1c, 1	; 28
    6c80:	0f be       	out	0x3f, r0	; 63
    6c82:	01 96       	adiw	r24, 0x01	; 1
    6c84:	08 95       	ret

00006c86 <__divmodsi4>:
    6c86:	05 2e       	mov	r0, r21
    6c88:	97 fb       	bst	r25, 7
    6c8a:	1e f4       	brtc	.+6      	; 0x6c92 <__divmodsi4+0xc>
    6c8c:	00 94       	com	r0
    6c8e:	0e 94 5a 36 	call	0x6cb4	; 0x6cb4 <__negsi2>
    6c92:	57 fd       	sbrc	r21, 7
    6c94:	07 d0       	rcall	.+14     	; 0x6ca4 <__divmodsi4_neg2>
    6c96:	0e 94 75 36 	call	0x6cea	; 0x6cea <__udivmodsi4>
    6c9a:	07 fc       	sbrc	r0, 7
    6c9c:	03 d0       	rcall	.+6      	; 0x6ca4 <__divmodsi4_neg2>
    6c9e:	4e f4       	brtc	.+18     	; 0x6cb2 <__divmodsi4_exit>
    6ca0:	0c 94 5a 36 	jmp	0x6cb4	; 0x6cb4 <__negsi2>

00006ca4 <__divmodsi4_neg2>:
    6ca4:	50 95       	com	r21
    6ca6:	40 95       	com	r20
    6ca8:	30 95       	com	r19
    6caa:	21 95       	neg	r18
    6cac:	3f 4f       	sbci	r19, 0xFF	; 255
    6cae:	4f 4f       	sbci	r20, 0xFF	; 255
    6cb0:	5f 4f       	sbci	r21, 0xFF	; 255

00006cb2 <__divmodsi4_exit>:
    6cb2:	08 95       	ret

00006cb4 <__negsi2>:
    6cb4:	90 95       	com	r25
    6cb6:	80 95       	com	r24
    6cb8:	70 95       	com	r23
    6cba:	61 95       	neg	r22
    6cbc:	7f 4f       	sbci	r23, 0xFF	; 255
    6cbe:	8f 4f       	sbci	r24, 0xFF	; 255
    6cc0:	9f 4f       	sbci	r25, 0xFF	; 255
    6cc2:	08 95       	ret

00006cc4 <__muluhisi3>:
    6cc4:	0e 94 97 36 	call	0x6d2e	; 0x6d2e <__umulhisi3>
    6cc8:	a5 9f       	mul	r26, r21
    6cca:	90 0d       	add	r25, r0
    6ccc:	b4 9f       	mul	r27, r20
    6cce:	90 0d       	add	r25, r0
    6cd0:	a4 9f       	mul	r26, r20
    6cd2:	80 0d       	add	r24, r0
    6cd4:	91 1d       	adc	r25, r1
    6cd6:	11 24       	eor	r1, r1
    6cd8:	08 95       	ret

00006cda <__mulshisi3>:
    6cda:	b7 ff       	sbrs	r27, 7
    6cdc:	0c 94 62 36 	jmp	0x6cc4	; 0x6cc4 <__muluhisi3>

00006ce0 <__mulohisi3>:
    6ce0:	0e 94 62 36 	call	0x6cc4	; 0x6cc4 <__muluhisi3>
    6ce4:	82 1b       	sub	r24, r18
    6ce6:	93 0b       	sbc	r25, r19
    6ce8:	08 95       	ret

00006cea <__udivmodsi4>:
    6cea:	a1 e2       	ldi	r26, 0x21	; 33
    6cec:	1a 2e       	mov	r1, r26
    6cee:	aa 1b       	sub	r26, r26
    6cf0:	bb 1b       	sub	r27, r27
    6cf2:	fd 01       	movw	r30, r26
    6cf4:	0d c0       	rjmp	.+26     	; 0x6d10 <__udivmodsi4_ep>

00006cf6 <__udivmodsi4_loop>:
    6cf6:	aa 1f       	adc	r26, r26
    6cf8:	bb 1f       	adc	r27, r27
    6cfa:	ee 1f       	adc	r30, r30
    6cfc:	ff 1f       	adc	r31, r31
    6cfe:	a2 17       	cp	r26, r18
    6d00:	b3 07       	cpc	r27, r19
    6d02:	e4 07       	cpc	r30, r20
    6d04:	f5 07       	cpc	r31, r21
    6d06:	20 f0       	brcs	.+8      	; 0x6d10 <__udivmodsi4_ep>
    6d08:	a2 1b       	sub	r26, r18
    6d0a:	b3 0b       	sbc	r27, r19
    6d0c:	e4 0b       	sbc	r30, r20
    6d0e:	f5 0b       	sbc	r31, r21

00006d10 <__udivmodsi4_ep>:
    6d10:	66 1f       	adc	r22, r22
    6d12:	77 1f       	adc	r23, r23
    6d14:	88 1f       	adc	r24, r24
    6d16:	99 1f       	adc	r25, r25
    6d18:	1a 94       	dec	r1
    6d1a:	69 f7       	brne	.-38     	; 0x6cf6 <__udivmodsi4_loop>
    6d1c:	60 95       	com	r22
    6d1e:	70 95       	com	r23
    6d20:	80 95       	com	r24
    6d22:	90 95       	com	r25
    6d24:	9b 01       	movw	r18, r22
    6d26:	ac 01       	movw	r20, r24
    6d28:	bd 01       	movw	r22, r26
    6d2a:	cf 01       	movw	r24, r30
    6d2c:	08 95       	ret

00006d2e <__umulhisi3>:
    6d2e:	a2 9f       	mul	r26, r18
    6d30:	b0 01       	movw	r22, r0
    6d32:	b3 9f       	mul	r27, r19
    6d34:	c0 01       	movw	r24, r0
    6d36:	a3 9f       	mul	r26, r19
    6d38:	70 0d       	add	r23, r0
    6d3a:	81 1d       	adc	r24, r1
    6d3c:	11 24       	eor	r1, r1
    6d3e:	91 1d       	adc	r25, r1
    6d40:	b2 9f       	mul	r27, r18
    6d42:	70 0d       	add	r23, r0
    6d44:	81 1d       	adc	r24, r1
    6d46:	11 24       	eor	r1, r1
    6d48:	91 1d       	adc	r25, r1
    6d4a:	08 95       	ret

00006d4c <_exit>:
    6d4c:	f8 94       	cli

00006d4e <__stop_program>:
    6d4e:	ff cf       	rjmp	.-2      	; 0x6d4e <__stop_program>
